 FingerStrokeAssistance_xpc

 Timestamp is 58bde0b2 (Mon Mar 06 14:20:34 2017)

 Preferred load address is 10000000

 Start         Length     Name                   Class
 0001:00000000 00040f4eH .text$mn                CODE
 0002:00000000 00000104H .CRT$XCA                DATA
 0002:00000104 00000104H .CRT$XCZ                DATA
 0002:00000208 00000104H .CRT$XIA                DATA
 0002:0000030c 00000118H .CRT$XIC                DATA
 0002:00000424 00000104H .CRT$XIZ                DATA
 0002:00000528 00000104H .CRT$XPA                DATA
 0002:0000062c 00000109H .CRT$XPX                DATA
 0002:00000738 00000104H .CRT$XPXA               DATA
 0002:0000083c 00000104H .CRT$XPZ                DATA
 0002:00000940 00000104H .CRT$XTA                DATA
 0002:00000a44 00000104H .CRT$XTZ                DATA
 0002:00000b50 00013b67H .rdata                  DATA
 0002:000146b8 000001bbH .rdata$debug            DATA
 0002:00014880 0000010eH .rdata$sxdata           DATA
 0002:00014990 00000104H .rtc$IAA                DATA
 0002:00014a94 00000104H .rtc$IZZ                DATA
 0002:00014b98 00000104H .rtc$TAA                DATA
 0002:00014c9c 00000104H .rtc$TZZ                DATA
 0002:00014da0 00000991H .xdata$x                DATA
 0002:00015740 00000226H .edata                  DATA
 0003:00000000 00002e4fH .data                   DATA
 0003:00002e60 00016584H .bss                    DATA
 0004:00000000 000001b0H .idata$5                DATA
 0004:000001b0 00000014H .idata$2                DATA
 0004:000001c4 00000014H .idata$3                DATA
 0004:000001d8 000001b0H .idata$4                DATA
 0004:00000388 0000076bH .idata$6                DATA

  Address         Publics by Value              Rva+Base       Lib:Object

 0000:00000000       ___guard_fids_table        00000000     <absolute>
 0000:00000000       ___guard_flags             00000000     <absolute>
 0000:00000000       __except_list              00000000     <absolute>
 0000:00000000       ___guard_fids_count        00000000     <absolute>
 0000:00000003       ___safe_se_handler_count   00000003     <absolute>
 0000:00000000       ___ImageBase               10000000     <linker-defined>
 0001:00000460       _FingerStrokeAssi_MATLABFunction 10001460 f   FingerStrokeAssistance.obj
 0001:000004c0       _FingerStrokeAssistance    100014c0 f   FingerStrokeAssistance.obj
 0001:00001680       _FingerStrokeAssistance_gainramp 10002680 f   FingerStrokeAssistance.obj
 0001:00004680       _MdlInitialize             10005680 f   FingerStrokeAssistance.obj
 0001:00004690       _MdlInitializeSampleTimes  10005690 f   FingerStrokeAssistance.obj
 0001:000046a0       _MdlInitializeSizes        100056a0 f   FingerStrokeAssistance.obj
 0001:000046b0       _MdlOutputs                100056b0 f   FingerStrokeAssistance.obj
 0001:000046c0       _MdlStart                  100056c0 f   FingerStrokeAssistance.obj
 0001:000046d0       _MdlTerminate              100056d0 f   FingerStrokeAssistance.obj
 0001:00004730       _MdlUpdate                 10005730 f   FingerStrokeAssistance.obj
 0001:00004740       _rt_powd_snf               10005740 f   FingerStrokeAssistance.obj
 0001:000049d0       _rt_roundd_snf             100059d0 f   FingerStrokeAssistance.obj
 0001:00004ad0       _FingerStrokeAssistance_GetCAPIStaticMap 10005ad0 f   FingerStrokeAssistance_capi.obj
 0001:00004ae0       _FingerStrokeAssistance_InitializeDataMapInfo 10005ae0 f   FingerStrokeAssistance_capi.obj
 0001:00004b70       _TgtConnBackgroundTask     10005b70 f   FingerStrokeAssistance_tgtconn.obj
 0001:00004b80       _TgtConnInit               10005b80 f   FingerStrokeAssistance_tgtconn.obj
 0001:00004ba0       _TgtConnPostStep           10005ba0 f   FingerStrokeAssistance_tgtconn.obj
 0001:00004bb0       _TgtConnPreStep            10005bb0 f   FingerStrokeAssistance_tgtconn.obj
 0001:00004bc0       _TgtConnTerm               10005bc0 f   FingerStrokeAssistance_tgtconn.obj
 0001:00004bd0       _rtGetInf                  10005bd0 f   rtGetInf.obj
 0001:00004c00       _rtGetInfF                 10005c00 f   rtGetInf.obj
 0001:00004c20       _rtGetMinusInf             10005c20 f   rtGetInf.obj
 0001:00004c50       _rtGetMinusInfF            10005c50 f   rtGetInf.obj
 0001:00004c70       _rtGetNaN                  10005c70 f   rtGetNaN.obj
 0001:00004ca0       _rtGetNaNF                 10005ca0 f   rtGetNaN.obj
 0001:000055d0       _rt_CreateLogVar           100065d0 f   rt_logging.obj
 0001:00005660       _rt_CreateLogVarWithConvert 10006660 f   rt_logging.obj
 0001:00005fe0       _rt_CreateStructLogVar     10006fe0 f   rt_logging.obj
 0001:00006d50       _rt_GetMxIdFromDTypeId     10007d50 f   rt_logging.obj
 0001:00006d80       _rt_GetMxIdFromDTypeIdForRSim 10007d80 f   rt_logging.obj
 0001:000096c0       _rt_StartDataLogging       1000a6c0 f   rt_logging.obj
 0001:00009b80       _rt_StartDataLoggingWithStartTime 1000ab80 f   rt_logging.obj
 0001:0000a4e0       _rt_StopDataLogging        1000b4e0 f   rt_logging.obj
 0001:0000a500       _rt_StopDataLoggingImpl    1000b500 f   rt_logging.obj
 0001:0000a820       _rt_UpdateLogVar           1000b820 f   rt_logging.obj
 0001:0000bbe0       _rt_UpdateStructLogVar     1000cbe0 f   rt_logging.obj
 0001:0000bc70       _rt_UpdateTXXFYLogVars     1000cc70 f   rt_logging.obj
 0001:0000bfb0       _rt_UpdateTXYLogVars       1000cfb0 f   rt_logging.obj
 0001:0000c200       _rt_CleanUpForStateLogWithMMI 1000d200 f   rt_logging_mmi.obj
 0001:0000c310       _rt_FillStateSigInfoFromMMI 1000d310 f   rt_logging_mmi.obj
 0001:0000c6c0       _rt_mxCreateCharMatrixFromStrings 1000d6c0 f   rt_matrx.obj
 0001:0000c810       _rt_mxCreateDoubleMatrix   1000d810 f   rt_matrx.obj
 0001:0000c870       _rt_mxCreateNumericArray   1000d870 f   rt_matrx.obj
 0001:0000c8f0       _rt_mxCreateString         1000d8f0 f   rt_matrx.obj
 0001:0000c980       _rt_mxDuplicateArray       1000d980 f   rt_matrx.obj
 0001:0000c9e0       _rt_mxGetDimensions        1000d9e0 f   rt_matrx.obj
 0001:0000ca20       _rt_mxGetEps               1000da20 f   rt_matrx.obj
 0001:0000ca30       _rt_mxGetString            1000da30 f   rt_matrx.obj
 0001:0000cab0       _rtIsInf                   1000dab0 f   rt_nonfinite.obj
 0001:0000caf0       _rtIsInfF                  1000daf0 f   rt_nonfinite.obj
 0001:0000cb30       _rtIsNaN                   1000db30 f   rt_nonfinite.obj
 0001:0000cb50       _rtIsNaNF                  1000db50 f   rt_nonfinite.obj
 0001:0000cb70       _rt_InitInfAndNaN          1000db70 f   rt_nonfinite.obj
 0001:0000cbd0       _rtPrintfNoOp              1000dbd0 f   rt_printf.obj
 0001:0000cbe0       _rt_ZCFcn                  1000dbe0 f   rt_zcfcn.obj
 0001:0000cca0       _rtwCAPI_CountSysRan       1000dca0 f   rtw_modelmap_utils.obj
 0001:0000cd40       _rtwCAPI_EncodePath        1000dd40 f   rtw_modelmap_utils.obj
 0001:0000ce30       _rtwCAPI_FillSysRan        1000de30 f   rtw_modelmap_utils.obj
 0001:0000cf20       _rtwCAPI_FreeFullPaths     1000df20 f   rtw_modelmap_utils.obj
 0001:0000cfb0       _rtwCAPI_GetFullStateBlockPath 1000dfb0 f   rtw_modelmap_utils.obj
 0001:0000d160       _rtwCAPI_GetNumContStateRecords 1000e160 f   rtw_modelmap_utils.obj
 0001:0000d220       _rtwCAPI_GetNumSigLogRecords 1000e220 f   rtw_modelmap_utils.obj
 0001:0000d270       _rtwCAPI_GetNumSigLogRecordsForRTWLogging 1000e270 f   rtw_modelmap_utils.obj
 0001:0000d300       _rtwCAPI_GetNumStateRecords 1000e300 f   rtw_modelmap_utils.obj
 0001:0000d350       _rtwCAPI_GetNumStateRecordsForRTWLogging 1000e350 f   rtw_modelmap_utils.obj
 0001:0000d3e0       _rtwCAPI_GetSigAddrFromMap 1000e3e0 f   rtw_modelmap_utils.obj
 0001:0000d4a0       _rtwCAPI_GetSigLogRecordInfo 1000e4a0 f   rtw_modelmap_utils.obj
 0001:0000d8d0       _rtwCAPI_GetStateRecordInfo 1000e8d0 f   rtw_modelmap_utils.obj
 0001:0000dd80       _rtwCAPI_GetStateWidth     1000ed80 f   rtw_modelmap_utils.obj
 0001:0000dde0       _rtwCAPI_HasStates         1000ede0 f   rtw_modelmap_utils.obj
 0001:0000de50       _rtwCAPI_UpdateFullPaths   1000ee50 f   rtw_modelmap_utils.obj
 0001:0000e030       _DllMain@12                1000f030 f   xpctarget.obj
 0001:0000e040       _FingerStrokeAssistance_ChangeStepSize 1000f040 f   xpctarget.obj
 0001:0000e090       _SLRTSetErrorStatus        1000f090 f   xpctarget.obj
 0001:0000e0b0       _changeStepSize            1000f0b0 f   xpctarget.obj
 0001:0000e100       _getDLMVersion             1000f100 f   xpctarget.obj
 0001:0000e110       _getRefMdlPath             1000f110 f   xpctarget.obj
 0001:0000e190       _getRefMdlSignalNumber     1000f190 f   xpctarget.obj
 0001:0000e240       _getrlmdlinfo              1000f240 f   xpctarget.obj
 0001:0000e420       _updateDiscreteEvents      1000f420 f   xpctarget.obj
 0001:0000e430       _getNumRef                 1000f430 f   appmappingData.obj
 0001:0000e440       _encnipcim                 1000f440 f   encnipcim.obj
 0001:0000ea70       _danipcim                  1000fa70 f   danipcim.obj
 0001:0000f210       _adnipcim                  10010210 f   adnipcim.obj
 0001:0000fc40       _niMIdentify               10010c40 f   xpcionim.obj
 0001:0000fdc0       _niM_AISetup               10010dc0 f   xpcionim.obj
 0001:000101d0       _niM_AO_Setup              100111d0 f   xpcionim.obj
 0001:00010360       _niM_Cont_Pulse_Train_Generation 10011360 f   xpcionim.obj
 0001:000104a0       _niM_Counter_Reset_All     100114a0 f   xpcionim.obj
 0001:00010550       _niM_CtrArm                10011550 f   xpcionim.obj
 0001:00010570       _niM_CtrDisarm             10011570 f   xpcionim.obj
 0001:00010590       _niM_CtrReadArm            10011590 f   xpcionim.obj
 0001:000105b0       _niM_CtrReadDisarm         100115b0 f   xpcionim.obj
 0001:000105d0       _niM_PeriodConfigure       100115d0 f   xpcionim.obj
 0001:00010740       _niM_Private_Data          10011740 f   xpcionim.obj
 0001:00010d20       _niM_SetPFIFilter          10011d20 f   xpcionim.obj
 0001:00010da0       _niM_SetPFI_DO             10011da0 f   xpcionim.obj
 0001:00010df0       _niM_SetPFI_Select         10011df0 f   xpcionim.obj
 0001:00010e70       _niM_aiConfigureChannel    10011e70 f   xpcionim.obj
 0001:00010ee0       _niM_aiGetScalingCoefficients 10011ee0 f   xpcionim.obj
 0001:000110c0       _niM_aiPolynomialScaler    100120c0 f   xpcionim.obj
 0001:000111e0       _niM_analogTriggerReset    100121e0 f   xpcionim.obj
 0001:00011230       _niM_aoConfigureDAC        10012230 f   xpcionim.obj
 0001:00011280       _niM_aoGetScalingCoefficients 10012280 f   xpcionim.obj
 0001:00011330       _niM_aoLinearScaler        10012330 f   xpcionim.obj
 0001:00011360       _niM_configureTimebase     10012360 f   xpcionim.obj
 0001:00011380       _niM_eepromReadMSeries     10012380 f   xpcionim.obj
 0001:00011450       _niM_pllReset              10012450 f   xpcionim.obj
 0001:00011480       _niM_resetCtr              10012480 f   xpcionim.obj
 0001:000114a0       _niM_whichBank             100124a0 f   xpcionim.obj
 0001:000114e0       _niMconfig                 100124e0 f   xpcionim.obj
 0001:00011580       _GetPCIDeviceFull          10012580 f   xpcruntime:xpcimports.obj
 0001:000115b0       _ShowPCIDevice             100125b0 f   xpcruntime:xpcimports.obj
 0001:00011c20       _xpcGetPciConfigAtSlot     10012c20 f   xpcruntime:xpcimports.obj
 0001:00011ea0       _xpcInitProcs              10012ea0 f   xpcruntime:xpcimports.obj
 0001:00012a00       _xpceuploadevent           10013a00 f   xpcruntime:xpcimports.obj
 0001:00012a01       __heap_alloc               10013a01 f i LIBCMT:malloc.obj
 0001:00012a3e       _malloc                    10013a3e f   LIBCMT:malloc.obj
 0001:00012ad0       __get_printf_count_output  10013ad0 f   LIBCMT:printf.obj
 0001:00012ae5       __printf_l                 10013ae5 f   LIBCMT:printf.obj
 0001:00012afc       __printf_p                 10013afc f   LIBCMT:printf.obj
 0001:00012b12       __printf_p_l               10013b12 f   LIBCMT:printf.obj
 0001:00012b29       __printf_s_l               10013b29 f   LIBCMT:printf.obj
 0001:00012b40       __set_printf_count_output  10013b40 f   LIBCMT:printf.obj
 0001:00012b68       _printf                    10013b68 f   LIBCMT:printf.obj
 0001:00012c17       _printf_s                  10013c17 f   LIBCMT:printf.obj
 0001:00012c2d       ___libm_sse2_pow           10013c2d f   LIBCMT:pow_sse2.obj
 0001:000136b0       _ceil                      100146b0 f   LIBCMT:ceil_pentium4.obj
 0001:000136f0       __ceil_pentium4            100146f0 f   LIBCMT:ceil_pentium4.obj
 0001:000137d0       _memset                    100147d0 f   LIBCMT:memset.obj
 0001:00013860       __fpmath                   10014860 f   LIBCMT:fpinit.obj
 0001:00013877       ___setfflag                10014877 f   LIBCMT:fpinit.obj
 0001:0001388a       __cfltcvt_init             1001488a f   LIBCMT:fpinit.obj
 0001:000138ea       ___raise_securityfailure   100148ea f   LIBCMT:gs_report.obj
 0001:00013927       ___report_gsfailure        10014927 f   LIBCMT:gs_report.obj
 0001:00013a22       ___report_rangecheckfailure 10014a22 f   LIBCMT:gs_report.obj
 0001:00013a2e       ___report_securityfailure  10014a2e f   LIBCMT:gs_report.obj
 0001:00013afe       ___report_securityfailureEx 10014afe f   LIBCMT:gs_report.obj
 0001:00013c14       ___copy_path_to_wide_string 10014c14 f   LIBCMT:crt0dat.obj
 0001:00013cc6       ___copy_to_char            10014cc6 f   LIBCMT:crt0dat.obj
 0001:00013d7b       ___crtCorExitProcess       10014d7b f   LIBCMT:crt0dat.obj
 0001:00013daf       ___crtExitProcess          10014daf f   LIBCMT:crt0dat.obj
 0001:00013dc5       ___freeCrtMemory           10014dc5 f   LIBCMT:crt0dat.obj
 0001:00013ed2       __amsg_exit                10014ed2 f   LIBCMT:crt0dat.obj
 0001:00013eee       __c_exit                   10014eee f   LIBCMT:crt0dat.obj
 0001:00013efd       __cexit                    10014efd f   LIBCMT:crt0dat.obj
 0001:00013f0c       __cinit                    10014f0c f   LIBCMT:crt0dat.obj
 0001:00013f90       __exit                     10014f90 f   LIBCMT:crt0dat.obj
 0001:00013fa4       __exit_app                 10014fa4 f   LIBCMT:crt0dat.obj
 0001:00013fb2       __get_pgmptr               10014fb2 f   LIBCMT:crt0dat.obj
 0001:00013fe1       __get_wpgmptr              10014fe1 f   LIBCMT:crt0dat.obj
 0001:00014010       __init_pointers            10015010 f   LIBCMT:crt0dat.obj
 0001:0001407e       __initterm_e               1001507e f   LIBCMT:crt0dat.obj
 0001:000140a0       __lockexit                 100150a0 f   LIBCMT:crt0dat.obj
 0001:000140a9       __unlockexit               100150a9 f   LIBCMT:crt0dat.obj
 0001:000141e1       _exit                      100151e1 f   LIBCMT:crt0dat.obj
 0001:000141f5       _calloc                    100151f5 f   LIBCMT:calloc.obj
 0001:00014235       _free                      10015235 f   LIBCMT:free.obj
 0001:0001426d       _realloc                   1001526d f   LIBCMT:realloc.obj
 0001:00014320       _memmove                   10015320 f   LIBCMT:memmove.obj
 0001:00014970       _strchr                    10015970 f   LIBCMT:strchr.obj
 0001:000149de       ___from_strstr_to_strchr   100159de     LIBCMT:strchr.obj
 0001:00014aa0       _strncat                   10015aa0 f   LIBCMT:strncat.obj
 0001:00014be0       _strncpy                   10015be0 f   LIBCMT:strncpy.obj
 0001:00014d04       ___initstdio               10015d04 f   LIBCMT:_file.obj
 0001:00014d77       ___endstdio                10015d77 f   LIBCMT:_file.obj
 0001:00014d9e       ___iob_func                10015d9e f   LIBCMT:_file.obj
 0001:00014da4       __lock_file                10015da4 f   LIBCMT:_file.obj
 0001:00014de3       __lock_file2               10015de3 f   LIBCMT:_file.obj
 0001:00014e13       __unlock_file              10015e13 f   LIBCMT:_file.obj
 0001:00014e4d       __unlock_file2             10015e4d f   LIBCMT:_file.obj
 0001:00014e7a       __fclose_nolock            10015e7a f   LIBCMT:fclose.obj
 0001:00014ee6       _fclose                    10015ee6 f   LIBCMT:fclose.obj
 0001:00014f5d       __fsopen                   10015f5d f   LIBCMT:fopen.obj
 0001:00015021       _fopen                     10016021 f   LIBCMT:fopen.obj
 0001:00015036       _fopen_s                   10016036 f   LIBCMT:fopen.obj
 0001:0001507b       __fprintf_l                1001607b f   LIBCMT:fprintf.obj
 0001:00015095       __fprintf_p                10016095 f   LIBCMT:fprintf.obj
 0001:000150ae       __fprintf_p_l              100160ae f   LIBCMT:fprintf.obj
 0001:000150c8       __fprintf_s_l              100160c8 f   LIBCMT:fprintf.obj
 0001:000150e2       _fprintf                   100160e2 f   LIBCMT:fprintf.obj
 0001:000151f4       _fprintf_s                 100161f4 f   LIBCMT:fprintf.obj
 0001:0001520d       __fread_nolock             1001620d f   LIBCMT:fread.obj
 0001:00015228       __fread_nolock_s           10016228 f   LIBCMT:fread.obj
 0001:000153ed       _fread                     100163ed f   LIBCMT:fread.obj
 0001:00015408       _fread_s                   10016408 f   LIBCMT:fread.obj
 0001:00015499       __fwrite_nolock            10016499 f   LIBCMT:fwrite.obj
 0001:000155f2       _fwrite                    100165f2 f   LIBCMT:fwrite.obj
 0001:00015674       __unlink                   10016674 f   LIBCMT:unlink.obj
 0001:0001567d       _remove                    1001667d f   LIBCMT:unlink.obj
 0001:000156bf       _rewind                    100166bf f   LIBCMT:rewind.obj
 0001:0001577e       __scprintf                 1001677e f   LIBCMT:sprintf.obj
 0001:00015791       __scprintf_l               10016791 f   LIBCMT:sprintf.obj
 0001:000157a8       __scprintf_p               100167a8 f   LIBCMT:sprintf.obj
 0001:000157bb       __scprintf_p_l             100167bb f   LIBCMT:sprintf.obj
 0001:000157d2       __snprintf_s               100167d2 f   LIBCMT:sprintf.obj
 0001:000157f1       __snprintf_s_l             100167f1 f   LIBCMT:sprintf.obj
 0001:00015811       __sprintf_l                10016811 f   LIBCMT:sprintf.obj
 0001:0001582b       __sprintf_p                1001682b f   LIBCMT:sprintf.obj
 0001:00015847       __sprintf_p_l              10016847 f   LIBCMT:sprintf.obj
 0001:00015864       __sprintf_s_l              10016864 f   LIBCMT:sprintf.obj
 0001:00015881       _sprintf                   10016881 f   LIBCMT:sprintf.obj
 0001:00015905       _sprintf_s                 10016905 f   LIBCMT:sprintf.obj
 0001:00015921       _ldexp                     10016921 f   LIBCMT:ldexp.obj
 0001:00015b0d       @__security_check_cookie@4 10016b0d f   LIBCMT:secchk.obj
 0001:00015b20       __ftoui3                   10016b20 f   LIBCMT:ftol3.obj
 0001:00015b2f       __ftoul3                   10016b2f f   LIBCMT:ftol3.obj
 0001:00015b3e       __ftol3                    10016b3e f   LIBCMT:ftol3.obj
 0001:00015b4b       __ftol3_NaN                10016b4b f   LIBCMT:ftol3.obj
 0001:00015b63       __ftol3_work               10016b63 f   LIBCMT:ftol3.obj
 0001:00015be9       __ftol3_common             10016be9 f   LIBCMT:ftol3.obj
 0001:00015cab       __ftol3_arg_error          10016cab f   LIBCMT:ftol3.obj
 0001:00015cbd       __ftol3_except             10016cbd f   LIBCMT:ftol3.obj
 0001:00015cff       __dtoui3                   10016cff f   LIBCMT:ftol3.obj
 0001:00015d0e       __dtoul3                   10016d0e f   LIBCMT:ftol3.obj
 0001:00015d1d       __dtol3                    10016d1d f   LIBCMT:ftol3.obj
 0001:00015d2a       __dtol3_NaN                10016d2a f   LIBCMT:ftol3.obj
 0001:00015d47       __dtol3_work               10016d47 f   LIBCMT:ftol3.obj
 0001:00015e2c       __ultod3                   10016e2c f   LIBCMT:ftol3.obj
 0001:00015ebd       __ltod3                    10016ebd f   LIBCMT:ftol3.obj
 0001:00015ef0       _memcpy                    10016ef0 f   LIBCMT:memcpy.obj
 0001:00016534       ___isa_available_init      10017534 f   LIBCMT:cpu_disp.obj
 0001:000166ad       __invoke_watson_if_error   100176ad f i LIBCMT:wassert.obj
 0001:000166cd       __wassert                  100176cd f   LIBCMT:wassert.obj
 0001:00016d71       __CRT_INIT@12              10017d71 f   LIBCMT:dllcrt0.obj
 0001:00016ee3       __DllMainCRTStartup@12     10017ee3 f   LIBCMT:dllcrt0.obj
 0001:00017014       ___DllXcptFilter           10018014 f   LIBCMT:dllcrt0.obj
 0001:00017039       ?_query_new_handler@@YAP6AHI@ZXZ 10018039 f   LIBCMT:handler.obj
 0001:00017046       ?_set_new_handler@@YAP6AHI@ZH@Z 10018046 f   LIBCMT:handler.obj
 0001:0001704f       ?_set_new_handler@@YAP6AHI@ZP6AHI@Z@Z 1001804f f   LIBCMT:handler.obj
 0001:00017084       __callnewh                 10018084 f   LIBCMT:handler.obj
 0001:000170aa       __initp_heap_handler       100180aa f   LIBCMT:handler.obj
 0001:000170b7       __FF_MSGBANNER             100180b7 f   LIBCMT:crt0msg.obj
 0001:000170f0       __GET_RTERRMSG             100180f0 f   LIBCMT:crt0msg.obj
 0001:00017114       __NMSG_WRITE               10018114 f   LIBCMT:crt0msg.obj
 0001:000172d1       ___doserrno                100182d1 f   LIBCMT:dosmap.obj
 0001:000172e4       __dosmaperr                100182e4 f   LIBCMT:dosmap.obj
 0001:00017305       __errno                    10018305 f   LIBCMT:dosmap.obj
 0001:00017318       __get_doserrno             10018318 f   LIBCMT:dosmap.obj
 0001:0001733b       __get_errno                1001833b f   LIBCMT:dosmap.obj
 0001:0001735e       __get_errno_from_oserr     1001835e f   LIBCMT:dosmap.obj
 0001:0001739f       __set_doserrno             1001839f f   LIBCMT:dosmap.obj
 0001:000173be       __set_errno                100183be f   LIBCMT:dosmap.obj
 0001:000173dd       __get_heap_handle          100183dd f   LIBCMT:heapinit.obj
 0001:000173e3       __heap_init                100183e3 f   LIBCMT:heapinit.obj
 0001:000173f8       __heap_term                100183f8 f   LIBCMT:heapinit.obj
 0001:00017400       ?_invalid_parameter@@YAXPBG00II@Z 10018400 f   LIBCMT:invarg.obj
 0001:00017405       ?_invoke_watson@@YAXPBG00II@Z 10018405 f   LIBCMT:invarg.obj
 0001:0001741d       __call_reportfault         1001841d f   LIBCMT:invarg.obj
 0001:00017542       __get_invalid_parameter_handler 10018542 f   LIBCMT:invarg.obj
 0001:0001754f       __initp_misc_invarg        1001854f f   LIBCMT:invarg.obj
 0001:0001755c       __invalid_parameter        1001855c f   LIBCMT:invarg.obj
 0001:00017587       __invalid_parameter_noinfo 10018587 f   LIBCMT:invarg.obj
 0001:00017597       __invalid_parameter_noinfo_noreturn 10018597 f   LIBCMT:invarg.obj
 0001:000175b2       __invoke_watson            100185b2 f   LIBCMT:invarg.obj
 0001:000175dd       __set_invalid_parameter_handler 100185dd f   LIBCMT:invarg.obj
 0001:00017602       __vprintf_l                10018602 f   LIBCMT:vprintf.obj
 0001:0001761d       __vprintf_p                1001861d f   LIBCMT:vprintf.obj
 0001:00017637       __vprintf_p_l              10018637 f   LIBCMT:vprintf.obj
 0001:00017652       __vprintf_s_l              10018652 f   LIBCMT:vprintf.obj
 0001:0001766d       _vprintf                   1001866d f   LIBCMT:vprintf.obj
 0001:00017687       _vprintf_helper            10018687 f   LIBCMT:vprintf.obj
 0001:00017714       _vprintf_s                 10018714 f   LIBCMT:vprintf.obj
 0001:0001772e       __ftbuf                    1001872e f   LIBCMT:_sftbuf.obj
 0001:0001775f       __stbuf                    1001875f f   LIBCMT:_sftbuf.obj
 0001:00017805       ??0_LocaleUpdate@@QAE@PAUlocaleinfo_struct@@@Z 10018805 f i LIBCMT:output.obj
 0001:0001788d       ??1_LocaleUpdate@@QAE@XZ   1001888d f i LIBCMT:output.obj
 0001:0001789b       ?GetLocaleT@_LocaleUpdate@@QAEPAUlocaleinfo_struct@@XZ 1001889b f i LIBCMT:output.obj
 0001:0001789e       __output_l                 1001889e f   LIBCMT:output.obj
 0001:0001841e       _get_int64_arg             1001941e f i LIBCMT:output.obj
 0001:00018431       _get_int_arg               10019431 f i LIBCMT:output.obj
 0001:00018441       _get_short_arg             10019441 f i LIBCMT:output.obj
 0001:00018540       __SEH_prolog4              10019540 f   LIBCMT:sehprolg4.obj
 0001:00018585       __SEH_epilog4              10019585 f   LIBCMT:sehprolg4.obj
 0001:000185e0       __except_handler4          100195e0 f   LIBCMT:chandler4.obj
 0001:00018774       ___libm_error_support      10019774 f   LIBCMT:libm_error.obj
 0001:00018a5c       ___libm_setusermatherr     10019a5c f   LIBCMT:libm_error.obj
 0001:00018a88       __sse2_mathfcns_init       10019a88 f   LIBCMT:mathfcns.obj
 0001:00018a97       __set_SSE2_enable          10019a97 f   LIBCMT:mathfcns.obj
 0001:00018ab6       __ceil_default             10019ab6 f   LIBCMT:ceil.obj
 0001:00018b8d       __VEC_memset               10019b8d f   LIBCMT:p4_memset.obj
 0001:00018c55       ?strrchr@@YAPADPADH@Z      10019c55 f i LIBCMT:cvt.obj
 0001:00018c5e       __cfltcvt                  10019c5e f   LIBCMT:cvt.obj
 0001:00018c7f       __cfltcvt_l                10019c7f f   LIBCMT:cvt.obj
 0001:00018d05       __cftoa                    10019d05 f   LIBCMT:cvt.obj
 0001:00018d23       __cftoa_l                  10019d23 f   LIBCMT:cvt.obj
 0001:0001907f       __cftoe                    1001a07f f   LIBCMT:cvt.obj
 0001:000191ee       __cftoe_l                  1001a1ee f   LIBCMT:cvt.obj
 0001:000192bc       __cftof                    1001a2bc f   LIBCMT:cvt.obj
 0001:000193c3       __cftof_l                  1001a3c3 f   LIBCMT:cvt.obj
 0001:00019484       __cftog                    1001a484 f   LIBCMT:cvt.obj
 0001:000194a2       __cftog_l                  1001a4a2 f   LIBCMT:cvt.obj
 0001:000195a1       __cropzeros                1001a5a1 f   LIBCMT:cvt.obj
 0001:000195b2       __cropzeros_l              1001a5b2 f   LIBCMT:cvt.obj
 0001:00019632       __fassign                  1001a632 f   LIBCMT:cvt.obj
 0001:0001964a       __fassign_l                1001a64a f   LIBCMT:cvt.obj
 0001:0001968c       __forcdecpt                1001a68c f   LIBCMT:cvt.obj
 0001:0001969d       __forcdecpt_l              1001a69d f   LIBCMT:cvt.obj
 0001:00019711       __positive                 1001a711 f   LIBCMT:cvt.obj
 0001:00019753       __setdefaultprecision      1001a753 f   LIBCMT:fp8.obj
 0001:0001977a       __initp_misc_cfltcvt_tab   1001a77a f   LIBCMT:cmiscdat.obj
 0001:00019799       __crt_debugger_hook        1001a799 f   LIBCMT:dbghook.obj
 0001:000197ce       ___crtCloseThreadpoolTimer 1001a7ce f   LIBCMT:winapisupp.obj
 0001:000197e5       ___crtCloseThreadpoolWait  1001a7e5 f   LIBCMT:winapisupp.obj
 0001:000197fc       ___crtCreateEventExW       1001a7fc f   LIBCMT:winapisupp.obj
 0001:00019837       ___crtCreateSemaphoreExW   1001a837 f   LIBCMT:winapisupp.obj
 0001:00019871       ___crtCreateSymbolicLinkW  1001a871 f   LIBCMT:winapisupp.obj
 0001:0001989a       ___crtCreateThreadpoolTimer 1001a89a f   LIBCMT:winapisupp.obj
 0001:000198bb       ___crtCreateThreadpoolWait 1001a8bb f   LIBCMT:winapisupp.obj
 0001:000198dc       ___crtFlsAlloc             1001a8dc f   LIBCMT:winapisupp.obj
 0001:000198fa       ___crtFlsFree              1001a8fa f   LIBCMT:winapisupp.obj
 0001:00019919       ___crtFlsGetValue          1001a919 f   LIBCMT:winapisupp.obj
 0001:00019938       ___crtFlsSetValue          1001a938 f   LIBCMT:winapisupp.obj
 0001:0001995a       ___crtFlushProcessWriteBuffers 1001a95a f   LIBCMT:winapisupp.obj
 0001:0001996a       ___crtFreeLibraryWhenCallbackReturns 1001a96a f   LIBCMT:winapisupp.obj
 0001:00019984       ___crtGetCurrentProcessorNumber 1001a984 f   LIBCMT:winapisupp.obj
 0001:00019996       ___crtGetFileInformationByHandleEx 1001a996 f   LIBCMT:winapisupp.obj
 0001:000199c2       ___crtGetLogicalProcessorInformation 1001a9c2 f   LIBCMT:winapisupp.obj
 0001:000199e8       ___crtGetShowWindowMode    1001a9e8 f   LIBCMT:winapisupp.obj
 0001:00019a0b       ___crtGetTickCount64       1001aa0b f   LIBCMT:winapisupp.obj
 0001:00019a23       ___crtInitializeCriticalSectionEx 1001aa23 f   LIBCMT:winapisupp.obj
 0001:00019a51       ___crtIsPackagedApp        1001aa51 f   LIBCMT:winapisupp.obj
 0001:00019a91       ___crtLoadWinApiPointers   1001aa91 f   LIBCMT:winapisupp.obj
 0001:00019d1c       ___crtSetFileInformationByHandle 1001ad1c f   LIBCMT:winapisupp.obj
 0001:00019d48       ___crtSetThreadStackGuarantee 1001ad48 f   LIBCMT:winapisupp.obj
 0001:00019d63       ___crtSetThreadpoolTimer   1001ad63 f   LIBCMT:winapisupp.obj
 0001:00019d83       ___crtSetThreadpoolWait    1001ad83 f   LIBCMT:winapisupp.obj
 0001:00019da0       ___crtSetUnhandledExceptionFilter 1001ada0 f   LIBCMT:winapisupp.obj
 0001:00019dae       ___crtSleep                1001adae f   LIBCMT:winapisupp.obj
 0001:00019dbc       ___crtTerminateProcess     1001adbc f   LIBCMT:winapisupp.obj
 0001:00019dd1       ___crtUnhandledException   1001add1 f   LIBCMT:winapisupp.obj
 0001:00019de7       ___crtWaitForThreadpoolTimerCallbacks 1001ade7 f   LIBCMT:winapisupp.obj
 0001:00019e01       __RTC_Initialize           1001ae01 f   LIBCMT:initsect.obj
 0001:00019e21       __RTC_Terminate            1001ae21 f   LIBCMT:initsect.obj
 0001:00019e41       __lock                     1001ae41 f   LIBCMT:mlock.obj
 0001:00019e75       __lockerr_exit             1001ae75 f   LIBCMT:mlock.obj
 0001:00019e95       __mtdeletelocks            1001ae95 f   LIBCMT:mlock.obj
 0001:00019ee9       __mtinitlocknum            1001aee9 f   LIBCMT:mlock.obj
 0001:00019f92       __mtinitlocks              1001af92 f   LIBCMT:mlock.obj
 0001:00019fcb       __unlock                   1001afcb f   LIBCMT:mlock.obj
 0001:00019fe0       __FindPESection            1001afe0 f   LIBCMT:pesect.obj
 0001:0001a030       __IsNonwritableInCurrentImage 1001b030 f   LIBCMT:pesect.obj
 0001:0001a0f0       __ValidateImageBase        1001b0f0 f   LIBCMT:pesect.obj
 0001:0001a121       ___onexitinit              1001b121 f   LIBCMT:onexit.obj
 0001:0001a150       __onexit                   1001b150 f   LIBCMT:onexit.obj
 0001:0001a24c       _atexit                    1001b24c f   LIBCMT:onexit.obj
 0001:0001a261       __calloc_crt               1001b261 f   LIBCMT:crtheap.obj
 0001:0001a2a9       __malloc_crt               1001b2a9 f   LIBCMT:crtheap.obj
 0001:0001a2f0       __realloc_crt              1001b2f0 f   LIBCMT:crtheap.obj
 0001:0001a33a       __recalloc_crt             1001b33a f   LIBCMT:crtheap.obj
 0001:0001a388       __set_malloc_crt_max_wait  1001b388 f   LIBCMT:crtheap.obj
 0001:0001a39b       _wait_a_bit                1001b39b f i LIBCMT:crtheap.obj
 0001:0001a3bf       ?_inconsistency@@YAXXZ     1001b3bf f   LIBCMT:hooks.obj
 0001:0001a3f7       ?terminate@@YAXXZ          1001b3f7 f   LIBCMT:hooks.obj
 0001:0001a42b       ?unexpected@@YAXXZ         1001b42b f   LIBCMT:hooks.obj
 0001:0001a43e       __initp_eh_hooks           1001b43e f   LIBCMT:hooks.obj
 0001:0001a44f       ___getlocaleinfo           1001b44f f   LIBCMT:inithelp.obj
 0001:0001a628       __initp_misc_purevirt      1001b628 f   LIBCMT:inithelp.obj
 0001:0001a635       ___fpecode                 1001b635 f   LIBCMT:winsig.obj
 0001:0001a63e       ___get_sigabrt             1001b63e f   LIBCMT:winsig.obj
 0001:0001a64b       ___pxcptinfoptrs           1001b64b f   LIBCMT:winsig.obj
 0001:0001a654       __initp_misc_winsig        1001b654 f   LIBCMT:winsig.obj
 0001:0001a715       _raise                     1001b715 f   LIBCMT:winsig.obj
 0001:0001a90a       _signal                    1001b90a f   LIBCMT:winsig.obj
 0001:0001ab61       __initp_misc_rand_s        1001bb61 f   LIBCMT:rand_s.obj
 0001:0001ab6e       _rand_s                    1001bb6e f   LIBCMT:rand_s.obj
 0001:0001ac74       ___initmbctable            1001bc74 f   LIBCMT:mbctype.obj
 0001:0001af2b       ___updatetmbcinfo          1001bf2b f   LIBCMT:mbctype.obj
 0001:0001afd1       __getmbcp                  1001bfd1 f   LIBCMT:mbctype.obj
 0001:0001b002       __setmbcp                  1001c002 f   LIBCMT:mbctype.obj
 0001:0001b1aa       __setmbcp_nolock           1001c1aa f   LIBCMT:mbctype.obj
 0001:0001b395       __calloc_impl              1001c395 f   LIBCMT:calloc_impl.obj
 0001:0001b40f       __fcloseall                1001c40f f   LIBCMT:closeall.obj
 0001:0001b4ac       __fflush_nolock            1001c4ac f   LIBCMT:fflush.obj
 0001:0001b4f2       __flush                    1001c4f2 f   LIBCMT:fflush.obj
 0001:0001b556       __flushall                 1001c556 f   LIBCMT:fflush.obj
 0001:0001b55f       _fflush                    1001c55f f   LIBCMT:fflush.obj
 0001:0001b69c       __fileno                   1001c69c f   LIBCMT:fileno.obj
 0001:0001b6c0       __close                    1001c6c0 f   LIBCMT:close.obj
 0001:0001b79b       __close_nolock             1001c79b f   LIBCMT:close.obj
 0001:0001b835       __freebuf                  1001c835 f   LIBCMT:_freebuf.obj
 0001:0001b865       __getstream                1001c865 f   LIBCMT:stream.obj
 0001:0001b984       __openfile                 1001c984 f   LIBCMT:_open.obj
 0001:0001bc00       __local_unwind4            1001cc00 f   LIBCMT:exsup4.obj
 0001:0001bcd6       __seh_longjmp_unwind4@4    1001ccd6 f   LIBCMT:exsup4.obj
 0001:0001bcf2       @_EH4_CallFilterFunc@8     1001ccf2 f   LIBCMT:exsup4.obj
 0001:0001bd09       @_EH4_TransferToHandler@8  1001cd09 f   LIBCMT:exsup4.obj
 0001:0001bd22       @_EH4_GlobalUnwind2@8      1001cd22 f   LIBCMT:exsup4.obj
 0001:0001bd3b       @_EH4_LocalUnwind@16       1001cd3b f   LIBCMT:exsup4.obj
 0001:0001bd52       __vfprintf_l               1001cd52 f   LIBCMT:vfprintf.obj
 0001:0001bd70       __vfprintf_p               1001cd70 f   LIBCMT:vfprintf.obj
 0001:0001bd8d       __vfprintf_p_l             1001cd8d f   LIBCMT:vfprintf.obj
 0001:0001bdab       __vfprintf_s_l             1001cdab f   LIBCMT:vfprintf.obj
 0001:0001bdc9       _vfprintf                  1001cdc9 f   LIBCMT:vfprintf.obj
 0001:0001bde6       _vfprintf_helper           1001cde6 f   LIBCMT:vfprintf.obj
 0001:0001bef7       _vfprintf_s                1001cef7 f   LIBCMT:vfprintf.obj
 0001:0001bf14       __ioinit                   1001cf14 f   LIBCMT:ioinit.obj
 0001:0001c1c8       __ioterm                   1001d1c8 f   LIBCMT:ioinit.obj
 0001:0001c21a       __filbuf                   1001d21a f   LIBCMT:_filbuf.obj
 0001:0001c33b       _memcpy_s                  1001d33b f   LIBCMT:memcpy_s.obj
 0001:0001c3ba       __read                     1001d3ba f   LIBCMT:read.obj
 0001:0001c4ce       __read_nolock              1001d4ce f   LIBCMT:read.obj
 0001:0001cc5f       __flsbuf                   1001dc5f f   LIBCMT:_flsbuf.obj
 0001:0001cdae       __write                    1001ddae f   LIBCMT:write.obj
 0001:0001ce9d       __write_nolock             1001de9d f   LIBCMT:write.obj
 0001:0001d702       __wremove                  1001e702 f   LIBCMT:wunlink.obj
 0001:0001d730       __wunlink                  1001e730 f   LIBCMT:wunlink.obj
 0001:0001d739       __lseek                    1001e739 f   LIBCMT:lseek.obj
 0001:0001d828       __lseek_nolock             1001e828 f   LIBCMT:lseek.obj
 0001:0001d8cf       __vscprintf                1001e8cf f   LIBCMT:vsprintf.obj
 0001:0001d8e9       __vscprintf_helper         1001e8e9 f   LIBCMT:vsprintf.obj
 0001:0001d945       __vscprintf_l              1001e945 f   LIBCMT:vsprintf.obj
 0001:0001d960       __vscprintf_p              1001e960 f   LIBCMT:vsprintf.obj
 0001:0001d97a       __vscprintf_p_l            1001e97a f   LIBCMT:vsprintf.obj
 0001:0001d995       __vsprintf_l               1001e995 f   LIBCMT:vsprintf.obj
 0001:0001da19       _vsprintf                  1001ea19 f   LIBCMT:vsprintf.obj
 0001:0001da31       __vsnprintf_c              1001ea31 f   LIBCMT:vsnprnc.obj
 0001:0001da58       __vsnprintf_c_l            1001ea58 f   LIBCMT:vsnprnc.obj
 0001:0001da80       __vsnprintf_helper         1001ea80 f   LIBCMT:vsnprnc.obj
 0001:0001db4a       __vsnprintf_s              1001eb4a f   LIBCMT:vsnprnc.obj
 0001:0001db68       __vsnprintf_s_l            1001eb68 f   LIBCMT:vsnprnc.obj
 0001:0001dc68       __vsprintf_p               1001ec68 f   LIBCMT:vsnprnc.obj
 0001:0001dc8f       __vsprintf_p_l             1001ec8f f   LIBCMT:vsnprnc.obj
 0001:0001dcb7       __vsprintf_s_l             1001ecb7 f   LIBCMT:vsnprnc.obj
 0001:0001dd2c       _vsprintf_s                1001ed2c f   LIBCMT:vsnprnc.obj
 0001:0001dd47       __chgsign                  1001ed47 f   LIBCMT:ieeemisc.obj
 0001:0001dd74       __chgsignf                 1001ed74 f   LIBCMT:ieeemisc.obj
 0001:0001dd95       __copysign                 1001ed95 f   LIBCMT:ieeemisc.obj
 0001:0001ddbd       __copysignf                1001edbd f   LIBCMT:ieeemisc.obj
 0001:0001ddd9       __finite                   1001edd9 f   LIBCMT:ieeemisc.obj
 0001:0001ddf1       __fpclass                  1001edf1 f   LIBCMT:ieeemisc.obj
 0001:0001de8d       __isnan                    1001ee8d f   LIBCMT:ieeemisc.obj
 0001:0001dec0       __logb                     1001eec0 f   LIBCMT:ieeemisc.obj
 0001:0001dfa1       __nextafter                1001efa1 f   LIBCMT:ieeemisc.obj
 0001:0001e241       __scalb                    1001f241 f   LIBCMT:ieeemisc.obj
 0001:0001e259       __add_exp                  1001f259 f   LIBCMT:util.obj
 0001:0001e288       __decomp                   1001f288 f   LIBCMT:util.obj
 0001:0001e35a       __get_exp                  1001f35a f   LIBCMT:util.obj
 0001:0001e373       __set_bexp                 1001f373 f   LIBCMT:util.obj
 0001:0001e39c       __set_exp                  1001f39c f   LIBCMT:util.obj
 0001:0001e3cb       __sptype                   1001f3cb f   LIBCMT:util.obj
 0001:0001e426       __errcode                  1001f426 f   LIBCMT:fpexcept.obj
 0001:0001e458       __except1                  1001f458 f   LIBCMT:fpexcept.obj
 0001:0001e520       __except2                  1001f520 f   LIBCMT:fpexcept.obj
 0001:0001e620       __handle_exc               1001f620 f   LIBCMT:fpexcept.obj
 0001:0001e7fe       __handle_qnan1             1001f7fe f   LIBCMT:fpexcept.obj
 0001:0001e84e       __handle_qnan2             1001f84e f   LIBCMT:fpexcept.obj
 0001:0001e8ae       __raise_exc                1001f8ae f   LIBCMT:fpexcept.obj
 0001:0001e8cf       __raise_exc_ex             1001f8cf f   LIBCMT:fpexcept.obj
 0001:0001ebb4       __raise_excf               1001fbb4 f   LIBCMT:fpexcept.obj
 0001:0001ebd5       __set_errno_from_matherr   1001fbd5 f   LIBCMT:fpexcept.obj
 0001:0001ec02       __umatherr                 1001fc02 f   LIBCMT:fpexcept.obj
 0001:0001eca2       ___clrfp_sse2              1001fca2 f   LIBCMT:fpctrl.obj
 0001:0001ecc3       ___ctrlfp_sse2             1001fcc3 f   LIBCMT:fpctrl.obj
 0001:0001ecfc       ___fclrf_sse2              1001fcfc f   LIBCMT:fpctrl.obj
 0001:0001ed19       ___get_fpsr_sse2           1001fd19 f   LIBCMT:fpctrl.obj
 0001:0001ed35       ___set_fpsr_sse2           1001fd35 f   LIBCMT:fpctrl.obj
 0001:0001edab       ___set_statfp_sse2         1001fdab f   LIBCMT:fpctrl.obj
 0001:0001edc4       ___statfp_sse2             1001fdc4 f   LIBCMT:fpctrl.obj
 0001:0001edd9       __clrfp                    1001fdd9 f   LIBCMT:fpctrl.obj
 0001:0001edea       __ctrlfp                   1001fdea f   LIBCMT:fpctrl.obj
 0001:0001ee15       __set_statfp               1001fe15 f   LIBCMT:fpctrl.obj
 0001:0001ee6d       __statfp                   1001fe6d f   LIBCMT:fpctrl.obj
 0001:0001ee7d       _wcscat_s                  1001fe7d f   LIBCMT:wcscat_s.obj
 0001:0001eee9       _wcscpy_s                  1001fee9 f   LIBCMT:wcscpy_s.obj
 0001:0001ef45       _wcslen                    1001ff45 f   LIBCMT:wcslen.obj
 0001:0001ef5e       _wcsncat_s                 1001ff5e f   LIBCMT:wcsncat_s.obj
 0001:0001f02c       __set_abort_behavior       1002002c f   LIBCMT:abort.obj
 0001:0001f04b       _abort                     1002004b f   LIBCMT:abort.obj
 0001:0001f08e       ___set_app_type            1002008e f   LIBCMT:errmode.obj
 0001:0001f09b       __set_error_mode           1002009b f   LIBCMT:errmode.obj
 0001:0001f1f7       __i64tow_s                 100201f7 f   LIBCMT:xtows.obj
 0001:0001f228       __itow_s                   10020228 f   LIBCMT:xtows.obj
 0001:0001f251       __ltow_s                   10020251 f   LIBCMT:xtows.obj
 0001:0001f27b       __ui64tow_s                1002027b f   LIBCMT:xtows.obj
 0001:0001f296       __ultow_s                  10020296 f   LIBCMT:xtows.obj
 0001:0001f3a1       _setvbuf                   100203a1 f   LIBCMT:setvbuf.obj
 0001:0001f4a7       __fwprintf_l               100204a7 f   LIBCMT:fwprintf.obj
 0001:0001f4c1       __fwprintf_p               100204c1 f   LIBCMT:fwprintf.obj
 0001:0001f4da       __fwprintf_p_l             100204da f   LIBCMT:fwprintf.obj
 0001:0001f4f4       __fwprintf_s_l             100204f4 f   LIBCMT:fwprintf.obj
 0001:0001f50e       _fwprintf                  1002050e f   LIBCMT:fwprintf.obj
 0001:0001f5a2       _fwprintf_s                100205a2 f   LIBCMT:fwprintf.obj
 0001:0001f5bb       __vsnwprintf_s             100205bb f   LIBCMT:vswprnc.obj
 0001:0001f5d9       __vsnwprintf_s_l           100205d9 f   LIBCMT:vswprnc.obj
 0001:0001f6dd       __vswprintf_c              100206dd f   LIBCMT:vswprnc.obj
 0001:0001f704       __vswprintf_c_l            10020704 f   LIBCMT:vswprnc.obj
 0001:0001f72c       __vswprintf_helper         1002072c f   LIBCMT:vswprnc.obj
 0001:0001f827       __vswprintf_p              10020827 f   LIBCMT:vswprnc.obj
 0001:0001f84e       __vswprintf_p_l            1002084e f   LIBCMT:vswprnc.obj
 0001:0001f876       __vswprintf_s_l            10020876 f   LIBCMT:vswprnc.obj
 0001:0001f8ed       _vswprintf_s               100208ed f   LIBCMT:vswprnc.obj
 0001:0001f908       ___crtMessageBoxW          10020908 f   LIBCMT:crtmboxw.obj
 0001:0001faee       ___crtMessageBoxWaitThreadW@4 10020aee f   LIBCMT:crtmboxw.obj
 0001:0001fb0c       __XcptFilter               10020b0c f   LIBCMT:winxfltr.obj
 0001:0001fc67       ___CppXcptFilter           10020c67 f   LIBCMT:winxfltr.obj
 0001:0001fcb9       ___get_flsindex            10020cb9 f   LIBCMT:tidtable.obj
 0001:0001fcbf       ___threadhandle            10020cbf f   LIBCMT:tidtable.obj
 0001:0001fcc5       ___threadid                10020cc5 f   LIBCMT:tidtable.obj
 0001:0001fccb       __freefls@4                10020ccb f   LIBCMT:tidtable.obj
 0001:0001fe00       __freeptd                  10020e00 f   LIBCMT:tidtable.obj
 0001:0001fe36       __getptd                   10020e36 f   LIBCMT:tidtable.obj
 0001:0001fe4e       __getptd_noexit            10020e4e f   LIBCMT:tidtable.obj
 0001:0001febd       __initptd                  10020ebd f   LIBCMT:tidtable.obj
 0001:0001ff70       __mtinit                   10020f70 f   LIBCMT:tidtable.obj
 0001:0001ffe6       __mtterm                   10020fe6 f   LIBCMT:tidtable.obj
 0001:00020003       __set_pgmptr               10021003 f i LIBCMT:stdargv.obj
 0001:00020010       __setargv                  10021010 f   LIBCMT:stdargv.obj
 0001:0002023f       __setenvp                  1002123f f   LIBCMT:stdenvp.obj
 0001:00020320       ___security_init_cookie    10021320 f   LIBCMT:gs_support.obj
 0001:000203bc       ___crtGetEnvironmentStringsA 100213bc f   LIBCMT:a_env.obj
 0001:00020450       _strlen                    10021450 f   LIBCMT:strlen.obj
 0001:000204db       _wcsncpy_s                 100214db f   LIBCMT:wcsncpy_s.obj
 0001:00020599       __output_s_l               10021599 f   LIBCMT:outputs.obj
 0001:00021221       __output_p_l               10022221 f   LIBCMT:outputp.obj
 0001:00022559       __validate_param_reuseA    10023559 f   LIBCMT:outputp.obj
 0001:0002268f       _get_crtdouble_arg         1002368f f i LIBCMT:outputp.obj
 0001:0002278e       __isatty                   1002378e f   LIBCMT:isatty.obj
 0001:000227e2       ___addlocaleref            100237e2 f   LIBCMT:localref.obj
 0001:00022877       ___freetlocinfo            10023877 f   LIBCMT:localref.obj
 0001:000229d1       ___removelocaleref         100239d1 f   LIBCMT:localref.obj
 0001:00022a71       ___updatetlocinfo          10023a71 f   LIBCMT:localref.obj
 0001:00022af1       __updatetlocinfoEx_nolock  10023af1 f   LIBCMT:localref.obj
 0001:00022b3c       ___iswcsym                 10023b3c f i LIBCMT:_wctype.obj
 0001:00022b60       ___iswcsymf                10023b60 f i LIBCMT:_wctype.obj
 0001:00022b84       __isleadbyte_l             10023b84 f i LIBCMT:_wctype.obj
 0001:00022bbe       __iswalnum_l               10023bbe f i LIBCMT:_wctype.obj
 0001:00022bd2       __iswalpha_l               10023bd2 f i LIBCMT:_wctype.obj
 0001:00022be6       __iswblank_l               10023be6 f i LIBCMT:_wctype.obj
 0001:00022c01       __iswcntrl_l               10023c01 f i LIBCMT:_wctype.obj
 0001:00022c12       __iswcsym_l                10023c12 f i LIBCMT:_wctype.obj
 0001:00022c36       __iswcsymf_l               10023c36 f i LIBCMT:_wctype.obj
 0001:00022c5a       __iswdigit_l               10023c5a f i LIBCMT:_wctype.obj
 0001:00022c6b       __iswgraph_l               10023c6b f i LIBCMT:_wctype.obj
 0001:00022c7f       __iswlower_l               10023c7f f i LIBCMT:_wctype.obj
 0001:00022c90       __iswprint_l               10023c90 f i LIBCMT:_wctype.obj
 0001:00022ca4       __iswpunct_l               10023ca4 f i LIBCMT:_wctype.obj
 0001:00022cb5       __iswspace_l               10023cb5 f i LIBCMT:_wctype.obj
 0001:00022cc6       __iswupper_l               10023cc6 f i LIBCMT:_wctype.obj
 0001:00022cd7       __iswxdigit_l              10023cd7 f i LIBCMT:_wctype.obj
 0001:00022ceb       _isleadbyte                10023ceb f i LIBCMT:_wctype.obj
 0001:00022cfc       _iswalnum                  10023cfc f i LIBCMT:_wctype.obj
 0001:00022d10       _iswalpha                  10023d10 f i LIBCMT:_wctype.obj
 0001:00022d24       _iswascii                  10023d24 f i LIBCMT:_wctype.obj
 0001:00022d36       _iswblank                  10023d36 f i LIBCMT:_wctype.obj
 0001:00022d51       _iswcntrl                  10023d51 f i LIBCMT:_wctype.obj
 0001:00022d62       _iswdigit                  10023d62 f i LIBCMT:_wctype.obj
 0001:00022d73       _iswgraph                  10023d73 f i LIBCMT:_wctype.obj
 0001:00022d87       _iswlower                  10023d87 f i LIBCMT:_wctype.obj
 0001:00022d98       _iswprint                  10023d98 f i LIBCMT:_wctype.obj
 0001:00022dac       _iswpunct                  10023dac f i LIBCMT:_wctype.obj
 0001:00022dbd       _iswspace                  10023dbd f i LIBCMT:_wctype.obj
 0001:00022dce       _iswupper                  10023dce f i LIBCMT:_wctype.obj
 0001:00022ddf       _iswxdigit                 10023ddf f i LIBCMT:_wctype.obj
 0001:00022df3       __wctomb_l                 10023df3 f   LIBCMT:wctomb.obj
 0001:00022e42       __wctomb_s_l               10023e42 f   LIBCMT:wctomb.obj
 0001:00022f66       _wctomb                    10023f66 f   LIBCMT:wctomb.obj
 0001:00022f99       _wctomb_s                  10023f99 f   LIBCMT:wctomb.obj
 0001:00022fc0       __aulldvrm                 10023fc0 f   LIBCMT:ulldvrm.obj
 0001:00023055       __matherr                  10024055 f   LIBCMT:matherr.obj
 0001:00023058       __frnd                     10024058 f   LIBCMT:frnd.obj
 0001:0002306c       ___isascii                 1002406c f i LIBCMT:_ctype.obj
 0001:0002307c       ___iscsym                  1002407c f i LIBCMT:_ctype.obj
 0001:0002309c       ___iscsymf                 1002409c f i LIBCMT:_ctype.obj
 0001:000230b9       ___toascii                 100240b9 f i LIBCMT:_ctype.obj
 0001:000230c4       __isalnum_l                100240c4 f i LIBCMT:_ctype.obj
 0001:0002311c       __isalpha_l                1002411c f i LIBCMT:_ctype.obj
 0001:00023174       __isblank_l                10024174 f i LIBCMT:_ctype.obj
 0001:000231ce       __iscntrl_l                100241ce f i LIBCMT:_ctype.obj
 0001:00023220       __iscsym_l                 10024220 f i LIBCMT:_ctype.obj
 0001:00023241       __iscsymf_l                10024241 f i LIBCMT:_ctype.obj
 0001:00023262       __isdigit_l                10024262 f i LIBCMT:_ctype.obj
 0001:000232b4       __isgraph_l                100242b4 f i LIBCMT:_ctype.obj
 0001:0002330c       __islower_l                1002430c f i LIBCMT:_ctype.obj
 0001:0002335e       __isprint_l                1002435e f i LIBCMT:_ctype.obj
 0001:000233b6       __ispunct_l                100243b6 f i LIBCMT:_ctype.obj
 0001:00023408       __isspace_l                10024408 f i LIBCMT:_ctype.obj
 0001:0002345a       __isupper_l                1002445a f i LIBCMT:_ctype.obj
 0001:000234ac       __isxdigit_l               100244ac f i LIBCMT:_ctype.obj
 0001:00023504       _isalnum                   10024504 f i LIBCMT:_ctype.obj
 0001:00023531       _isalpha                   10024531 f i LIBCMT:_ctype.obj
 0001:0002355e       _isblank                   1002455e f i LIBCMT:_ctype.obj
 0001:00023593       _iscntrl                   10024593 f i LIBCMT:_ctype.obj
 0001:000235be       _isdigit                   100245be f i LIBCMT:_ctype.obj
 0001:000235e9       _isgraph                   100245e9 f i LIBCMT:_ctype.obj
 0001:00023616       _islower                   10024616 f i LIBCMT:_ctype.obj
 0001:00023641       _isprint                   10024641 f i LIBCMT:_ctype.obj
 0001:0002366e       _ispunct                   1002466e f i LIBCMT:_ctype.obj
 0001:00023699       _isspace                   10024699 f i LIBCMT:_ctype.obj
 0001:000236c4       _isupper                   100246c4 f i LIBCMT:_ctype.obj
 0001:000236ef       _isxdigit                  100246ef f i LIBCMT:_ctype.obj
 0001:0002371c       __tolower                  1002471c f   LIBCMT:tolower.obj
 0001:00023727       __tolower_l                10024727 f   LIBCMT:tolower.obj
 0001:0002386a       _tolower                   1002486a f   LIBCMT:tolower.obj
 0001:00023896       _strcpy_s                  10024896 f   LIBCMT:strcpy_s.obj
 0001:000238f0       _strrchr                   100248f0 f   LIBCMT:strrchr.obj
 0001:00023a27       __fptostr                  10024a27 f   LIBCMT:_fptostr.obj
 0001:00023ad7       ___crt_atoflt_l            10024ad7 f   LIBCMT:atodbl.obj
 0001:00023b7b       __atodbl                   10024b7b f   LIBCMT:atodbl.obj
 0001:00023b90       __atodbl_l                 10024b90 f   LIBCMT:atodbl.obj
 0001:00023c1e       __atoflt                   10024c1e f   LIBCMT:atodbl.obj
 0001:00023c33       __atoflt_l                 10024c33 f   LIBCMT:atodbl.obj
 0001:00023c4b       __atoldbl                  10024c4b f   LIBCMT:atodbl.obj
 0001:00023c60       __atoldbl_l                10024c60 f   LIBCMT:atodbl.obj
 0001:00023cef       ___dtold                   10024cef f   LIBCMT:cfout.obj
 0001:00023db7       __fltout2                  10024db7 f   LIBCMT:cfout.obj
 0001:00023e50       __alldvrm                  10024e50 f   LIBCMT:lldvrm.obj
 0001:00023f30       __aullshr                  10024f30 f   LIBCMT:ullshr.obj
 0001:00023f4f       __get_output_format        10024f4f f   LIBCMT:outputformat.obj
 0001:00023f55       __set_output_format        10024f55 f   LIBCMT:outputformat.obj
 0001:00023f87       __controlfp_s              10024f87 f   LIBCMT:contrlfp.obj
 0001:00023fe4       __fptrap                   10024fe4 f   LIBCMT:crt0fp.obj
 0001:00023fed       __msize                    10024fed f   LIBCMT:msize.obj
 0001:0002401e       __recalloc                 1002501e f   LIBCMT:recalloc.obj
 0001:00024087       _strncpy_s                 10025087 f   LIBCMT:strncpy_s.obj
 0001:0002420f       __MallocaIsSizeInRange     1002520f f i LIBCMT:a_loc.obj
 0001:00024220       __MarkAllocaS              10025220 f i LIBCMT:a_loc.obj
 0001:00024234       ___crtGetLocaleInfoA       10025234 f   LIBCMT:a_loc.obj
 0001:0002426e       __freea                    1002526e f i LIBCMT:a_loc.obj
 0001:0002428c       _GetTableIndexFromLcid     1002528c f   LIBCMT:winapinls.obj
 0001:000242c1       _GetTableIndexFromLocaleName 100252c1 f   LIBCMT:winapinls.obj
 0001:0002430f       ___crtCompareStringEx      1002530f f   LIBCMT:winapinls.obj
 0001:0002435b       ___crtDownlevelLCIDToLocaleName 1002535b f   LIBCMT:winapinls.obj
 0001:000243d7       ___crtDownlevelLocaleNameToLCID 100253d7 f   LIBCMT:winapinls.obj
 0001:00024415       ___crtEnumSystemLocalesEx  10025415 f   LIBCMT:winapinls.obj
 0001:00024452       ___crtGetDateFormatEx      10025452 f   LIBCMT:winapinls.obj
 0001:0002449b       ___crtGetLocaleInfoEx      1002549b f   LIBCMT:winapinls.obj
 0001:000244ca       ___crtGetTimeFormatEx      100254ca f   LIBCMT:winapinls.obj
 0001:000244ff       ___crtGetUserDefaultLocaleName 100254ff f   LIBCMT:winapinls.obj
 0001:0002452a       ___crtIsValidLocaleName    1002552a f   LIBCMT:winapinls.obj
 0001:00024555       ___crtLCMapStringEx        10025555 f   LIBCMT:winapinls.obj
 0001:000245a1       ___wcsnicmp_ascii          100255a1 f   LIBCMT:winapinls.obj
 0001:00024833       ___crtLCMapStringA         10025833 f   LIBCMT:a_map.obj
 0001:00024971       ___crtGetStringTypeA       10025971 f   LIBCMT:a_str.obj
 0001:000249b1       __commit                   100259b1 f   LIBCMT:commit.obj
 0001:00024a9a       ___lock_fhandle            10025a9a f   LIBCMT:osfinfo.obj
 0001:00024b28       __alloc_osfhnd             10025b28 f   LIBCMT:osfinfo.obj
 0001:00024cd1       __free_osfhnd              10025cd1 f   LIBCMT:osfinfo.obj
 0001:00024d57       __get_osfhandle            10025d57 f   LIBCMT:osfinfo.obj
 0001:00024dbe       __open_osfhandle           10025dbe f   LIBCMT:osfinfo.obj
 0001:00024ed4       __set_osfhnd               10025ed4 f   LIBCMT:osfinfo.obj
 0001:00024f56       __unlock_fhandle           10025f56 f   LIBCMT:osfinfo.obj
 0001:00024f7c       __open                     10025f7c f   LIBCMT:open.obj
 0001:0002502c       __sopen                    1002602c f   LIBCMT:open.obj
 0001:0002505f       __sopen_helper             1002605f f   LIBCMT:open.obj
 0001:00025128       __sopen_nolock             10026128 f   LIBCMT:open.obj
 0001:00025176       __sopen_s                  10026176 f   LIBCMT:open.obj
 0001:00025194       __mbsnbcmp                 10026194 f   LIBCMT:mbsnbcmp.obj
 0001:000251ac       __mbsnbcmp_l               100261ac f   LIBCMT:mbsnbcmp.obj
 0001:000252c3       __mbsnbicmp                100262c3 f   LIBCMT:mbsnbicm.obj
 0001:000252db       __mbsnbicmp_l              100262db f   LIBCMT:mbsnbicm.obj
 0001:000254a0       __global_unwind2           100264a0 f   LIBCMT:exsup.obj
 0001:00025505       __local_unwind2            10026505 f   LIBCMT:exsup.obj
 0001:00025589       __abnormal_termination     10026589 f   LIBCMT:exsup.obj
 0001:000255ac       __NLG_Notify1              100265ac f   LIBCMT:exsup.obj
 0001:000255b5       __NLG_Notify               100265b5 f   LIBCMT:exsup.obj
 0001:000255cc       __NLG_Dispatch             100265cc     LIBCMT:exsup.obj
 0001:000255cc       __NLG_Dispatch2            100265cc     LIBCMT:exsup.obj
 0001:000255d4       __NLG_Call                 100265d4 f   LIBCMT:exsup.obj
 0001:000255d6       __NLG_Return2              100265d6     LIBCMT:exsup.obj
 0001:000255d7       __getbuf                   100265d7 f   LIBCMT:_getbuf.obj
 0001:0002561d       __lseeki64                 1002661d f   LIBCMT:lseeki64.obj
 0001:00025719       __lseeki64_nolock          10026719 f   LIBCMT:lseeki64.obj
 0001:0002578c       __mbtowc_l                 1002678c f   LIBCMT:mbtowc.obj
 0001:00025881       _mbtowc                    10026881 f   LIBCMT:mbtowc.obj
 0001:00025899       __putwch                   10026899 f   LIBCMT:putwch.obj
 0001:000258e5       __putwch_nolock            100268e5 f   LIBCMT:putwch.obj
 0001:00025930       __chkstk                   10026930 f   LIBCMT:chkstk.obj
 0001:00025930       __alloca_probe             10026930 f   LIBCMT:chkstk.obj
 0001:0002595b       __vfwprintf_l              1002695b f   LIBCMT:vfwprint.obj
 0001:00025979       __vfwprintf_p              10026979 f   LIBCMT:vfwprint.obj
 0001:00025996       __vfwprintf_p_l            10026996 f   LIBCMT:vfwprint.obj
 0001:000259b4       __vfwprintf_s_l            100269b4 f   LIBCMT:vfwprint.obj
 0001:000259d2       _vfwprintf                 100269d2 f   LIBCMT:vfwprint.obj
 0001:000259ef       _vfwprintf_helper          100269ef f   LIBCMT:vfwprint.obj
 0001:00025a82       _vfwprintf_s               10026a82 f   LIBCMT:vfwprint.obj
 0001:00025a9f       __woutput_l                10026a9f f   LIBCMT:woutput.obj
 0001:0002677e       __woutput_s_l              1002777e f   LIBCMT:woutputs.obj
 0001:00027495       __validate_param_reuseW    10028495 f   LIBCMT:woutputp.obj
 0001:0002760d       __woutput_p_l              1002860d f   LIBCMT:woutputp.obj
 0001:00028a36       __ismbbalnum               10029a36 f   LIBCMT:ismbbyte.obj
 0001:00028a4f       __ismbbalnum_l             10029a4f f   LIBCMT:ismbbyte.obj
 0001:00028a69       __ismbbalpha               10029a69 f   LIBCMT:ismbbyte.obj
 0001:00028a82       __ismbbalpha_l             10029a82 f   LIBCMT:ismbbyte.obj
 0001:00028a9c       __ismbbblank               10029a9c f   LIBCMT:ismbbyte.obj
 0001:00028abd       __ismbbblank_l             10029abd f   LIBCMT:ismbbyte.obj
 0001:00028adf       __ismbbgraph               10029adf f   LIBCMT:ismbbyte.obj
 0001:00028af8       __ismbbgraph_l             10029af8 f   LIBCMT:ismbbyte.obj
 0001:00028b12       __ismbbkalnum              10029b12 f   LIBCMT:ismbbyte.obj
 0001:00028b28       __ismbbkalnum_l            10029b28 f   LIBCMT:ismbbyte.obj
 0001:00028b3f       __ismbbkana                10029b3f f   LIBCMT:ismbbyte.obj
 0001:00028b50       __ismbbkana_l              10029b50 f   LIBCMT:ismbbyte.obj
 0001:00028b9c       __ismbbkprint              10029b9c f   LIBCMT:ismbbyte.obj
 0001:00028bb2       __ismbbkprint_l            10029bb2 f   LIBCMT:ismbbyte.obj
 0001:00028bc9       __ismbbkpunct              10029bc9 f   LIBCMT:ismbbyte.obj
 0001:00028bdf       __ismbbkpunct_l            10029bdf f   LIBCMT:ismbbyte.obj
 0001:00028bf6       __ismbblead                10029bf6 f   LIBCMT:ismbbyte.obj
 0001:00028c0c       __ismbblead_l              10029c0c f   LIBCMT:ismbbyte.obj
 0001:00028c23       __ismbbprint               10029c23 f   LIBCMT:ismbbyte.obj
 0001:00028c3c       __ismbbprint_l             10029c3c f   LIBCMT:ismbbyte.obj
 0001:00028c56       __ismbbpunct               10029c56 f   LIBCMT:ismbbyte.obj
 0001:00028c6c       __ismbbpunct_l             10029c6c f   LIBCMT:ismbbyte.obj
 0001:00028c83       __ismbbtrail               10029c83 f   LIBCMT:ismbbyte.obj
 0001:00028c99       __ismbbtrail_l             10029c99 f   LIBCMT:ismbbyte.obj
 0001:00028ed6       __strtol_l                 10029ed6 f   LIBCMT:strtol.obj
 0001:00028ef1       __strtoul_l                10029ef1 f   LIBCMT:strtol.obj
 0001:00028f0c       _strtol                    10029f0c f   LIBCMT:strtol.obj
 0001:00028f36       _strtoul                   10029f36 f   LIBCMT:strtol.obj
 0001:00028f60       ___free_lconv_mon          10029f60 f   LIBCMT:initmon.obj
 0001:0002905c       ___init_monetary           1002a05c f   LIBCMT:initmon.obj
 0001:00029435       ___free_lconv_num          1002a435 f   LIBCMT:initnum.obj
 0001:0002949c       ___init_numeric            1002a49c f   LIBCMT:initnum.obj
 0001:000296da       ___free_lc_time            1002a6da f   LIBCMT:inittime.obj
 0001:00029a5a       ___init_time               1002aa5a f   LIBCMT:inittime.obj
 0001:0002a2c9       _localeconv                1002b2c9 f   LIBCMT:lconv.obj
 0001:0002a2ef       __iswctype_l               1002b2ef f   LIBCMT:iswctype.obj
 0001:0002a301       _is_wctype                 1002b301 f   LIBCMT:iswctype.obj
 0001:0002a30a       _iswctype                  1002b30a f   LIBCMT:iswctype.obj
 0001:0002a360       ____lc_codepage_func       1002b360 f   LIBCMT:initctyp.obj
 0001:0002a386       ____lc_collate_cp_func     1002b386 f   LIBCMT:initctyp.obj
 0001:0002a3ac       ____lc_locale_name_func    1002b3ac f   LIBCMT:initctyp.obj
 0001:0002a3d4       ____mb_cur_max_func        1002b3d4 f   LIBCMT:initctyp.obj
 0001:0002a3fa       ____mb_cur_max_l_func      1002b3fa f   LIBCMT:initctyp.obj
 0001:0002a411       ___init_ctype              1002b411 f   LIBCMT:initctyp.obj
 0001:0002a7a9       ___pctype_func             1002b7a9 f   LIBCMT:ctype.obj
 0001:0002a7d2       ___pwctype_func            1002b7d2 f   LIBCMT:ctype.obj
 0001:0002a7d8       __isctype                  1002b7d8 f   LIBCMT:isctype.obj
 0001:0002a807       __isctype_l                1002b807 f   LIBCMT:isctype.obj
 0001:0002a8b8       ___init_dummy              1002b8b8 f   LIBCMT:wsetloca.obj
 0001:0002a8bb       __locterm                  1002b8bb f   LIBCMT:wsetloca.obj
 0001:0002a90d       ____setlc_active_func      1002b90d f   LIBCMT:wsetloca.obj
 0001:0002a913       ____unguarded_readlc_active_add_func 1002b913 f   LIBCMT:wsetloca.obj
 0001:0002a919       ___copy_locale_name        1002b919 f   LIBCMT:wsetloca.obj
 0001:0002a97d       ___create_locale           1002b97d f   LIBCMT:wsetloca.obj
 0001:0002a986       ___free_locale             1002b986 f   LIBCMT:wsetloca.obj
 0001:0002a98b       ___get_current_locale      1002b98b f   LIBCMT:wsetloca.obj
 0001:0002a990       ___lc_lctowcs              1002b990 f   LIBCMT:wsetloca.obj
 0001:0002a9fe       ___lc_wcstolc              1002b9fe f   LIBCMT:wsetloca.obj
 0001:0002ab2a       __configthreadlocale       1002bb2a f   LIBCMT:wsetloca.obj
 0001:0002abb0       __create_locale            1002bbb0 f   LIBCMT:wsetloca.obj
 0001:0002ac12       __expandlocale             1002bc12 f   LIBCMT:wsetloca.obj
 0001:0002af09       __free_locale              1002bf09 f   LIBCMT:wsetloca.obj
 0001:0002afc0       __get_current_locale       1002bfc0 f   LIBCMT:wsetloca.obj
 0001:0002b06f       __wcreate_locale           1002c06f f   LIBCMT:wsetloca.obj
 0001:0002b146       __wcscats                  1002c146 f   LIBCMT:wsetloca.obj
 0001:0002b185       __wsetlocale               1002c185 f   LIBCMT:wsetloca.obj
 0001:0002bac7       __CopyMan                  1002cac7 f i LIBCMT:intrncvt.obj
 0001:0002bae4       __FillZeroMan              1002cae4 f i LIBCMT:intrncvt.obj
 0001:0002baf3       __IncMan                   1002caf3 f i LIBCMT:intrncvt.obj
 0001:0002bb55       __IsZeroMan                1002cb55 f i LIBCMT:intrncvt.obj
 0001:0002bb72       __RoundMan                 1002cb72 f i LIBCMT:intrncvt.obj
 0001:0002bc73       __ShrMan                   1002cc73 f i LIBCMT:intrncvt.obj
 0001:0002bd01       __ZeroTail                 1002cd01 f i LIBCMT:intrncvt.obj
 0001:0002bd49       ___addl                    1002cd49 f i LIBCMT:intrncvt.obj
 0001:0002bd6d       __ld12cvt                  1002cd6d f i LIBCMT:intrncvt.obj
 0001:0002c2d8       __ld12tod                  1002d2d8 f   LIBCMT:intrncvt.obj
 0001:0002c84a       __ld12tof                  1002d84a f   LIBCMT:intrncvt.obj
 0001:0002cdbc       __ld12told                 1002ddbc f   LIBCMT:intrncvt.obj
 0001:0002ce8b       ___STRINGTOLD_L            1002de8b f   LIBCMT:strgtold.obj
 0001:0002cee6       ___ld12mul                 1002dee6 f i LIBCMT:strgtold.obj
 0001:0002d1b2       ___multtenpow12            1002e1b2 f i LIBCMT:strgtold.obj
 0001:0002d505       ___shl_12                  1002e505 f i LIBCMT:strgtold.obj
 0001:0002d536       ___shr_12                  1002e536 f i LIBCMT:strgtold.obj
 0001:0002d566       ___strgtold12_l            1002e566 f   LIBCMT:strgtold.obj
 0001:0002dd0e       _$I10_OUTPUT               1002ed0e f   LIBCMT:x10fout.obj
 0001:0002e6e2       ___add_12                  1002f6e2 f i LIBCMT:x10fout.obj
 0001:0002e88e       ___control87_2             1002f88e f   LIBCMT:ieee87.obj
 0001:0002ef02       __clearfp                  1002ff02 f   LIBCMT:ieee87.obj
 0001:0002efe2       __control87                1002ffe2 f i LIBCMT:ieee87.obj
 0001:0002f2e4       __controlfp                100302e4 f   LIBCMT:ieee87.obj
 0001:0002f5ef       __fpreset                  100305ef f   LIBCMT:ieee87.obj
 0001:0002f6bc       __set_controlfp            100306bc f   LIBCMT:ieee87.obj
 0001:0002f72f       __statusfp                 1003072f f   LIBCMT:ieee87.obj
 0001:0002f7c9       __statusfp2                100307c9 f   LIBCMT:ieee87.obj
 0001:0002f830       __alloca_probe_16          10030830 f   LIBCMT:alloca16.obj
 0001:0002f846       __alloca_probe_8           10030846     LIBCMT:alloca16.obj
 0001:0002f85c       _wcsnlen                   1003085c f   LIBCMT:wcslen_s.obj
 0001:0002f903       __wopen                    10030903 f   LIBCMT:wopen.obj
 0001:0002f9b3       __wsopen                   100309b3 f   LIBCMT:wopen.obj
 0001:0002f9e6       __wsopen_helper            100309e6 f   LIBCMT:wopen.obj
 0001:0002faaf       __wsopen_nolock            10030aaf f   LIBCMT:wopen.obj
 0001:00030202       __wsopen_s                 10031202 f   LIBCMT:wopen.obj
 0001:00030220       _strncmp                   10031220 f   LIBCMT:strncmp.obj
 0001:00030298       __strnicmp                 10031298 f   LIBCMT:strnicmp.obj
 0001:00030303       __strnicmp_l               10031303 f   LIBCMT:strnicmp.obj
 0001:000303b4       ___termconout              100313b4 f   LIBCMT:initcon.obj
 0001:000303cb       ___initconout              100313cb f   LIBCMT:initcon.obj
 0001:000303ea       __fputwc_nolock            100313ea f   LIBCMT:fputwc.obj
 0001:00030570       _fputwc                    10031570 f   LIBCMT:fputwc.obj
 0001:000305e7       _putwc                     100315e7 f   LIBCMT:fputwc.obj
 0001:000307d1       __wcstol_l                 100317d1 f   LIBCMT:wcstol.obj
 0001:000307e9       __wcstoul_l                100317e9 f   LIBCMT:wcstol.obj
 0001:00030801       _wcstol                    10031801 f   LIBCMT:wcstol.obj
 0001:00030819       _wcstoul                   10031819 f   LIBCMT:wcstol.obj
 0001:00030831       ___init_collate            10031831 f   LIBCMT:initcoll.obj
 0001:00030951       _memcmp                    10031951 f   LIBCMT:memcmp.obj
 0001:00033865       _wcscmp                    10034865 f   LIBCMT:wcscmp.obj
 0001:000338a3       _wcscspn                   100348a3 f   LIBCMT:wcscspn.obj
 0001:000338ee       _wcsncmp                   100348ee f   LIBCMT:wcsncmp.obj
 0001:00033924       _wcspbrk                   10034924 f   LIBCMT:wcspbrk.obj
 0001:00033f28       ___get_qualified_locale    10034f28 f   LIBCMT:getqloc.obj
 0001:00034798       ___get_qualified_locale_downlevel 10035798 f   LIBCMT:getqloc_downlevel.obj
 0001:000349b4       ___mtold12                 100359b4 f   LIBCMT:mantold.obj
 0001:00034b94       __chsize                   10035b94 f   LIBCMT:chsize.obj
 0001:00034bae       __chsize_nolock            10035bae f   LIBCMT:chsize.obj
 0001:00034d64       __chsize_s                 10035d64 f   LIBCMT:chsize.obj
 0001:00034e52       __get_fmode                10035e52 f   LIBCMT:setmode.obj
 0001:00034e7c       __set_fmode                10035e7c f   LIBCMT:setmode.obj
 0001:00034eb7       __setmode                  10035eb7 f   LIBCMT:setmode.obj
 0001:00034fbc       __setmode_nolock           10035fbc f   LIBCMT:setmode.obj
 0001:00035090       ___ascii_strnicmp          10036090 f   LIBCMT:_strnicm.obj
 0001:000350f1       __flswbuf                  100360f1 f   LIBCMT:_flswbuf.obj
 0001:00035253       __wchartodigit             10036253 f   LIBCMT:wchtodig.obj
 0001:000353f2       __wtoi                     100363f2 f   LIBCMT:wtox.obj
 0001:000353fb       __wtoi64                   100363fb f   LIBCMT:wtox.obj
 0001:0003540f       __wtoi64_l                 1003640f f   LIBCMT:wtox.obj
 0001:00035426       __wtoi_l                   10036426 f   LIBCMT:wtox.obj
 0001:0003542f       __wtol                     1003642f f   LIBCMT:wtox.obj
 0001:00035443       __wtol_l                   10036443 f   LIBCMT:wtox.obj
 0001:0003545a       __wtoll                    1003645a f   LIBCMT:wtox.obj
 0001:0003546e       __wtoll_l                  1003646e f   LIBCMT:wtox.obj
 0001:00035485       _wcschr                    10036485 f   LIBCMT:wcschr.obj
 0001:00035533       __wcsicmp                  10036533 f   LIBCMT:wcsicmp.obj
 0001:000355c6       __wcsicmp_l                100365c6 f   LIBCMT:wcsicmp.obj
 0001:000356a1       __wcsnicmp                 100366a1 f   LIBCMT:wcsnicmp.obj
 0001:00035757       __wcsnicmp_l               10036757 f   LIBCMT:wcsnicmp.obj
 0001:00035b20       __wcstof_l                 10036b20 f   LIBCMT:wcstoq.obj
 0001:00035bd3       __wcstoi64                 10036bd3 f   LIBCMT:wcstoq.obj
 0001:00035bfd       __wcstoi64_l               10036bfd f   LIBCMT:wcstoq.obj
 0001:00035c18       __wcstoimax_l              10036c18 f   LIBCMT:wcstoq.obj
 0001:00035c21       __wcstold_l                10036c21 f   LIBCMT:wcstoq.obj
 0001:00035c2a       __wcstoll_l                10036c2a f   LIBCMT:wcstoq.obj
 0001:00035c33       __wcstoui64                10036c33 f   LIBCMT:wcstoq.obj
 0001:00035c5d       __wcstoui64_l              10036c5d f   LIBCMT:wcstoq.obj
 0001:00035c78       __wcstoull_l               10036c78 f   LIBCMT:wcstoq.obj
 0001:00035c81       __wcstoumax_l              10036c81 f   LIBCMT:wcstoq.obj
 0001:00035c8a       _wcstof                    10036c8a f   LIBCMT:wcstoq.obj
 0001:00035c9f       _wcstoimax                 10036c9f f   LIBCMT:wcstoq.obj
 0001:00035ca8       _wcstold                   10036ca8 f   LIBCMT:wcstoq.obj
 0001:00035cb1       _wcstoll                   10036cb1 f   LIBCMT:wcstoq.obj
 0001:00035cba       _wcstoull                  10036cba f   LIBCMT:wcstoq.obj
 0001:00035cc3       _wcstoumax                 10036cc3 f   LIBCMT:wcstoq.obj
 0001:00035ccc       __towlower_l               10036ccc f   LIBCMT:towlower.obj
 0001:00035d7d       _towlower                  10036d7d f   LIBCMT:towlower.obj
 0001:00035d8e       __wcstod_l                 10036d8e f   LIBCMT:wcstod.obj
 0001:00035e89       _wcstod                    10036e89 f   LIBCMT:wcstod.obj
 0001:00035ea0       __allmul                   10036ea0 f   LIBCMT:llmul.obj
 0001:00035ed4       ___crtLCMapStringW         10036ed4 f   LIBCMT:w_map.obj
 0001:00035f03       __wfltin2                  10036f03 f   LIBCMT:wcfin.obj
 0001:00035fb0       ___WSTRINGTOLD_L           10036fb0 f   LIBCMT:wstrgtold.obj
 0001:0003600b       ___wstrgtold12_l           1003700b f   LIBCMT:wstrgtold.obj
 0001:0003685c       _GetModuleHandleA@4        1003785c f   kernel32:KERNEL32.dll
 0001:00036862       _GetProcAddress@8          10037862 f   kernel32:KERNEL32.dll
 0001:00036868       _HeapAlloc@12              10037868 f   kernel32:KERNEL32.dll
 0001:0003686e       _IsDebuggerPresent@0       1003786e f   kernel32:KERNEL32.dll
 0001:00036874       _IsProcessorFeaturePresent@4 10037874 f   kernel32:KERNEL32.dll
 0001:0003687a       _EncodePointer@4           1003787a f   kernel32:KERNEL32.dll
 0001:00036880       _DecodePointer@4           10037880 f   kernel32:KERNEL32.dll
 0001:00036886       _GetLastError@0            10037886 f   kernel32:KERNEL32.dll
 0001:0003688c       _ExitProcess@4             1003788c f   kernel32:KERNEL32.dll
 0001:00036892       _GetModuleHandleExW@12     10037892 f   kernel32:KERNEL32.dll
 0001:00036898       _AreFileApisANSI@0         10037898 f   kernel32:KERNEL32.dll
 0001:0003689e       _MultiByteToWideChar@24    1003789e f   kernel32:KERNEL32.dll
 0001:000368a4       _WideCharToMultiByte@32    100378a4 f   kernel32:KERNEL32.dll
 0001:000368aa       _HeapFree@12               100378aa f   kernel32:KERNEL32.dll
 0001:000368b0       _HeapReAlloc@16            100378b0 f   kernel32:KERNEL32.dll
 0001:000368b6       _EnterCriticalSection@4    100378b6 f   kernel32:KERNEL32.dll
 0001:000368bc       _LeaveCriticalSection@4    100378bc f   kernel32:KERNEL32.dll
 0001:000368c2       _GetStdHandle@4            100378c2 f   kernel32:KERNEL32.dll
 0001:000368c8       _GetFileType@4             100378c8 f   kernel32:KERNEL32.dll
 0001:000368ce       _GetModuleFileNameW@12     100378ce f   kernel32:KERNEL32.dll
 0001:000368d4       _WriteConsoleW@20          100378d4 f   kernel32:KERNEL32.dll
 0001:000368da       _GetCommandLineA@0         100378da f   kernel32:KERNEL32.dll
 0001:000368e0       _GetCurrentThreadId@0      100378e0 f   kernel32:KERNEL32.dll
 0001:000368e6       _WriteFile@20              100378e6 f   kernel32:KERNEL32.dll
 0001:000368ec       _GetProcessHeap@0          100378ec f   kernel32:KERNEL32.dll
 0001:000368f2       _UnhandledExceptionFilter@4 100378f2 f   kernel32:KERNEL32.dll
 0001:000368f8       _SetUnhandledExceptionFilter@4 100378f8 f   kernel32:KERNEL32.dll
 0001:000368fe       _SetLastError@4            100378fe f   kernel32:KERNEL32.dll
 0001:00036904       _InitializeCriticalSectionAndSpinCount@8 10037904 f   kernel32:KERNEL32.dll
 0001:0003690a       _CreateEventW@16           1003790a f   kernel32:KERNEL32.dll
 0001:00036910       _Sleep@4                   10037910 f   kernel32:KERNEL32.dll
 0001:00036916       _GetCurrentProcess@0       10037916 f   kernel32:KERNEL32.dll
 0001:0003691c       _TerminateProcess@8        1003791c f   kernel32:KERNEL32.dll
 0001:00036922       _TlsAlloc@0                10037922 f   kernel32:KERNEL32.dll
 0001:00036928       _TlsGetValue@4             10037928 f   kernel32:KERNEL32.dll
 0001:0003692e       _TlsSetValue@8             1003792e f   kernel32:KERNEL32.dll
 0001:00036934       _TlsFree@4                 10037934 f   kernel32:KERNEL32.dll
 0001:0003693a       _GetStartupInfoW@4         1003793a f   kernel32:KERNEL32.dll
 0001:00036940       _GetTickCount@0            10037940 f   kernel32:KERNEL32.dll
 0001:00036946       _GetModuleHandleW@4        10037946 f   kernel32:KERNEL32.dll
 0001:0003694c       _CreateSemaphoreW@16       1003794c f   kernel32:KERNEL32.dll
 0001:00036952       _DeleteCriticalSection@4   10037952 f   kernel32:KERNEL32.dll
 0001:00036958       _FatalAppExitA@8           10037958 f   kernel32:KERNEL32.dll
 0001:0003695e       _SetConsoleCtrlHandler@8   1003795e f   kernel32:KERNEL32.dll
 0001:00036964       _FreeLibrary@4             10037964 f   kernel32:KERNEL32.dll
 0001:0003696a       _LoadLibraryExW@12         1003796a f   kernel32:KERNEL32.dll
 0001:00036970       _IsValidCodePage@4         10037970 f   kernel32:KERNEL32.dll
 0001:00036976       _GetACP@0                  10037976 f   kernel32:KERNEL32.dll
 0001:0003697c       _GetOEMCP@0                1003797c f   kernel32:KERNEL32.dll
 0001:00036982       _GetCPInfo@8               10037982 f   kernel32:KERNEL32.dll
 0001:00036988       _CloseHandle@4             10037988 f   kernel32:KERNEL32.dll
 0001:0003698e       _RtlUnwind@16              1003798e f   kernel32:KERNEL32.dll
 0001:00036994       _ReadFile@20               10037994 f   kernel32:KERNEL32.dll
 0001:0003699a       _GetConsoleMode@8          1003799a f   kernel32:KERNEL32.dll
 0001:000369a0       _ReadConsoleW@20           100379a0 f   kernel32:KERNEL32.dll
 0001:000369a6       _GetConsoleCP@0            100379a6 f   kernel32:KERNEL32.dll
 0001:000369ac       _DeleteFileW@4             100379ac f   kernel32:KERNEL32.dll
 0001:000369b2       _SetFilePointerEx@20       100379b2 f   kernel32:KERNEL32.dll
 0001:000369b8       _RaiseException@16         100379b8 f   kernel32:KERNEL32.dll
 0001:000369be       _OutputDebugStringW@4      100379be f   kernel32:KERNEL32.dll
 0001:000369c4       _GetCurrentThread@0        100379c4 f   kernel32:KERNEL32.dll
 0001:000369ca       _GetModuleFileNameA@12     100379ca f   kernel32:KERNEL32.dll
 0001:000369d0       _QueryPerformanceCounter@4 100379d0 f   kernel32:KERNEL32.dll
 0001:000369d6       _GetCurrentProcessId@0     100379d6 f   kernel32:KERNEL32.dll
 0001:000369dc       _GetSystemTimeAsFileTime@4 100379dc f   kernel32:KERNEL32.dll
 0001:000369e2       _GetEnvironmentStringsW@0  100379e2 f   kernel32:KERNEL32.dll
 0001:000369e8       _FreeEnvironmentStringsW@4 100379e8 f   kernel32:KERNEL32.dll
 0001:000369ee       _HeapSize@12               100379ee f   kernel32:KERNEL32.dll
 0001:000369f4       _GetDateFormatW@24         100379f4 f   kernel32:KERNEL32.dll
 0001:000369fa       _GetTimeFormatW@24         100379fa f   kernel32:KERNEL32.dll
 0001:00036a00       _CompareStringW@24         10037a00 f   kernel32:KERNEL32.dll
 0001:00036a06       _LCMapStringW@24           10037a06 f   kernel32:KERNEL32.dll
 0001:00036a0c       _GetLocaleInfoW@16         10037a0c f   kernel32:KERNEL32.dll
 0001:00036a12       _IsValidLocale@8           10037a12 f   kernel32:KERNEL32.dll
 0001:00036a18       _GetUserDefaultLCID@0      10037a18 f   kernel32:KERNEL32.dll
 0001:00036a1e       _EnumSystemLocalesW@8      10037a1e f   kernel32:KERNEL32.dll
 0001:00036a24       _GetStringTypeW@16         10037a24 f   kernel32:KERNEL32.dll
 0001:00036a2a       _FlushFileBuffers@4        10037a2a f   kernel32:KERNEL32.dll
 0001:00036a30       _SetStdHandle@8            10037a30 f   kernel32:KERNEL32.dll
 0001:00036a36       _CreateFileW@28            10037a36 f   kernel32:KERNEL32.dll
 0001:00036a3c       _SetEndOfFile@4            10037a3c f   kernel32:KERNEL32.dll
 0002:00000000       ___xc_a                    10042000     LIBCMT:crt0init.obj
 0002:00000104       ___xc_z                    10042104     LIBCMT:crt0init.obj
 0002:00000208       ___xi_a                    10042208     LIBCMT:crt0init.obj
 0002:00000424       ___xi_z                    10042424     LIBCMT:crt0init.obj
 0002:00000528       ___xp_a                    10042528     LIBCMT:crt0init.obj
 0002:0000083c       ___xp_z                    1004283c     LIBCMT:crt0init.obj
 0002:00000940       ___xt_a                    10042940     LIBCMT:crt0init.obj
 0002:00000a44       ___xt_z                    10042a44     LIBCMT:crt0init.obj
 0002:00000b88       _FingerStrokeAssistance_M  10042b88     FingerStrokeAssistance.obj
 0002:00000b8c       ??_C@_0BI@PBFPDHLE@Error?5creating?5scope?54?6?$AA@ 10042b8c     FingerStrokeAssistance.obj
 0002:00000ba8       ??_C@_0O@LGBPGFOL@signals?1Gain3?$AA@ 10042ba8     FingerStrokeAssistance.obj
 0002:00000bb8       ??_C@_0DB@ENPBKHPM@Robot?1account?5for?5handedness1?1MA@ 10042bb8     FingerStrokeAssistance.obj
 0002:00000bf4       ??_C@_0O@CAPLFIJB@Robot?1Gain?1s2?$AA@ 10042bf4     FingerStrokeAssistance.obj
 0002:00000c04       ??_C@_0BG@JDAHNDCJ@MATLAB?5Function?1p7?1s2?$AA@ 10042c04     FingerStrokeAssistance.obj
 0002:00000c20       ??_C@_0N@NDALLKN@Robot?1Sum?1s2?$AA@ 10042c20     FingerStrokeAssistance.obj
 0002:00000c30       ??_C@_0O@DNKOCOOP@f_ref2?3?$CF15?46f?$AA@ 10042c30     FingerStrokeAssistance.obj
 0002:00000c40       ??_C@_0BA@BAONOGED@enc_raw2?3?$CF15?46f?$AA@ 10042c40     FingerStrokeAssistance.obj
 0002:00000c54       ??_C@_0BB@NKMEAAFC@enc_norm2?3?$CF15?46f?$AA@ 10042c54     FingerStrokeAssistance.obj
 0002:00000c68       ??_C@_0BB@GFJCGJHB@pos_ref_2?3?$CF15?46f?$AA@ 10042c68     FingerStrokeAssistance.obj
 0002:00000c7c       ??_C@_0BC@IDGACA@pos_meas_2?3?$CF15?46f?$AA@ 10042c7c     FingerStrokeAssistance.obj
 0002:00000c94       ??_C@_0BI@PEBACBDB@Error?5creating?5scope?53?6?$AA@ 10042c94     FingerStrokeAssistance.obj
 0002:00000cb0       ??_C@_0O@KPAEFEKK@signals?1Gain2?$AA@ 10042cb0     FingerStrokeAssistance.obj
 0002:00000cc0       ??_C@_0DB@GGNMPEDP@Robot?1account?5for?5handedness1?1MA@ 10042cc0     FingerStrokeAssistance.obj
 0002:00000cfc       ??_C@_0O@LNGALFC@Robot?1Gain?1s1?$AA@ 10042cfc     FingerStrokeAssistance.obj
 0002:00000d0c       ??_C@_0BG@LICKIAOK@MATLAB?5Function?1p7?1s1?$AA@ 10042d0c     FingerStrokeAssistance.obj
 0002:00000d28       ??_C@_0N@CGBNOIGO@Robot?1Sum?1s1?$AA@ 10042d28     FingerStrokeAssistance.obj
 0002:00000d38       ??_C@_0BA@MKGFJNCI@f_ref1?3?$CF15?46f?5N?$AA@ 10042d38     FingerStrokeAssistance.obj
 0002:00000d4c       ??_C@_0P@JDGPLDCK@enc_raw?3?$CF15?46f?$AA@ 10042d4c     FingerStrokeAssistance.obj
 0002:00000d60       ??_C@_0BA@ELCINL@enc_norm?3?$CF15?46f?$AA@ 10042d60     FingerStrokeAssistance.obj
 0002:00000d74       ??_C@_0BB@FMBPFFLE@pos_ref_1?3?$CF15?46f?$AA@ 10042d74     FingerStrokeAssistance.obj
 0002:00000d88       ??_C@_0BC@DJAOFMOF@pos_meas_1?3?$CF15?46f?$AA@ 10042d88     FingerStrokeAssistance.obj
 0002:00000da0       ??_C@_0BI@PHJEPFFP@Error?5creating?5scope?51?6?$AA@ 10042da0     FingerStrokeAssistance.obj
 0002:00000dbc       ??_C@_0BD@KDGDPNDI@MATLAB?5Function?1p1?$AA@ 10042dbc     FingerStrokeAssistance.obj
 0002:00000dd4       ??_C@_0BA@KHHDAHD@signals?1Gain?1s1?$AA@ 10042dd4     FingerStrokeAssistance.obj
 0002:00000de8       ??_C@_0BA@CBFKGDLA@signals?1Gain?1s2?$AA@ 10042de8     FingerStrokeAssistance.obj
 0002:00000dfc       ??_C@_0N@NEDGIMDD@state?3?$CF15?46f?$AA@ 10042dfc     FingerStrokeAssistance.obj
 0002:00000e0c       ??_C@_0BH@DNEEKCDA@f_ref_limited_1?3?$CF15?46f?$AA@ 10042e0c     FingerStrokeAssistance.obj
 0002:00000e28       ??_C@_0BH@EMJJOPF@f_ref_limited_2?3?$CF15?46f?$AA@ 10042e28     FingerStrokeAssistance.obj
 0002:00000e44       ??_C@_0BI@PFNCELAG@Error?5creating?5scope?52?6?$AA@ 10042e44     FingerStrokeAssistance.obj
 0002:00000e60       ??_C@_0BB@CCEOJAFD@signals?1Gain1?1s1?$AA@ 10042e60     FingerStrokeAssistance.obj
 0002:00000e74       ??_C@_0BB@JGDMDJA@signals?1Gain1?1s2?$AA@ 10042e74     FingerStrokeAssistance.obj
 0002:00000e88       ??_C@_0CH@PENCCFNF@HL?5Controller?1Discrete?9Time?5Inte@ 10042e88     FingerStrokeAssistance.obj
 0002:00000eb8       ??_C@_0BK@CIALIDMG@Robot?1Discrete?5Filter1?1s1?$AA@ 10042eb8     FingerStrokeAssistance.obj
 0002:00000ed8       ??_C@_0BK@DCGNAAF@Robot?1Discrete?5Filter1?1s2?$AA@ 10042ed8     FingerStrokeAssistance.obj
 0002:00000ef8       ??_C@_0BD@LBKJDOHN@f_ref_pid_1?3?$CF15?46f?$AA@ 10042ef8     FingerStrokeAssistance.obj
 0002:00000f10       ??_C@_0BD@IICEACLI@f_ref_pid_2?3?$CF15?46f?$AA@ 10042f10     FingerStrokeAssistance.obj
 0002:00000f28       ??_C@_0BB@FNFHGNEI@pos_ref_g?3?$CF15?46f?$AA@ 10042f28     FingerStrokeAssistance.obj
 0002:00000f3c       ??_C@_0BC@GNJDGGJN@vel_meas_1?3?$CF15?46f?$AA@ 10042f3c     FingerStrokeAssistance.obj
 0002:00000f54       ??_C@_0BC@FEBOFKFI@vel_meas_2?3?$CF15?46f?$AA@ 10042f54     FingerStrokeAssistance.obj
 0002:00000f6c       ??_C@_0BC@OJJPBDHH@FixedStepDiscrete?$AA@ 10042f6c     FingerStrokeAssistance.obj
 0002:00000f84       ??_C@_04EPKDLPPB@tout?$AA@ 10042f84     FingerStrokeAssistance.obj
 0002:00000f8a       ??_C@_00CNPNBAHC@?$AA@     10042f8a     FingerStrokeAssistance.obj
 0002:00000f8c       ??_C@_03HBFGMJOD@rt_?$AA@  10042f8c     FingerStrokeAssistance.obj
 0002:00000f90       ??_C@_0O@IFKELIIB@PCI?56221?5ENC?5?$AA@ 10042f90     FingerStrokeAssistance.obj
 0002:00000fa0       ??_C@_0CL@FGFCPCFH@FingerStrokeAssistance?1Robot?1PCI@ 10042fa0     FingerStrokeAssistance.obj
 0002:00000fd4       ??_C@_0P@FMGHBALM@PCI?56221?5ENC?51?$AA@ 10042fd4     FingerStrokeAssistance.obj
 0002:00000fe8       ??_C@_0CM@DDAEJBBH@FingerStrokeAssistance?1Robot?1PCI@ 10042fe8     FingerStrokeAssistance.obj
 0002:0000101c       ??_C@_0M@HBIEHIJL@PCI?96221?5DA?$AA@ 1004301c     FingerStrokeAssistance.obj
 0002:0000102c       ??_C@_0CJ@KACMKMOO@FingerStrokeAssistance?1Robot?1PCI@ 1004302c     FingerStrokeAssistance.obj
 0002:00001060       ??_C@_0N@JAOEPLNP@PCI?96221?5AD1?$AA@ 10043060     FingerStrokeAssistance.obj
 0002:00001070       ??_C@_0CK@LAFKNGLI@FingerStrokeAssistance?1Robot?1PCI@ 10043070     FingerStrokeAssistance.obj
 0002:000010a8       __real@0000000000000000    100430a8     FingerStrokeAssistance.obj
 0002:000010b8       __real@3f50624dd2f1a9fc    100430b8     FingerStrokeAssistance.obj
 0002:000010c8       __real@3f9eb851eb851eb8    100430c8     FingerStrokeAssistance.obj
 0002:000010d8       __real@3fb999999999999a    100430d8     FingerStrokeAssistance.obj
 0002:000010e8       __real@3fe0000000000000    100430e8     FingerStrokeAssistance.obj
 0002:000010f8       __real@3feccccccccccccd    100430f8     FingerStrokeAssistance.obj
 0002:00001108       __real@3ff0000000000000    10043108     FingerStrokeAssistance.obj
 0002:00001118       __real@4000000000000000    10043118     FingerStrokeAssistance.obj
 0002:00001128       __real@4004000000000000    10043128     FingerStrokeAssistance.obj
 0002:00001138       __real@4008000000000000    10043138     FingerStrokeAssistance.obj
 0002:00001148       __real@4010000000000000    10043148     FingerStrokeAssistance.obj
 0002:00001158       __real@4014000000000000    10043158     FingerStrokeAssistance.obj
 0002:00001168       __real@4018000000000000    10043168     FingerStrokeAssistance.obj
 0002:00001178       __real@4024000000000000    10043178     FingerStrokeAssistance.obj
 0002:00001188       __real@402e000000000000    10043188     FingerStrokeAssistance.obj
 0002:00001198       __real@41f0000000000000    10043198     FingerStrokeAssistance.obj
 0002:000011a8       __real@4330000000000000    100431a8     FingerStrokeAssistance.obj
 0002:000011b8       __real@8000000000000000    100431b8     FingerStrokeAssistance.obj
 0002:000011c8       __real@bfe0000000000000    100431c8     FingerStrokeAssistance.obj
 0002:000011d8       __real@bff0000000000000    100431d8     FingerStrokeAssistance.obj
 0002:000011e8       __real@c004000000000000    100431e8     FingerStrokeAssistance.obj
 0002:00001200       __xmm@00000000000000003f50624dd2f1a9fc 10043200     FingerStrokeAssistance.obj
 0002:00001220       __xmm@00000000000000003ff0000000000000 10043220     FingerStrokeAssistance.obj
 0002:00001240       __xmm@000000fd000000820000008400000001 10043240     FingerStrokeAssistance.obj
 0002:00001260       __xmm@3ff00000000000003feccccccccccccd 10043260     FingerStrokeAssistance.obj
 0002:00001280       __xmm@41f00000000000000000000000000000 10043280     FingerStrokeAssistance.obj
 0002:000012a0       __xmm@7fffffffffffffff7fffffffffffffff 100432a0     FingerStrokeAssistance.obj
 0002:000031bc       ??_C@_0BD@IIEOKOPL@MATLAB?5Function?1p2?$AA@ 100451bc     FingerStrokeAssistance_capi.obj
 0002:000031d4       ??_C@_0BD@JBFFJPLK@MATLAB?5Function?1p3?$AA@ 100451d4     FingerStrokeAssistance_capi.obj
 0002:000031ec       ??_C@_0BD@NOBEAJHN@MATLAB?5Function?1p4?$AA@ 100451ec     FingerStrokeAssistance_capi.obj
 0002:00003204       ??_C@_0BD@MHAPDIDM@MATLAB?5Function?1p5?$AA@ 10045204     FingerStrokeAssistance_capi.obj
 0002:0000321c       ??_C@_0BD@OMCCGLPP@MATLAB?5Function?1p6?$AA@ 1004521c     FingerStrokeAssistance_capi.obj
 0002:00003234       ??_C@_0BD@PFDJFKLO@MATLAB?5Function?1p7?$AA@ 10045234     FingerStrokeAssistance_capi.obj
 0002:0000324c       ??_C@_0BD@HCKBEGHB@MATLAB?5Function?1p8?$AA@ 1004524c     FingerStrokeAssistance_capi.obj
 0002:00003264       ??_C@_0BD@GLLKHHDA@MATLAB?5Function?1p9?$AA@ 10045264     FingerStrokeAssistance_capi.obj
 0002:0000327c       ??_C@_0BF@GGMNNFDC@Data?5Type?5Conversion?$AA@ 1004527c     FingerStrokeAssistance_capi.obj
 0002:00003298       ??_C@_0BG@OOMJLOH@Data?5Type?5Conversion1?$AA@ 10045298     FingerStrokeAssistance_capi.obj
 0002:000032b4       ??_C@_0L@EGNLABOL@Unit?5Delay?$AA@ 100452b4     FingerStrokeAssistance_capi.obj
 0002:000032c4       ??_C@_0M@PBMDOHED@Unit?5Delay1?$AA@ 100452c4     FingerStrokeAssistance_capi.obj
 0002:000032d4       ??_C@_0M@NKOOLEIA@Unit?5Delay2?$AA@ 100452d4     FingerStrokeAssistance_capi.obj
 0002:000032e4       ??_C@_0M@MDPFIFMB@Unit?5Delay3?$AA@ 100452e4     FingerStrokeAssistance_capi.obj
 0002:000032f4       ??_C@_0CD@GLAMPGEM@HL?5Controller?1Data?5Type?5Conversi@ 100452f4     FingerStrokeAssistance_capi.obj
 0002:00003320       ??_C@_0BG@JLDBOJPN@HL?5Controller?1Damping?$AA@ 10045320     FingerStrokeAssistance_capi.obj
 0002:0000333c       ??_C@_0BE@OJENBPFA@HL?5Controller?1Gain1?$AA@ 1004533c     FingerStrokeAssistance_capi.obj
 0002:00003354       ??_C@_0BE@JOHLLJDM@HL?5Controller?1Delay?$AA@ 10045354     FingerStrokeAssistance_capi.obj
 0002:0000336c       ??_C@_0BF@OJKMAAIM@HL?5Controller?1Delay1?$AA@ 1004536c     FingerStrokeAssistance_capi.obj
 0002:00003388       ??_C@_0BP@PNFNPGMG@HL?5Controller?1Discrete?5Filter1?$AA@ 10045388     FingerStrokeAssistance_capi.obj
 0002:000033b0       ??_C@_0BJ@ELDEKLE@LL?5Force?5Controller?1Gain?$AA@ 100453b0     FingerStrokeAssistance_capi.obj
 0002:000033d0       ??_C@_0BL@CCMCIEEP@LL?5Position?5Controller?1Sum?$AA@ 100453d0     FingerStrokeAssistance_capi.obj
 0002:000033f0       ??_C@_0L@NEPEIPFM@Robot?1Gain?$AA@ 100453f0     FingerStrokeAssistance_capi.obj
 0002:00003400       ??_C@_0M@KEFEOOOC@Robot?1Gain1?$AA@ 10045400     FingerStrokeAssistance_capi.obj
 0002:00003410       ??_C@_0BE@OMELOOBD@Robot?1PCI?56221?5ENC?5?$AA@ 10045410     FingerStrokeAssistance_capi.obj
 0002:00003428       ??_C@_0BF@ECAPANIC@Robot?1PCI?56221?5ENC?51?$AA@ 10045428     FingerStrokeAssistance_capi.obj
 0002:00003444       ??_C@_0BG@HNHIMJLG@Robot?1PCI?96221?5AD1?1p1?$AA@ 10045444     FingerStrokeAssistance_capi.obj
 0002:00003460       ??_C@_0BG@FGFFJKHF@Robot?1PCI?96221?5AD1?1p2?$AA@ 10045460     FingerStrokeAssistance_capi.obj
 0002:0000347c       ??_C@_0BG@EPEOKLDE@Robot?1PCI?96221?5AD1?1p3?$AA@ 1004547c     FingerStrokeAssistance_capi.obj
 0002:00003498       ??_C@_0BG@PDNPD@Robot?1PCI?96221?5AD1?1p4?$AA@ 10045498     FingerStrokeAssistance_capi.obj
 0002:000034b4       ??_C@_0BG@BJBEAMLC@Robot?1PCI?96221?5AD1?1p5?$AA@ 100454b4     FingerStrokeAssistance_capi.obj
 0002:000034d0       ??_C@_0BG@DCDJFPHB@Robot?1PCI?96221?5AD1?1p6?$AA@ 100454d0     FingerStrokeAssistance_capi.obj
 0002:000034ec       ??_C@_0BG@CLCCGODA@Robot?1PCI?96221?5AD1?1p7?$AA@ 100454ec     FingerStrokeAssistance_capi.obj
 0002:00003508       ??_C@_0BG@KMLKHCPP@Robot?1PCI?96221?5AD1?1p8?$AA@ 10045508     FingerStrokeAssistance_capi.obj
 0002:00003524       ??_C@_09EFINPMFM@Robot?1Sum?$AA@ 10045524     FingerStrokeAssistance_capi.obj
 0002:00003530       ??_C@_0BH@LHMPPFDF@Robot?1Discrete?5Filter1?$AA@ 10045530     FingerStrokeAssistance_capi.obj
 0002:0000354c       ??_C@_0BB@ONCKFKHP@Robot?1Unit?5Delay?$AA@ 1004554c     FingerStrokeAssistance_capi.obj
 0002:00003560       ??_C@_0BP@HDIBGFHC@Subsystem?1Data?5Type?5Conversion?$AA@ 10045560     FingerStrokeAssistance_capi.obj
 0002:00003588       ??_C@_0CD@IGDCNCLO@Subsystem?1Discrete?9Time?5Integrat@ 10045588     FingerStrokeAssistance_capi.obj
 0002:000035b4       ??_C@_0BG@DAMAHEPC@Subsystem?1Unit?5Delay1?$AA@ 100455b4     FingerStrokeAssistance_capi.obj
 0002:000035d0       ??_C@_0BG@BLONCHDB@Subsystem?1Unit?5Delay2?$AA@ 100455d0     FingerStrokeAssistance_capi.obj
 0002:000035ec       ??_C@_0CA@EBCNJBOK@Subsystem1?1Data?5Type?5Conversion?$AA@ 100455ec     FingerStrokeAssistance_capi.obj
 0002:00003614       ??_C@_0CE@IGGOGCJM@Subsystem1?1Discrete?9Time?5Integra@ 10045614     FingerStrokeAssistance_capi.obj
 0002:00003640       ??_C@_0BH@OCBAAL@Subsystem1?1Unit?5Delay1?$AA@ 10045640     FingerStrokeAssistance_capi.obj
 0002:0000365c       ??_C@_0BH@CLMPEDMI@Subsystem1?1Unit?5Delay2?$AA@ 1004565c     FingerStrokeAssistance_capi.obj
 0002:00003678       ??_C@_0BJ@LDIJMIN@parameters?1parChangeRate?$AA@ 10045678     FingerStrokeAssistance_capi.obj
 0002:00003698       ??_C@_0BG@MANKCMPG@parameters?1parFThresh?$AA@ 10045698     FingerStrokeAssistance_capi.obj
 0002:000036b4       ??_C@_0BH@GKLAKHLL@parameters?1parFixedDur?$AA@ 100456b4     FingerStrokeAssistance_capi.obj
 0002:000036d0       ??_C@_0BL@EGOKLGEF@parameters?1parForceTrigger?$AA@ 100456d0     FingerStrokeAssistance_capi.obj
 0002:000036f0       ??_C@_0BC@FKHIPIEO@parameters?1parKd1?$AA@ 100456f0     FingerStrokeAssistance_capi.obj
 0002:00003708       ??_C@_0BC@HBFFKLIN@parameters?1parKd2?$AA@ 10045708     FingerStrokeAssistance_capi.obj
 0002:00003720       ??_C@_0BD@BKPLMOHI@parameters?1parKdV1?$AA@ 10045720     FingerStrokeAssistance_capi.obj
 0002:00003738       ??_C@_0BD@DBNGJNLL@parameters?1parKdV2?$AA@ 10045738     FingerStrokeAssistance_capi.obj
 0002:00003750       ??_C@_0BC@EBFHPDOC@parameters?1parKp1?$AA@ 10045750     FingerStrokeAssistance_capi.obj
 0002:00003768       ??_C@_0BC@GKHKKACB@parameters?1parKp2?$AA@ 10045768     FingerStrokeAssistance_capi.obj
 0002:00003780       ??_C@_0BH@PENPCGFM@parameters?1parLeftMode?$AA@ 10045780     FingerStrokeAssistance_capi.obj
 0002:0000379c       ??_C@_0BF@GLMDNGIG@parameters?1parMarker?$AA@ 1004579c     FingerStrokeAssistance_capi.obj
 0002:000037b8       ??_C@_0BJ@BNLOJEEL@parameters?1parMaxTrajDur?$AA@ 100457b8     FingerStrokeAssistance_capi.obj
 0002:000037d8       ??_C@_0BE@GHPCIJPH@parameters?1parPStop?$AA@ 100457d8     FingerStrokeAssistance_capi.obj
 0002:000037f0       ??_C@_0BH@GJMCKDGC@parameters?1parTrajMode?$AA@ 100457f0     FingerStrokeAssistance_capi.obj
 0002:0000380c       ??_C@_0BG@LMGBBNNN@parameters?1parVThresh?$AA@ 1004580c     FingerStrokeAssistance_capi.obj
 0002:00003828       ??_C@_0BI@PBEPHEEP@parameters?1parWiggleAmp?$AA@ 10045828     FingerStrokeAssistance_capi.obj
 0002:00003844       ??_C@_0BN@BNDFGDOE@parameters?1Rounding?5Function?$AA@ 10045844     FingerStrokeAssistance_capi.obj
 0002:00003868       ??_C@_0BG@KKGOACNA@parameters?1Saturation?$AA@ 10045868     FingerStrokeAssistance_capi.obj
 0002:00003884       ??_C@_0BH@EACELLGE@parameters?1Saturation1?$AA@ 10045884     FingerStrokeAssistance_capi.obj
 0002:000038a0       ??_C@_0BH@GLAJOIKH@parameters?1Saturation2?$AA@ 100458a0     FingerStrokeAssistance_capi.obj
 0002:000038bc       ??_C@_0N@MGJILHCJ@signals?1Gain?$AA@ 100458bc     FingerStrokeAssistance_capi.obj
 0002:000038cc       ??_C@_0O@IECJAHGJ@signals?1Gain1?$AA@ 100458cc     FingerStrokeAssistance_capi.obj
 0002:000038dc       ??_C@_0DG@IOBGNGCJ@HL?5Controller?1Detect?5Change?1FixP@ 100458dc     FingerStrokeAssistance_capi.obj
 0002:0000391c       ??_C@_0CJ@CLPCMDPG@HL?5Controller?1Detect?5Change?1Dela@ 1004591c     FingerStrokeAssistance_capi.obj
 0002:00003950       ??_C@_06CFNEEADJ@U?$CIk?91?$CJ?$AA@ 10045950     FingerStrokeAssistance_capi.obj
 0002:00003958       ??_C@_0DG@KEKODAM@LL?5Position?5Controller?1Discrete?5@ 10045958     FingerStrokeAssistance_capi.obj
 0002:00003998       ??_C@_0DK@FEAOEOMF@LL?5Position?5Controller?1Discrete?5@ 10045998     FingerStrokeAssistance_capi.obj
 0002:000039e0       ??_C@_0DP@BEAACIAJ@LL?5Position?5Controller?1Discrete?5@ 100459e0     FingerStrokeAssistance_capi.obj
 0002:00003a30       ??_C@_0EC@JPHJHLOK@LL?5Position?5Controller?1Discrete?5@ 10045a30     FingerStrokeAssistance_capi.obj
 0002:00003a80       ??_C@_0DN@OCDKGAHF@LL?5Position?5Controller?1Discrete?5@ 10045a80     FingerStrokeAssistance_capi.obj
 0002:00003ad0       ??_C@_0EB@MFGGOBNC@LL?5Position?5Controller?1Discrete?5@ 10045ad0     FingerStrokeAssistance_capi.obj
 0002:00003b20       ??_C@_0DD@GAMJPEHE@LL?5Position?5Controller?1Discrete?5@ 10045b20     FingerStrokeAssistance_capi.obj
 0002:00003b60       ??_C@_0DE@MDBNPGNA@LL?5Position?5Controller?1Discrete?5@ 10045b60     FingerStrokeAssistance_capi.obj
 0002:00003ba0       ??_C@_0DH@KBAOACOF@LL?5Position?5Controller?1Saturatio@ 10045ba0     FingerStrokeAssistance_capi.obj
 0002:00003be4       ??_C@_0DG@OJDANGHJ@LL?5Position?5Controller?1Saturatio@ 10045be4     FingerStrokeAssistance_capi.obj
 0002:00003c24       ??_C@_0DC@BEODJEFG@LL?5Position?5Controller?1Saturatio@ 10045c24     FingerStrokeAssistance_capi.obj
 0002:00003c60       ??_C@_0DD@GPGMEDCE@LL?5Position?5Controller?1Saturatio@ 10045c60     FingerStrokeAssistance_capi.obj
 0002:00003ca0       ??_C@_0BP@DAEPAEBF@Robot?1Discrete?5Derivative?1Diff?$AA@ 10045ca0     FingerStrokeAssistance_capi.obj
 0002:00003cc8       ??_C@_0CA@DLBHKHPN@Robot?1Discrete?5Derivative?1TSamp?$AA@ 10045cc8     FingerStrokeAssistance_capi.obj
 0002:00003cf0       ??_C@_0BN@GNNONLLN@Robot?1Discrete?5Derivative?1UD?$AA@ 10045cf0     FingerStrokeAssistance_capi.obj
 0002:00003d14       ??_C@_0CF@JOKCEMIH@Robot?1Saturation?5Dynamic?1LowerRe@ 10045d14     FingerStrokeAssistance_capi.obj
 0002:00003d40       ??_C@_0CE@PAHIGJNP@Robot?1Saturation?5Dynamic?1UpperRe@ 10045d40     FingerStrokeAssistance_capi.obj
 0002:00003d6c       ??_C@_0CA@NDOLBHN@Robot?1Saturation?5Dynamic?1Switch?$AA@ 10045d6c     FingerStrokeAssistance_capi.obj
 0002:00003d94       ??_C@_0CB@MDMJGHEB@Robot?1Saturation?5Dynamic?1Switch2@ 10045d94     FingerStrokeAssistance_capi.obj
 0002:00003dbc       ??_C@_0BO@KMPBMPBM@Robot?1Triggered?5Subsystem?1In1?$AA@ 10045dbc     FingerStrokeAssistance_capi.obj
 0002:00003de0       ??_C@_0DA@IHGHECDK@Robot?1account?5for?5handedness?1MAT@ 10045de0     FingerStrokeAssistance_capi.obj
 0002:00003e1c       ??_C@_0DA@KMEKBBPJ@Robot?1account?5for?5handedness?1MAT@ 10045e1c     FingerStrokeAssistance_capi.obj
 0002:00003e58       ??_C@_0DD@LGPLBJIP@Robot?1account?5for?5handedness?5for@ 10045e58     FingerStrokeAssistance_capi.obj
 0002:00003e98       ??_C@_0DB@BNMCHGNM@Robot?1account?5for?5handedness2?1MA@ 10045e98     FingerStrokeAssistance_capi.obj
 0002:00003ed4       ??_C@_0DB@DGOPCFBP@Robot?1account?5for?5handedness2?1MA@ 10045ed4     FingerStrokeAssistance_capi.obj
 0002:00003f10       ??_C@_0CM@LEIBMJGE@Robot?1filtered?5force?5output?1Low?5@ 10045f10     FingerStrokeAssistance_capi.obj
 0002:00003f44       ??_C@_0CN@IMDGCDDK@Robot?1filtered?5force?5output?1Low?5@ 10045f44     FingerStrokeAssistance_capi.obj
 0002:00003f7c       ??_C@_0CD@NAELEMPL@Robot?1filtered?5force?5output?1Memo@ 10045f7c     FingerStrokeAssistance_capi.obj
 0002:00003fa8       ??_C@_0CE@OMOCGHGK@Robot?1filtered?5force?5output?1Memo@ 10045fa8     FingerStrokeAssistance_capi.obj
 0002:00003fd4       ??_C@_0BD@BNMELIGD@Robot?1gravDir?1gain?$AA@ 10045fd4     FingerStrokeAssistance_capi.obj
 0002:00003fec       ??_C@_0BC@NJKIOKBB@Robot?1gravDir?1Sum?$AA@ 10045fec     FingerStrokeAssistance_capi.obj
 0002:00004004       ??_C@_0DC@HIOFCDHB@Subsystem?1Detect?5Change?1FixPt?5Re@ 10046004     FingerStrokeAssistance_capi.obj
 0002:00004040       ??_C@_0CF@IOCCGEMF@Subsystem?1Detect?5Change?1Delay?5In@ 10046040     FingerStrokeAssistance_capi.obj
 0002:0000406c       ??_C@_0DD@ODDDIJKC@Subsystem1?1Detect?5Change?1FixPt?5R@ 1004606c     FingerStrokeAssistance_capi.obj
 0002:000040ac       ??_C@_0CG@OCPBJBDF@Subsystem1?1Detect?5Change?1Delay?5I@ 100460ac     FingerStrokeAssistance_capi.obj
 0002:000040dc       ??_C@_0CH@KJDMLLPO@parameters?1gain?5transition?1gainr@ 100460dc     FingerStrokeAssistance_capi.obj
 0002:0000410c       ??_C@_0CH@ICBBOIDN@parameters?1gain?5transition?1gainr@ 1004610c     FingerStrokeAssistance_capi.obj
 0002:0000413c       ??_C@_0CC@BDCPHDEE@parameters?1gain?5transition?1Memor@ 1004613c     FingerStrokeAssistance_capi.obj
 0002:00004164       ??_C@_0CI@PJCJMMGB@parameters?1gain?5transition1?1gain@ 10046164     FingerStrokeAssistance_capi.obj
 0002:00004194       ??_C@_0CI@NCAEJPKC@parameters?1gain?5transition1?1gain@ 10046194     FingerStrokeAssistance_capi.obj
 0002:000041c4       ??_C@_0CD@LNHEJADF@parameters?1gain?5transition1?1Memo@ 100461c4     FingerStrokeAssistance_capi.obj
 0002:000041f0       ??_C@_0CI@IFEIOJLK@parameters?1gain?5transition2?1gain@ 100461f0     FingerStrokeAssistance_capi.obj
 0002:00004220       ??_C@_0CI@KOGFLKHJ@parameters?1gain?5transition2?1gain@ 10046220     FingerStrokeAssistance_capi.obj
 0002:00004250       ??_C@_0CD@IEPJKMPA@parameters?1gain?5transition2?1Memo@ 10046250     FingerStrokeAssistance_capi.obj
 0002:0000427c       ??_C@_0CI@BIEHAIMM@parameters?1gain?5transition3?1gain@ 1004627c     FingerStrokeAssistance_capi.obj
 0002:000042ac       ??_C@_0CI@DDGKFLAP@parameters?1gain?5transition3?1gain@ 100462ac     FingerStrokeAssistance_capi.obj
 0002:000042dc       ??_C@_0CD@JDICLILD@parameters?1gain?5transition3?1Memo@ 100462dc     FingerStrokeAssistance_capi.obj
 0002:00004308       ??_C@_0CI@HNIKKCAM@parameters?1gain?5transition4?1gain@ 10046308     FingerStrokeAssistance_capi.obj
 0002:00004338       ??_C@_0CI@FGKHPBMP@parameters?1gain?5transition4?1gain@ 10046338     FingerStrokeAssistance_capi.obj
 0002:00004368       ??_C@_0CD@PHODNFHK@parameters?1gain?5transition4?1Memo@ 10046368     FingerStrokeAssistance_capi.obj
 0002:00004394       ??_C@_0CI@OAIFEDHK@parameters?1gain?5transition5?1gain@ 10046394     FingerStrokeAssistance_capi.obj
 0002:000043c4       ??_C@_0CI@MLKIBALJ@parameters?1gain?5transition5?1gain@ 100463c4     FingerStrokeAssistance_capi.obj
 0002:000043f4       ??_C@_0CD@OAJIMBDJ@parameters?1gain?5transition5?1Memo@ 100463f4     FingerStrokeAssistance_capi.obj
 0002:00004420       ??_C@_09IIHOELEE@Constant1?$AA@ 10046420     FingerStrokeAssistance_capi.obj
 0002:0000442c       ??_C@_05LPIJGKJ@Value?$AA@ 1004642c     FingerStrokeAssistance_capi.obj
 0002:00004434       ??_C@_09KDFDBIIH@Constant2?$AA@ 10046434     FingerStrokeAssistance_capi.obj
 0002:00004440       ??_C@_09LKEICJMG@Constant3?$AA@ 10046440     FingerStrokeAssistance_capi.obj
 0002:0000444c       ??_C@_09PFAJLPAB@Constant4?$AA@ 1004644c     FingerStrokeAssistance_capi.obj
 0002:00004458       ??_C@_09OMBCIOEA@Constant5?$AA@ 10046458     FingerStrokeAssistance_capi.obj
 0002:00004464       ??_C@_09MHDPNNID@Constant6?$AA@ 10046464     FingerStrokeAssistance_capi.obj
 0002:00004470       ??_C@_09NOCEOMMC@Constant7?$AA@ 10046470     FingerStrokeAssistance_capi.obj
 0002:0000447c       ??_C@_0BB@CFEOEMDC@InitialCondition?$AA@ 1004647c     FingerStrokeAssistance_capi.obj
 0002:00004490       ??_C@_0BM@NNJFPEF@HL?5Controller?1Detect?5Change?$AA@ 10046490     FingerStrokeAssistance_capi.obj
 0002:000044b4       ??_C@_05NAMIGJNB@vinit?$AA@ 100464b4     FingerStrokeAssistance_capi.obj
 0002:000044bc       ??_C@_07KKMCCDCH@gainval?$AA@ 100464bc     FingerStrokeAssistance_capi.obj
 0002:000044c8       ??_C@_0BF@GLIOIDJM@UpperSaturationLimit?$AA@ 100464c8     FingerStrokeAssistance_capi.obj
 0002:000044e4       ??_C@_0BF@EMCFELNH@LowerSaturationLimit?$AA@ 100464e4     FingerStrokeAssistance_capi.obj
 0002:00004500       ??_C@_04OMOMKKFL@Gain?$AA@ 10046500     FingerStrokeAssistance_capi.obj
 0002:00004508       ??_C@_0M@KNNCJG@DelayLength?$AA@ 10046508     FingerStrokeAssistance_capi.obj
 0002:00004518       ??_C@_09OMDFKCLN@Numerator?$AA@ 10046518     FingerStrokeAssistance_capi.obj
 0002:00004524       ??_C@_0M@KDILNJPK@Denominator?$AA@ 10046524     FingerStrokeAssistance_capi.obj
 0002:00004534       ??_C@_0O@KHJPNGBD@InitialStates?$AA@ 10046534     FingerStrokeAssistance_capi.obj
 0002:00004544       ??_C@_0CP@MNGHIGCN@LL?5Position?5Controller?1Discrete?5@ 10046544     FingerStrokeAssistance_capi.obj
 0002:0000457c       ??_C@_01EJNLAFE@P?$AA@     1004657c     FingerStrokeAssistance_capi.obj
 0002:00004580       ??_C@_01JPJNBJEM@I?$AA@    10046580     FingerStrokeAssistance_capi.obj
 0002:00004584       ??_C@_01CKDDGHAB@D?$AA@    10046584     FingerStrokeAssistance_capi.obj
 0002:00004588       ??_C@_01NANMIPIL@N?$AA@    10046588     FingerStrokeAssistance_capi.obj
 0002:0000458c       ??_C@_0BB@BPKEPNND@ON?1?1OFF?1Constant?$AA@ 1004658c     FingerStrokeAssistance_capi.obj
 0002:000045a0       ??_C@_0CL@IJMAEGGM@Position?5Control?5?1?1?5Force?5Contro@ 100465a0     FingerStrokeAssistance_capi.obj
 0002:000045d4       ??_C@_0BK@MMODBLJF@Robot?1Discrete?5Derivative?$AA@ 100465d4     FingerStrokeAssistance_capi.obj
 0002:000045f4       ??_C@_0BC@DNAKAAEE@ICPrevScaledInput?$AA@ 100465f4     FingerStrokeAssistance_capi.obj
 0002:0000460c       ??_C@_02KKFPAPOP@P1?$AA@   1004660c     FingerStrokeAssistance_capi.obj
 0002:00004610       ??_C@_02IBHCFMCM@P2?$AA@   10046610     FingerStrokeAssistance_capi.obj
 0002:00004614       ??_C@_02JIGJGNGN@P3?$AA@   10046614     FingerStrokeAssistance_capi.obj
 0002:00004618       ??_C@_02NHCIPLKK@P4?$AA@   10046618     FingerStrokeAssistance_capi.obj
 0002:0000461c       ??_C@_02MODDMKOL@P5?$AA@   1004661c     FingerStrokeAssistance_capi.obj
 0002:00004620       ??_C@_02OFBOJJCI@P6?$AA@   10046620     FingerStrokeAssistance_capi.obj
 0002:00004624       ??_C@_02PMAFKIGJ@P7?$AA@   10046624     FingerStrokeAssistance_capi.obj
 0002:00004628       ??_C@_02HLJNLEKG@P8?$AA@   10046628     FingerStrokeAssistance_capi.obj
 0002:0000462c       ??_C@_02GCIGIFOH@P9?$AA@   1004662c     FingerStrokeAssistance_capi.obj
 0002:00004630       ??_C@_03OPFJJGBF@P10?$AA@  10046630     FingerStrokeAssistance_capi.obj
 0002:00004634       ??_C@_0BD@HJHAJHEM@Robot?1PCI?96221?5AD1?$AA@ 10046634     FingerStrokeAssistance_capi.obj
 0002:0000464c       ??_C@_0BC@IGENNOJN@Robot?1PCI?96221?5DA?$AA@ 1004664c     FingerStrokeAssistance_capi.obj
 0002:00004664       ??_C@_0BI@CCIOLKMP@Subsystem?1Detect?5Change?$AA@ 10046664     FingerStrokeAssistance_capi.obj
 0002:00004680       ??_C@_0BJ@KNCPHFFI@Subsystem1?1Detect?5Change?$AA@ 10046680     FingerStrokeAssistance_capi.obj
 0002:000046a0       ??_C@_0CD@NBHNHEJB@parameters?1paremeters_?5must_be_o@ 100466a0     FingerStrokeAssistance_capi.obj
 0002:000046cc       ??_C@_0L@FBCGKKEN@UpperLimit?$AA@ 100466cc     FingerStrokeAssistance_capi.obj
 0002:000046dc       ??_C@_0L@DGFJOHKP@LowerLimit?$AA@ 100466dc     FingerStrokeAssistance_capi.obj
 0002:000046ec       ??_C@_04GKLBNPCL@WtEt?$AA@ 100466ec     FingerStrokeAssistance_capi.obj
 0002:000046f4       ??_C@_0BP@KMPJMACH@Robot?1Triggered?5Subsystem?1Out1?$AA@ 100466f4     FingerStrokeAssistance_capi.obj
 0002:0000471c       ??_C@_0O@LILIEJBO@InitialOutput?$AA@ 1004671c     FingerStrokeAssistance_capi.obj
 0002:0000472c       ??_C@_02LNFHGPBG@X0?$AA@   1004672c     FingerStrokeAssistance_capi.obj
 0002:00004730       ??_C@_0BH@BIOEOLDB@Robot?1gravDir?1Constant?$AA@ 10046730     FingerStrokeAssistance_capi.obj
 0002:0000474c       ??_C@_04OELFCIM@Alow?$AA@  1004674c     FingerStrokeAssistance_capi.obj
 0002:00004754       ??_C@_04EJOLCIFM@Blow?$AA@ 10046754     FingerStrokeAssistance_capi.obj
 0002:0000475c       ??_C@_04HEILABOM@Clow?$AA@ 1004675c     FingerStrokeAssistance_capi.obj
 0002:00004764       ??_C@_04MGKLNNPM@Dlow?$AA@ 10046764     FingerStrokeAssistance_capi.obj
 0002:0000476c       ??_C@_05FKGIECOB@x0low?$AA@ 1004676c     FingerStrokeAssistance_capi.obj
 0002:00004774       ??_C@_06BNJCAIGJ@double?$AA@ 10046774     FingerStrokeAssistance_capi.obj
 0002:0000477c       ??_C@_06CNMIJIPB@real_T?$AA@ 1004677c     FingerStrokeAssistance_capi.obj
 0002:00004784       ??_C@_0O@PPAIJIHF@unsigned?5char?$AA@ 10046784     FingerStrokeAssistance_capi.obj
 0002:00004794       ??_C@_09JBMFCIMO@boolean_T?$AA@ 10046794     FingerStrokeAssistance_capi.obj
 0002:000047a0       ??_C@_0N@OFHMGPAL@unsigned?5int?$AA@ 100467a0     FingerStrokeAssistance_capi.obj
 0002:000047b0       ??_C@_08CCMIKNJF@uint32_T?$AA@ 100467b0     FingerStrokeAssistance_capi.obj
 0002:000047bc       ??_C@_05KNFBNCOH@float?$AA@ 100467bc     FingerStrokeAssistance_capi.obj
 0002:000047c4       ??_C@_0CJ@GGPBKPNK@Could?5not?5start?5ToAsyncQueue?5app@ 100467c4     FingerStrokeAssistance_tgtconn.obj
 0002:00005058       ??_C@_0DJ@FHKINPLE@Unexpected?5itemKind?5?$DN?5DATA_ITEM?5@ 10047058     rt_logging.obj
 0002:0000509c       ??_C@_0DA@IEHFPFCJ@Unexpected?5itemKind?$DN?$CFd?5in?5rt_Pro@ 1004709c     rt_logging.obj
 0002:000050d8       ??_C@_0DA@IFLHJPBO@Unexpected?5itemKind?$DN?$CFd?5in?5rt_Pro@ 100470d8     rt_logging.obj
 0002:00005114       ??_C@_0DA@IAPIIJJL@Unexpected?5itemKind?$DN?$CFd?5in?5rt_Pro@ 10047114     rt_logging.obj
 0002:00005150       ??_C@_0BE@LCIGPJIG@MATLAB?55?40?5MAT?9file?$AA@ 10047150     rt_logging.obj
 0002:00005168       ??_C@_0FB@PCJEAJIB@?$CK?$CK?$CK?5Log?5variable?5?$CFs?5has?5wrapped?5@ 10047168     rt_logging.obj
 0002:000051d0       ??_C@_0MG@NKMLMOGF@?$CK?$CK?$CK?5To?5avoid?5wrapping?0?5explicitl@ 100471d0     rt_logging.obj
 0002:000052c0       ??_C@_0N@IPAEOLLP@_rtw_tmw?4tmw?$AA@ 100472c0     rt_logging.obj
 0002:000052d0       ??_C@_04HDOCAJNK@?$CFs?$CFs?$AA@ 100472d0     rt_logging.obj
 0002:000052d8       ??_C@_03ELIABIOC@w?$CLb?$AA@ 100472d8     rt_logging.obj
 0002:000052dc       ??_C@_0BF@JPILDDFA@?$CK?$CK?$CK?5Error?5opening?5?$CFs?$AA@ 100472dc     rt_logging.obj
 0002:000052f8       ??_C@_0BK@EEMDELA@unable?5to?5open?5data?5file?6?$AA@ 100472f8     rt_logging.obj
 0002:00005318       ??_C@_04CGFJFPFD@none?$AA@ 10047318     rt_logging.obj
 0002:00005320       ??_C@_0EE@LCGFPNON@?$CK?$CK?$CK?5Error?5creating?5signals?5struc@ 10047320     rt_logging.obj
 0002:00005374       ??_C@_0CE@NHECEDMK@?$CK?$CK?$CK?5Error?5creating?5log?5variable?5@ 10047374     rt_logging.obj
 0002:000053a0       ??_C@_0DB@IOCGKAGH@?$CK?$CK?$CK?5Errors?5occurred?5when?5startin@ 100473a0     rt_logging.obj
 0002:000053dc       ??_C@_0BO@BBLOGEBK@?$CK?$CK?$CK?5Memory?5allocation?5error?4?6?$AA@ 100473dc     rt_logging.obj
 0002:00005400       ??_C@_0N@LGFBAGEL@?5?$CIreal?5part?$CJ?$AA@ 10047400     rt_logging.obj
 0002:00005410       ??_C@_0KH@CGNMHNFE@?5?5?5?5varName?5?5?5?5?5?5?5?5?5?5?$DN?5?$CFs?$CFs?6?5?5?5?5@ 10047410     rt_logging.obj
 0002:000054d8       ??_C@_0LE@OALKKEFM@?5?5?5?5varName?5?5?5?5?5?5?5?5?5?5?$DN?5?$CFs?5?$CIcompl@ 100474d8     rt_logging.obj
 0002:000055b0       ??_C@_0KF@JDDLEOKO@?5?5?5?5varName?5?5?5?5?5?5?5?5?5?5?$DN?5?$CFs?6?5?5?5?5nR@ 100475b0     rt_logging.obj
 0002:00005678       ??_C@_0DP@HPDMIOFM@?$CK?$CK?$CK?5Using?5a?5default?5buffer?5of?5si@ 10047678     rt_logging.obj
 0002:000056c8       ??_C@_0KE@JEFOLKNF@?6?$CK?$CK?$CK?5Memory?5required?5to?5log?5vari@ 100476c8     rt_logging.obj
 0002:00005790       ??_C@_0JP@DKLMHCBI@?$CK?$CK?$CK?5Details?3?6?5?5?5?5?5?5?5varName?5?5?5?5?5@ 10047790     rt_logging.obj
 0002:00005850       ??_C@_0CM@CAMILBED@?$CK?$CK?$CK?5Error?5allocating?5memory?5for?5@ 10047850     rt_logging.obj
 0002:00005884       ??_C@_0DF@BBCNMOPM@?$CK?$CK?$CK?5Error?5allocating?5memory?5for?5@ 10047884     rt_logging.obj
 0002:000058c8       ??_C@_0JP@DBCLPCCI@?$CK?$CK?$CK?5Details?3?6?5?5?5?5?5?5?5varName?5?5?5?5?5@ 100478c8     rt_logging.obj
 0002:00005988       ??_C@_0FK@DPGAOBGA@?$CK?$CK?$CK?5Error?5allocating?5memory?5for?5@ 10047988     rt_logging.obj
 0002:000059f4       ??_C@_0BI@GGDNPHLJ@?$CK?$CK?$CK?5Error?5writing?5to?5?$CFs?$AA@ 100479f4     rt_logging.obj
 0002:00005a10       ??_C@_0CB@IBGJGELG@?$CK?$CK?$CK?5Error?5writing?5?$CFs?5due?5to?3?5?$CFs?6@ 10047a10     rt_logging.obj
 0002:00005a38       ??_C@_0CN@FLMCHCPB@?$CK?$CK?$CK?5Error?5writing?5log?5variable?5?$CF@ 10047a38     rt_logging.obj
 0002:00005a70       ??_C@_0DH@GAJCNOJP@?$CK?$CK?$CK?5Error?5writing?5structure?5log?5@ 10047a70     rt_logging.obj
 0002:00005ab4       ??_C@_0BD@POEALECL@?$CK?$CK?5created?5?$CFs?5?$CK?$CK?6?6?$AA@ 10047ab4     rt_logging.obj
 0002:00005ad0       __real@4020000000000000    10047ad0     rt_logging.obj
 0002:00005ae0       __real@41dfffffffc00000    10047ae0     rt_logging.obj
 0002:00005af0       __real@41efffffffe00000    10047af0     rt_logging.obj
 0002:00005b00       __real@bfbf9add3afd2773    10047b00     rt_logging.obj
 0002:00005b10       __real@c000000000000000    10047b10     rt_logging.obj
 0002:00005b20       __xmm@20202020202020202020202020202020 10047b20     rt_logging.obj
 0002:00005b50       __real@3cb0000000000000    10047b50     rt_matrx.obj
 0002:00005b70       ??_C@_0BI@INNPNFJN@Memory?5Allocation?5Error?$AA@ 10047b70     rtw_modelmap_utils.obj
 0002:00005b90       ??_C@_1HC@OAPLBLFC@?$AAC?$AA?3?$AA?2?$AAP?$AAR?$AAO?$AAG?$AAR?$AAA?$AA?$HO?$AA1?$AA?2?$AAM?$AAA?$AAT?$AAL?$AAA?$AAB?$AA?2?$AAR?$AA2?$AA0?$AA1?$AA6?$AAa?$AA?2?$AAr?$AAt?$AAw?$AA?2?$AAc?$AA?2@ 10047b90     rtw_modelmap_utils.obj
 0002:00005c18       ??_C@_1CI@OEAJCJND@?$AAj?$AA?5?$AA?$DN?$AA?$DN?$AA?5?$AAe?$AAn?$AAc?$AAo?$AAd?$AAe?$AAd?$AAP?$AAa?$AAt?$AAh?$AAL?$AAe?$AAn?$AA?$AA@ 10047c18     rtw_modelmap_utils.obj
 0002:00005c48       ??_C@_1DC@NFAOIFKB@?$AAe?$AAn?$AAc?$AAo?$AAd?$AAe?$AAd?$AAP?$AAa?$AAt?$AAh?$AA?$FL?$AAj?$AA?9?$AA1?$AA?$FN?$AA?5?$AA?$DN?$AA?$DN?$AA?5?$AA?8?$AA?2?$AA0?$AA?8?$AA?$AA@ 10047c48     rtw_modelmap_utils.obj
 0002:00005c84       ??_C@_1DI@FLNJGPEE@?$AAs?$AAi?$AAg?$AAC?$AAo?$AAm?$AAp?$AAl?$AAe?$AAx?$AAi?$AAt?$AAy?$AA?$FL?$AA?$CK?$AAs?$AAi?$AAg?$AAI?$AAd?$AAx?$AA?$FN?$AA?5?$AA?$CB?$AA?$DN?$AA?5?$AA1?$AA?$AA@ 10047c84     rtw_modelmap_utils.obj
 0002:00005cc8       ??_C@_1KI@OFELMGBG@?$AA?$CI?$AA?$CI?$AA?$CI?$AAd?$AAa?$AAt?$AAa?$AAT?$AAy?$AAp?$AAe?$AAM?$AAa?$AAp?$AA?$CJ?$AA?$FL?$AA?$CI?$AA?$CI?$AA?$CI?$AAs?$AAt?$AAa?$AAt?$AAe?$AAs?$AA?$CJ?$AA?$FL?$AA?$CI?$AAi?$AA?$CJ?$AA?$FN?$AA?4@ 10047cc8     rtw_modelmap_utils.obj
 0002:00005d94       ??_C@_1DA@ILCMPHNE@?$AAf?$AAu?$AAl?$AAl?$AAP?$AAa?$AAt?$AAh?$AA?5?$AA?$CB?$AA?$DN?$AA?5?$AA?$CI?$AA?$CI?$AAv?$AAo?$AAi?$AAd?$AA?5?$AA?$CK?$AA?$CJ?$AA0?$AA?$CJ?$AA?$AA@ 10047d94     rtw_modelmap_utils.obj
 0002:00005dd0       ??_C@_1CI@OEPPFCCA@?$AAp?$AAa?$AAt?$AAh?$AA?5?$AA?$CB?$AA?$DN?$AA?5?$AA?$CI?$AA?$CI?$AAv?$AAo?$AAi?$AAd?$AA?5?$AA?$CK?$AA?$CJ?$AA0?$AA?$CJ?$AA?$AA@ 10047dd0     rtw_modelmap_utils.obj
 0002:00005e00       ??_C@_1FK@GLJIMFHB@?$AA?$CI?$AA?$CI?$AAm?$AAm?$AAi?$AA?$CJ?$AA?9?$AA?$DO?$AAI?$AAn?$AAs?$AAt?$AAa?$AAn?$AAc?$AAe?$AAM?$AAa?$AAp?$AA?4?$AAf?$AAu?$AAl?$AAl?$AAP?$AAa?$AAt?$AAh?$AA?$CJ?$AA?5?$AA?$DN?$AA?$DN@ 10047e00     rtw_modelmap_utils.obj
 0002:00005e6c       ??_C@_1DG@HPCJGNCE@?$AAm?$AAm?$AAi?$AAP?$AAa?$AAt?$AAh?$AA?$FL?$AAp?$AAa?$AAt?$AAh?$AAL?$AAe?$AAn?$AA?9?$AA1?$AA?$FN?$AA?5?$AA?$DN?$AA?$DN?$AA?5?$AA?8?$AA?2?$AA0?$AA?8?$AA?$AA@ 10047e6c     rtw_modelmap_utils.obj
 0002:00005eac       ??_C@_1DM@DBAOGGOO@?$AAm?$AAm?$AAi?$AAP?$AAa?$AAt?$AAh?$AA?$FL?$AAm?$AAm?$AAi?$AAP?$AAa?$AAt?$AAh?$AAL?$AAe?$AAn?$AA?9?$AA1?$AA?$FN?$AA?5?$AA?$DN?$AA?$DN?$AA?5?$AA?8?$AA?2?$AA0?$AA?8?$AA?$AA@ 10047eac     rtw_modelmap_utils.obj
 0002:00005ef4       ??_C@_1DC@LHIAKAFE@?$AAb?$AAl?$AAo?$AAc?$AAk?$AAP?$AAa?$AAt?$AAh?$AA?5?$AA?$CB?$AA?$DN?$AA?5?$AA?$CI?$AA?$CI?$AAv?$AAo?$AAi?$AAd?$AA?5?$AA?$CK?$AA?$CJ?$AA0?$AA?$CJ?$AA?$AA@ 10047ef4     rtw_modelmap_utils.obj
 0002:00005f30       ??_C@_1GI@KIEJKPGC@?$AAf?$AAu?$AAl?$AAl?$AAS?$AAt?$AAa?$AAt?$AAe?$AAB?$AAl?$AAo?$AAc?$AAk?$AAP?$AAa?$AAt?$AAh?$AA?$FL?$AAf?$AAu?$AAl?$AAl?$AAS?$AAt?$AAa?$AAt?$AAe?$AAB?$AAl?$AAo?$AAc@ 10047f30     rtw_modelmap_utils.obj
 0002:00005fb0       ??_C@_1EE@DNPIBJHC@?$AA?$CI?$AA?$CI?$AAd?$AAi?$AAm?$AAM?$AAa?$AAp?$AA?$CJ?$AA?$FL?$AA?$CI?$AAm?$AAa?$AAp?$AAI?$AAd?$AAx?$AA?$CJ?$AA?$FN?$AA?4?$AAn?$AAu?$AAm?$AAD?$AAi?$AAm?$AAs?$AA?$CJ?$AA?5?$AA?$DN?$AA?$DN?$AA?5@ 10047fb0     rtw_modelmap_utils.obj
 0002:00006004       ??_C@_06JFOKFOED@CSTATE?$AA@ 10048004     rtw_modelmap_utils.obj
 0002:0000600c       ??_C@_06FAENGAMN@DSTATE?$AA@ 1004800c     rtw_modelmap_utils.obj
 0002:00006014       ??_C@_1BI@LEBJNOGG@?$AAc?$AAs?$AAv?$AAI?$AAd?$AAx?$AA?5?$AA?$DO?$AA?$DN?$AA?5?$AA0?$AA?$AA@ 10048014     rtw_modelmap_utils.obj
 0002:00006030       ??_C@_1BA@KDMGHCHP@?$AAT?$AAI?$AAD?$AA?$DN?$AA?$DN?$AA?9?$AA1?$AA?$AA@ 10048030     rtw_modelmap_utils.obj
 0002:00006044       ??_C@_1DM@DHGKBPCE@?$AAs?$AAi?$AAg?$AAP?$AAa?$AAt?$AAh?$AA?$FL?$AAs?$AAi?$AAg?$AAP?$AAa?$AAt?$AAh?$AAL?$AAe?$AAn?$AA?9?$AA1?$AA?$FN?$AA?5?$AA?$DN?$AA?$DN?$AA?5?$AA?8?$AA?2?$AA0?$AA?8?$AA?$AA@ 10048044     rtw_modelmap_utils.obj
 0002:0000608c       _serialfifoground          1004808c     xpc_datatype_ground.obj
 0002:00006098       _bcmsg1553ground           10048098     xpc_datatype_ground.obj
 0002:000060a8       _bcstatground              100480a8     xpc_datatype_ground.obj
 0002:000060c0       _bmmsg1553ground           100480c0     xpc_datatype_ground.obj
 0002:000060e0       _ptsetfilename             100480e0     xpctarget.obj
 0002:000060e4       _xmlfile                   100480e4     xpctarget.obj
 0002:000060ec       ??_C@_0BH@DNMKOCPI@FingerStrokeAssistance?$AA@ 100480ec     xpctarget.obj
 0002:00006108       ??_C@_0L@CHBJKKFC@xpceSetVar?$AA@ 10048108     xpctarget.obj
 0002:00006118       ??_C@_03ICACBPID@6?44?$AA@ 10048118     xpctarget.obj
 0002:00006120       __real@408f400000000000    10048120     xpctarget.obj
 0002:00006130       _FingerStrokeAssistance_BIOMAP 10048130     appmappingData.obj
 0002:00006748       _FingerStrokeAssistance_LBLMAP 10048748     appmappingData.obj
 0002:00006d60       _FingerStrokeAssistance_SIDMAP 10048d60     appmappingData.obj
 0002:00007378       _FingerStrokeAssistance_SBIO 10049378     appmappingData.obj
 0002:00007580       _FingerStrokeAssistance_SLBL 10049580     appmappingData.obj
 0002:00007788       _FingerStrokeAssistance_PTIDSMAP 10049788     appmappingData.obj
 0002:00007bb0       _FingerStrokeAssistance_PTNAMESMAP 10049bb0     appmappingData.obj
 0002:00007fd8       _FingerStrokeAssistance_SPTMAP 10049fd8     appmappingData.obj
 0002:000081ec       _FingerStrokeAssistance_dtmap 1004a1ec     appmappingData.obj
 0002:00008210       _appInfo                   1004a210     appmappingData.obj
 0002:00008900       ??_C@_0CC@FIFFDAB@?$CFd?5input?5args?5expected?0?5?$CFd?5passe@ 1004a900     encnipcim.obj
 0002:00008928       ??_C@_0BN@JIEFLHEB@?$CFs?3?5Too?5many?5M?5series?5boards?$AA@ 1004a928     encnipcim.obj
 0002:00008950       ??_C@_0ED@LKHIFFLC@Wrong?5number?5of?5input?5arguments?5@ 1004a950     danipcim.obj
 0002:000089a0       ??_C@_0DB@HFHLNKLE@Channel?5?$CFd?5exceeds?5the?5max?5DA?5ch@ 1004a9a0     danipcim.obj
 0002:000089dc       ??_C@_0CL@GCJHHCMG@Output?5range?5?$CFd?5is?5not?5supported@ 1004a9dc     danipcim.obj
 0002:00008a10       ??_C@_0CI@FOFDKLAN@NI?5?$CFs?3?5Can?8t?5allocate?5temporary?5@ 1004aa10     adnipcim.obj
 0002:00008a40       ??_C@_0CK@PIIIKEIH@NI?5M?5series?3?5Channel?5?$CFf?5out?5of?5r@ 1004aa40     adnipcim.obj
 0002:00008a74       ??_C@_0CF@LKNEFAOG@NI?5M?5series?3?5Timeout?5waiting?5for@ 1004aa74     adnipcim.obj
 0002:00008aa0       __real@417312d000000000    1004aaa0     adnipcim.obj
 0002:00008aac       ??_C@_0M@IMCLKBPP@NI?5PCI?96220?$AA@ 1004aaac     xpcionim.obj
 0002:00008abc       ??_C@_0M@JFDAJALO@NI?5PCI?96221?$AA@ 1004aabc     xpcionim.obj
 0002:00008acc       ??_C@_0P@NGCDCNKM@NI?5PCI?96221?137?$AA@ 1004aacc     xpcionim.obj
 0002:00008ae0       ??_C@_0M@OIEHGEPL@NI?5PCI?96224?$AA@ 1004aae0     xpcionim.obj
 0002:00008af0       ??_C@_0M@PBFMFFLK@NI?5PCI?96225?$AA@ 1004aaf0     xpcionim.obj
 0002:00008b00       ??_C@_0M@FNOJBKLG@NI?5PCI?96229?$AA@ 1004ab00     xpcionim.obj
 0002:00008b10       ??_C@_0M@INOJMLMI@NI?5PCI?96230?$AA@ 1004ab10     xpcionim.obj
 0002:00008b20       ??_C@_0M@LPNPKJEK@NI?5PCI?96232?$AA@ 1004ab20     xpcionim.obj
 0002:00008b30       ??_C@_0M@KGMEJIAL@NI?5PCI?96233?$AA@ 1004ab30     xpcionim.obj
 0002:00008b40       ??_C@_0M@NLLDGMEO@NI?5PCI?96236?$AA@ 1004ab40     xpcionim.obj
 0002:00008b50       ??_C@_0M@EFDAEBMA@NI?5PCI?96238?$AA@ 1004ab50     xpcionim.obj
 0002:00008b60       ??_C@_0M@FMCLHAIB@NI?5PCI?96239?$AA@ 1004ab60     xpcionim.obj
 0002:00008b70       ??_C@_0M@IJGELHHK@NI?5PCI?96250?$AA@ 1004ab70     xpcionim.obj
 0002:00008b80       ??_C@_0M@JAHPIGDL@NI?5PCI?96251?$AA@ 1004ab80     xpcionim.obj
 0002:00008b90       ??_C@_0M@ONAIHCHO@NI?5PCI?96254?$AA@ 1004ab90     xpcionim.obj
 0002:00008ba0       ??_C@_0M@PEBDEDDP@NI?5PCI?96255?$AA@ 1004aba0     xpcionim.obj
 0002:00008bb0       ??_C@_0M@FIKGAMDD@NI?5PCI?96259?$AA@ 1004abb0     xpcionim.obj
 0002:00008bc0       ??_C@_0M@IBLMCECJ@NI?5PCI?96280?$AA@ 1004abc0     xpcionim.obj
 0002:00008bd0       ??_C@_0M@JIKHBFGI@NI?5PCI?96281?$AA@ 1004abd0     xpcionim.obj
 0002:00008be0       ??_C@_0M@OFNAOBCN@NI?5PCI?96284?$AA@ 1004abe0     xpcionim.obj
 0002:00008bf0       ??_C@_0M@FAHOJPGA@NI?5PCI?96289?$AA@ 1004abf0     xpcionim.obj
 0002:00008c00       ??_C@_0CI@NFFNBHJA@?$CFs?5?$CIbus?5?$CFd?0?5slot?5?$CFd?$CJ?3?5board?5not?5@ 1004ac00     xpcionim.obj
 0002:00008c30       ??_C@_0CD@MBDNCLAI@NI?5M?5series?3?5Unknown?5board?5type?5@ 1004ac30     xpcionim.obj
 0002:00008c5c       ??_C@_0CC@DMFKNLL@VendorId?5?$DN?50x?$CFx?0?5DeviceId?5?$DN?50x?$CFx@ 1004ac5c     xpcruntime:xpcimports.obj
 0002:00008c80       ??_C@_0DH@OHCBLNMG@Subsystem?5Device?5ID?5?$DN?50x?$CFx?6Subsy@ 1004ac80     xpcruntime:xpcimports.obj
 0002:00008cb8       ??_C@_0BD@MMMMEFCM@Class?5Code?5?$DN?50x?$CFx?6?$AA@ 1004acb8     xpcruntime:xpcimports.obj
 0002:00008ccc       ??_C@_0BE@OLDDDNHM@InterruptLine?5?$DN?5?$CFd?6?$AA@ 1004accc     xpcruntime:xpcimports.obj
 0002:00008ce0       ??_C@_0BF@OLKLEKBD@bus?5?$DN?5?$CFd?0?5slot?5?$DN?5?$CFd?6?$AA@ 1004ace0     xpcruntime:xpcimports.obj
 0002:00008cf8       ??_C@_0CE@DGLLGDFH@?5?5?5?5Phys?5?5?5Virtual?5?5?5Length?5IO?1M@ 1004acf8     xpcruntime:xpcimports.obj
 0002:00008d1c       ??_C@_0BI@FEOPLEMG@?$CF08x?5?$CF08x?5?$CF08x?5?5?5?5?5?5?$CFc?6?$AA@ 1004ad1c     xpcruntime:xpcimports.obj
 0002:00008d34       ??_C@_0BB@BNNCEDPC@rl32eScopeExists?$AA@ 1004ad34     xpcruntime:xpcimports.obj
 0002:00008d48       ??_C@_0BM@FJBFEGFG@rl32eScopeExists?5not?5found?6?$AA@ 1004ad48     xpcruntime:xpcimports.obj
 0002:00008d64       ??_C@_0O@BNNGKJEA@rl32eDefScope?$AA@ 1004ad64     xpcruntime:xpcimports.obj
 0002:00008d74       ??_C@_0BJ@CDNOENKA@rl32eDefScope?5not?5found?6?$AA@ 1004ad74     xpcruntime:xpcimports.obj
 0002:00008d90       ??_C@_0P@CKNKILDP@rl32eAddSignal?$AA@ 1004ad90     xpcruntime:xpcimports.obj
 0002:00008da0       ??_C@_0BK@GMJAJBAI@rl32eAddSignal?5not?5found?6?$AA@ 1004ada0     xpcruntime:xpcimports.obj
 0002:00008dbc       ??_C@_0BB@LDMIHGCE@rl32eGetSignalNo?$AA@ 1004adbc     xpcruntime:xpcimports.obj
 0002:00008dd0       ??_C@_0BM@LGAMBAID@rl32eGetSignalNo?5not?5found?6?$AA@ 1004add0     xpcruntime:xpcimports.obj
 0002:00008dec       ??_C@_0O@CFDGALBP@rl32eSetScope?$AA@ 1004adec     xpcruntime:xpcimports.obj
 0002:00008dfc       ??_C@_0BJ@JCLHHIN@rl32eSetScope?5not?5found?6?$AA@ 1004adfc     xpcruntime:xpcimports.obj
 0002:00008e18       ??_C@_0P@IKMCBMHH@xpceFSScopeSet?$AA@ 1004ae18     xpcruntime:xpcimports.obj
 0002:00008e28       ??_C@_0BK@JODJPNNH@xpceFSScopeSet?5not?5found?6?$AA@ 1004ae28     xpcruntime:xpcimports.obj
 0002:00008e44       ??_C@_0BE@DLACEEJM@rl32eSetTargetScope?$AA@ 1004ae44     xpcruntime:xpcimports.obj
 0002:00008e58       ??_C@_0BP@JCHFMKPJ@rl32eSetTargetScope?5not?5found?6?$AA@ 1004ae58     xpcruntime:xpcimports.obj
 0002:00008e78       ??_C@_0BJ@LIDLNDHC@rl32eSetTargetScopeSigFt?$AA@ 1004ae78     xpcruntime:xpcimports.obj
 0002:00008e94       ??_C@_0CE@JLGHCFHI@rl32eSetTargetScopeSigFt?5not?5fou@ 1004ae94     xpcruntime:xpcimports.obj
 0002:00008eb8       ??_C@_0BI@JAPOIDNG@rl32eRestartAcquisition?$AA@ 1004aeb8     xpcruntime:xpcimports.obj
 0002:00008ed0       ??_C@_0CD@LLBEFFBO@rl32eRestartAcquisition?5not?5foun@ 1004aed0     xpcruntime:xpcimports.obj
 0002:00008ef4       ??_C@_0P@IEIIADJB@xpceScopeAcqOK?$AA@ 1004aef4     xpcruntime:xpcimports.obj
 0002:00008f04       ??_C@_0BK@NJCKNFPN@xpceScopeAcqOK?5not?5found?6?$AA@ 1004af04     xpcruntime:xpcimports.obj
 0002:00008f20       ??_C@_0BA@IJINKAHF@xpceRegisterISR?$AA@ 1004af20     xpcruntime:xpcimports.obj
 0002:00008f30       ??_C@_0BL@NNDLOEJE@xpceRegisterISR?5not?5found?6?$AA@ 1004af30     xpcruntime:xpcimports.obj
 0002:00008f4c       ??_C@_0BC@NLBADGKF@xpceDeRegisterISR?$AA@ 1004af4c     xpcruntime:xpcimports.obj
 0002:00008f60       ??_C@_0BN@DCAIKFFD@xpceDeRegisterISR?5not?5found?6?$AA@ 1004af60     xpcruntime:xpcimports.obj
 0002:00008f80       ??_C@_0P@CPGPNKEB@xpceFTReadTime?$AA@ 1004af80     xpcruntime:xpcimports.obj
 0002:00008f90       ??_C@_0BK@NMABIODN@xpceFTReadTime?5not?5found?6?$AA@ 1004af90     xpcruntime:xpcimports.obj
 0002:00008fac       ??_C@_09PHNHCHFH@xpceFTAdd?$AA@ 1004afac     xpcruntime:xpcimports.obj
 0002:00008fb8       ??_C@_0BF@FJLEIILA@xpceFTAdd?5not?5found?6?$AA@ 1004afb8     xpcruntime:xpcimports.obj
 0002:00008fd0       ??_C@_0P@KEODBLHO@xpceFTSubtract?$AA@ 1004afd0     xpcruntime:xpcimports.obj
 0002:00008fe0       ??_C@_0BK@HONODOKP@xpceFTSubtract?5not?5found?6?$AA@ 1004afe0     xpcruntime:xpcimports.obj
 0002:00008ffc       ??_C@_07JPMEPILD@xpcInpB?$AA@ 1004affc     xpcruntime:xpcimports.obj
 0002:00009004       ??_C@_0BD@PGABEJOL@xpcInpB?5not?5found?6?$AA@ 1004b004     xpcruntime:xpcimports.obj
 0002:00009018       ??_C@_07KIHBBOKH@xpcInpW?$AA@ 1004b018     xpcruntime:xpcimports.obj
 0002:00009020       ??_C@_0BD@FPCJFMCC@xpcInpW?5not?5found?6?$AA@ 1004b020     xpcruntime:xpcimports.obj
 0002:00009034       ??_C@_08KDIAJBOP@xpcInpDW?$AA@ 1004b034     xpcruntime:xpcimports.obj
 0002:00009040       ??_C@_0BE@PIELDNIL@xpcInpDW?5not?5found?6?$AA@ 1004b040     xpcruntime:xpcimports.obj
 0002:00009054       ??_C@_08PJFMOIGO@xpcOutpB?$AA@ 1004b054     xpcruntime:xpcimports.obj
 0002:00009060       ??_C@_0BE@HCKNCEKF@xpcOutpB?5not?5found?6?$AA@ 1004b060     xpcruntime:xpcimports.obj
 0002:00009074       ??_C@_08MOOJAOHK@xpcOutpW?$AA@ 1004b074     xpcruntime:xpcimports.obj
 0002:00009080       ??_C@_0BE@NLIFDBGM@xpcOutpW?5not?5found?6?$AA@ 1004b080     xpcruntime:xpcimports.obj
 0002:00009094       ??_C@_09FLIEKHJG@xpcOutpDW?$AA@ 1004b094     xpcruntime:xpcimports.obj
 0002:000090a0       ??_C@_0BF@GJKLPNHB@xpcOutpDW?5not?5found?6?$AA@ 1004b0a0     xpcruntime:xpcimports.obj
 0002:000090b8       ??_C@_0BH@EHOLELHH@xpcReserveMemoryRegion?$AA@ 1004b0b8     xpcruntime:xpcimports.obj
 0002:000090d0       ??_C@_0CC@KAAAGPI@xpcReserveMemoryRegion?5not?5found@ 1004b0d0     xpcruntime:xpcimports.obj
 0002:000090f4       ??_C@_0BA@JGPMHGAF@rl32eShowPCIDev?$AA@ 1004b0f4     xpcruntime:xpcimports.obj
 0002:00009104       ??_C@_0BL@DDFFLNHI@rl32eShowPCIDev?5not?5found?6?$AA@ 1004b104     xpcruntime:xpcimports.obj
 0002:00009120       ??_C@_0BB@KBCOJPFB@rl32eShowPCIInfo?$AA@ 1004b120     xpcruntime:xpcimports.obj
 0002:00009134       ??_C@_0BM@IFDMAGLO@rl32eShowPCIInfo?5not?5found?6?$AA@ 1004b134     xpcruntime:xpcimports.obj
 0002:00009150       ??_C@_0BA@BGPAADB@rl32eGetPCIInfo?$AA@ 1004b150     xpcruntime:xpcimports.obj
 0002:00009160       ??_C@_0BL@IGOMLDCK@rl32eGetPCIInfo?5not?5found?6?$AA@ 1004b160     xpcruntime:xpcimports.obj
 0002:0000917c       ??_C@_0BG@NJPFKFDP@rl32eGetPCIInfoAtSlot?$AA@ 1004b17c     xpcruntime:xpcimports.obj
 0002:00009194       ??_C@_0CB@BBKIPMLA@rl32eGetPCIInfoAtSlot?5not?5found?6@ 1004b194     xpcruntime:xpcimports.obj
 0002:000091b8       ??_C@_0BH@OKBOPNFG@xpceAssignPCIInterrupt?$AA@ 1004b1b8     xpcruntime:xpcimports.obj
 0002:000091d0       ??_C@_0CC@CDNDNJBJ@xpceAssignPCIInterrupt?5not?5found@ 1004b1d0     xpcruntime:xpcimports.obj
 0002:000091f4       ??_C@_0BB@FCHHFAAH@rl32eInitCOMPort?$AA@ 1004b1f4     xpcruntime:xpcimports.obj
 0002:00009208       ??_C@_0BM@DDJGKAHB@rl32eInitCOMPort?5not?5found?6?$AA@ 1004b208     xpcruntime:xpcimports.obj
 0002:00009224       ??_C@_0BC@CHEEFCP@rl32eCloseCOMPort?$AA@ 1004b224     xpcruntime:xpcimports.obj
 0002:00009238       ??_C@_0BN@KCOFELEM@rl32eCloseCOMPort?5not?5found?6?$AA@ 1004b238     xpcruntime:xpcimports.obj
 0002:00009258       ??_C@_0O@LLJGKFOG@rl32eSendChar?$AA@ 1004b258     xpcruntime:xpcimports.obj
 0002:00009268       ??_C@_0BJ@JCJKDACJ@rl32eSendChar?5not?5found?6?$AA@ 1004b268     xpcruntime:xpcimports.obj
 0002:00009284       ??_C@_0BB@OMFKCOEK@rl32eReceiveChar?$AA@ 1004b284     xpcruntime:xpcimports.obj
 0002:00009298       ??_C@_0BM@HGAIOAND@rl32eReceiveChar?5not?5found?6?$AA@ 1004b298     xpcruntime:xpcimports.obj
 0002:000092b4       ??_C@_0BI@PKEJFHMJ@rl32eReceiveBufferCount?$AA@ 1004b2b4     xpcruntime:xpcimports.obj
 0002:000092cc       ??_C@_0CD@LNMOFLAH@rl32eReceiveBufferCount?5not?5foun@ 1004b2cc     xpcruntime:xpcimports.obj
 0002:000092f0       ??_C@_0BA@CFIJOJPK@rl32eLineStatus?$AA@ 1004b2f0     xpcruntime:xpcimports.obj
 0002:00009300       ??_C@_0BL@PLIDKKGI@rl32eLineStatus?5not?5found?6?$AA@ 1004b300     xpcruntime:xpcimports.obj
 0002:0000931c       ??_C@_0P@MDMKIJF@rl32eSendBlock?$AA@ 1004b31c     xpcruntime:xpcimports.obj
 0002:0000932c       ??_C@_0BK@KNBNFIKH@rl32eSendBlock?5not?5found?6?$AA@ 1004b32c     xpcruntime:xpcimports.obj
 0002:00009348       ??_C@_0BD@PCKOKHO@xpceGetSignalValue?$AA@ 1004b348     xpcruntime:xpcimports.obj
 0002:0000935c       ??_C@_0BO@GCBDJHMB@xpceGetSignalValue?5not?5found?6?$AA@ 1004b35c     xpcruntime:xpcimports.obj
 0002:0000937c       ??_C@_0BB@BJONJAGA@xpceSetParameter?$AA@ 1004b37c     xpcruntime:xpcimports.obj
 0002:00009390       ??_C@_0BM@BJIKDLHA@xpceSetParameter?5not?5found?6?$AA@ 1004b390     xpcruntime:xpcimports.obj
 0002:000093ac       ??_C@_0BB@GNFDFMCM@xpceGetParameter?$AA@ 1004b3ac     xpcruntime:xpcimports.obj
 0002:000093c0       ??_C@_0BM@POHNKBC@xpceGetParameter?5not?5found?6?$AA@ 1004b3c0     xpcruntime:xpcimports.obj
 0002:000093dc       ??_C@_0BB@CEIJLFCD@xpceGetParamDims?$AA@ 1004b3dc     xpcruntime:xpcimports.obj
 0002:000093f0       ??_C@_0BM@OABDBKAO@xpceGetParamDims?5not?5found?6?$AA@ 1004b3f0     xpcruntime:xpcimports.obj
 0002:0000940c       ??_C@_0L@OCBLLHBM@xpceGetTET?$AA@ 1004b40c     xpcruntime:xpcimports.obj
 0002:00009418       ??_C@_0BG@HNOFBOB@xpceGetTET?5not?5found?6?$AA@ 1004b418     xpcruntime:xpcimports.obj
 0002:00009430       ??_C@_0BA@FHMIOKFL@xpceUDPOpenSend?$AA@ 1004b430     xpcruntime:xpcimports.obj
 0002:00009440       ??_C@_0BL@HNLPFEK@xpceUDPOpenSend?5not?5found?6?$AA@ 1004b440     xpcruntime:xpcimports.obj
 0002:0000945c       ??_C@_0BD@BCELJJJL@xpceUDPOpenReceive?$AA@ 1004b45c     xpcruntime:xpcimports.obj
 0002:00009470       ??_C@_0BO@IFKJBHKC@xpceUDPOpenReceive?5not?5found?6?$AA@ 1004b470     xpcruntime:xpcimports.obj
 0002:00009490       ??_C@_0M@OFPFLJGN@xpceUDPSend?$AA@ 1004b490     xpcruntime:xpcimports.obj
 0002:0000949c       ??_C@_0BH@NOIKLPAB@xpceUDPSend?5not?5found?6?$AA@ 1004b49c     xpcruntime:xpcimports.obj
 0002:000094b4       ??_C@_0P@PLFDECIN@xpceUDPReceive?$AA@ 1004b4b4     xpcruntime:xpcimports.obj
 0002:000094c4       ??_C@_0BK@OPJMLDLH@xpceUDPReceive?5not?5found?6?$AA@ 1004b4c4     xpcruntime:xpcimports.obj
 0002:000094e0       ??_C@_0N@IEHPMFME@xpceUDPClose?$AA@ 1004b4e0     xpcruntime:xpcimports.obj
 0002:000094f0       ??_C@_0BI@FHPFHECO@xpceUDPClose?5not?5found?6?$AA@ 1004b4f0     xpcruntime:xpcimports.obj
 0002:00009508       ??_C@_0P@OKGNGAGH@xpcIsModelInit?$AA@ 1004b508     xpcruntime:xpcimports.obj
 0002:00009518       ??_C@_0BK@DHEMLBIM@xpcIsModelInit?5not?5found?6?$AA@ 1004b518     xpcruntime:xpcimports.obj
 0002:00009534       ??_C@_0BH@KJJLCAOJ@xpcAllocPhysicalMemory?$AA@ 1004b534     xpcruntime:xpcimports.obj
 0002:0000954c       ??_C@_0CC@MOJPNHKL@xpcAllocPhysicalMemory?5not?5found@ 1004b54c     xpcruntime:xpcimports.obj
 0002:00009570       ??_C@_0BG@CBNPGAEL@xpcFreePhysicalMemory?$AA@ 1004b570     xpcruntime:xpcimports.obj
 0002:00009588       ??_C@_0CB@PKJEBPOG@xpcFreePhysicalMemory?5not?5found?6@ 1004b588     xpcruntime:xpcimports.obj
 0002:000095ac       ??_C@_0BC@JGKNLICL@xpcGetElapsedTime?$AA@ 1004b5ac     xpcruntime:xpcimports.obj
 0002:000095c0       ??_C@_0BN@OEOAHCIO@xpcGetElapsedTime?5not?5found?6?$AA@ 1004b5c0     xpcruntime:xpcimports.obj
 0002:000095e0       ??_C@_0M@ICBLMODA@xpcBusyWait?$AA@ 1004b5e0     xpcruntime:xpcimports.obj
 0002:000095ec       ??_C@_0BH@FBOPECBI@xpcBusyWait?5not?5found?6?$AA@ 1004b5ec     xpcruntime:xpcimports.obj
 0002:00009604       ??_C@_0N@LKKJEKKA@TBCreateSpin?$AA@ 1004b604     xpcruntime:xpcimports.obj
 0002:00009614       ??_C@_0BI@FHKMLKOE@TBCreateSpin?5not?5found?6?$AA@ 1004b614     xpcruntime:xpcimports.obj
 0002:0000962c       ??_C@_0N@HOAJHNBD@TBDeleteSpin?$AA@ 1004b62c     xpcruntime:xpcimports.obj
 0002:0000963c       ??_C@_0BI@BKCPAAG@TBDeleteSpin?5not?5found?6?$AA@ 1004b63c     xpcruntime:xpcimports.obj
 0002:00009654       ??_C@_0P@DAHDDBJG@TBTakeSpinFast?$AA@ 1004b654     xpcruntime:xpcimports.obj
 0002:00009664       ??_C@_0BK@NKAIBHGB@TBTakeSpinFast?5not?5found?6?$AA@ 1004b664     xpcruntime:xpcimports.obj
 0002:00009680       ??_C@_0P@FKNAAELA@TBGiveSpinFast?$AA@ 1004b680     xpcruntime:xpcimports.obj
 0002:00009690       ??_C@_0BK@KGPJBJND@TBGiveSpinFast?5not?5found?6?$AA@ 1004b690     xpcruntime:xpcimports.obj
 0002:000096ac       ??_C@_0BE@IIGBFDHK@xpceCreateSemaphore?$AA@ 1004b6ac     xpcruntime:xpcimports.obj
 0002:000096c0       ??_C@_0BP@KFBAFFKJ@xpceCreateSemaphore?5not?5found?6?$AA@ 1004b6c0     xpcruntime:xpcimports.obj
 0002:000096e0       ??_C@_0BC@IFNIONKJ@xpceWaitSemaphore?$AA@ 1004b6e0     xpcruntime:xpcimports.obj
 0002:000096f4       ??_C@_0BN@NMFAADIO@xpceWaitSemaphore?5not?5found?6?$AA@ 1004b6f4     xpcruntime:xpcimports.obj
 0002:00009714       ??_C@_0BE@NNDIOBKE@xpceSignalSemaphore?$AA@ 1004b714     xpcruntime:xpcimports.obj
 0002:00009728       ??_C@_0BP@LBANMHJP@xpceSignalSemaphore?5not?5found?6?$AA@ 1004b728     xpcruntime:xpcimports.obj
 0002:00009748       ??_C@_0BE@MEBEKOIM@xpceDeleteSemaphore?$AA@ 1004b748     xpcruntime:xpcimports.obj
 0002:0000975c       ??_C@_0BP@OFNCKOJH@xpceDeleteSemaphore?5not?5found?6?$AA@ 1004b75c     xpcruntime:xpcimports.obj
 0002:0000977c       ??_C@_0BD@MFNDMBOF@FindUsbVideoDevice?$AA@ 1004b77c     xpcruntime:xpcimports.obj
 0002:00009790       ??_C@_0BO@POKLDHMI@FindUsbVideoDevice?5not?5found?6?$AA@ 1004b790     xpcruntime:xpcimports.obj
 0002:000097b0       ??_C@_0BA@PLPAPNAB@GetVideoConfigs?$AA@ 1004b7b0     xpcruntime:xpcimports.obj
 0002:000097c0       ??_C@_0BL@DALDHKHC@GetVideoConfigs?5not?5found?6?$AA@ 1004b7c0     xpcruntime:xpcimports.obj
 0002:000097dc       ??_C@_0L@GBAEMHMH@StartVideo?$AA@ 1004b7dc     xpcruntime:xpcimports.obj
 0002:000097e8       ??_C@_0BG@HDCELEBP@StartVideo?5not?5found?6?$AA@ 1004b7e8     xpcruntime:xpcimports.obj
 0002:00009800       ??_C@_0BA@FDNPOCLN@ReadFrameBuffer?$AA@ 1004b800     xpcruntime:xpcimports.obj
 0002:00009810       ??_C@_0BL@JHGHPNBI@ReadFrameBuffer?5not?5found?6?$AA@ 1004b810     xpcruntime:xpcimports.obj
 0002:0000982c       ??_C@_09FAHCLKAG@StopVideo?$AA@ 1004b82c     xpcruntime:xpcimports.obj
 0002:00009838       ??_C@_0BF@NKGKKADL@StopVideo?5not?5found?6?$AA@ 1004b838     xpcruntime:xpcimports.obj
 0002:00009850       ??_C@_0O@MCPKDLLL@ConvertUImage?$AA@ 1004b850     xpcruntime:xpcimports.obj
 0002:00009860       ??_C@_0BJ@PHJKOAFL@ConvertUImage?5not?5found?6?$AA@ 1004b860     xpcruntime:xpcimports.obj
 0002:0000987c       ??_C@_0BD@NKCBPBJJ@CreateVideoDisplay?$AA@ 1004b87c     xpcruntime:xpcimports.obj
 0002:00009890       ??_C@_0BO@HPPLLNFP@CreateVideoDisplay?5not?5found?6?$AA@ 1004b890     xpcruntime:xpcimports.obj
 0002:000098b0       ??_C@_0BE@KJCKGPHA@DestroyVideoDisplay?$AA@ 1004b8b0     xpcruntime:xpcimports.obj
 0002:000098c4       ??_C@_0BP@FMGLJAIJ@DestroyVideoDisplay?5not?5found?6?$AA@ 1004b8c4     xpcruntime:xpcimports.obj
 0002:000098e4       ??_C@_0BC@HCMIMIDN@StartVideoDisplay?$AA@ 1004b8e4     xpcruntime:xpcimports.obj
 0002:000098f8       ??_C@_0BN@EFIEBGOO@StartVideoDisplay?5not?5found?6?$AA@ 1004b8f8     xpcruntime:xpcimports.obj
 0002:00009918       ??_C@_0BB@JBBLMILG@StopVideoDisplay?$AA@ 1004b918     xpcruntime:xpcimports.obj
 0002:0000992c       ??_C@_0BM@DBJBPLEL@StopVideoDisplay?5not?5found?6?$AA@ 1004b92c     xpcruntime:xpcimports.obj
 0002:00009948       ??_C@_0M@MFJEGMHC@StreamVideo?$AA@ 1004b948     xpcruntime:xpcimports.obj
 0002:00009954       ??_C@_0BH@OINCDMLA@StreamVideo?5not?5found?6?$AA@ 1004b954     xpcruntime:xpcimports.obj
 0002:0000996c       ??_C@_0N@IGGLCIGE@xpceaddEvent?$AA@ 1004b96c     xpcruntime:xpcimports.obj
 0002:0000997c       ??_C@_0BI@NHJNFMKH@xpceaddEvent?5not?5found?6?$AA@ 1004b97c     xpcruntime:xpcimports.obj
 0002:00009994       ??_C@_0BB@LCMHHHFN@getMemoryService?$AA@ 1004b994     xpcruntime:xpcimports.obj
 0002:000099a8       ??_C@_0BM@MPLCNIIE@getMemoryService?5not?5found?6?$AA@ 1004b9a8     xpcruntime:xpcimports.obj
 0002:000099c4       ??_C@_0P@KIKONDKK@getCommService?$AA@ 1004b9c4     xpcruntime:xpcimports.obj
 0002:000099d4       ??_C@_0BK@NCECBKNM@getCommService?5not?5found?6?$AA@ 1004b9d4     xpcruntime:xpcimports.obj
 0002:000099f0       ??_C@_0P@GDLHFECE@getStatusFlags?$AA@ 1004b9f0     xpcruntime:xpcimports.obj
 0002:00009a00       ??_C@_0BK@NEKDLJHG@getStatusFlags?5not?5found?6?$AA@ 1004ba00     xpcruntime:xpcimports.obj
 0002:00009a1c       ??_C@_0BL@CDFCLKOL@startToAsyncQueueTgtAppSvc?$AA@ 1004ba1c     xpcruntime:xpcimports.obj
 0002:00009a38       ??_C@_0CG@JGOFFKEL@startToAsyncQueueTgtAppSvc?5not?5f@ 1004ba38     xpcruntime:xpcimports.obj
 0002:00009a60       ??_C@_0BP@IJNGPPPE@terminateToAsyncQueueTgtAppSvc?$AA@ 1004ba60     xpcruntime:xpcimports.obj
 0002:00009a80       ??_C@_0CK@NDEMAMKF@terminateToAsyncQueueTgtAppSvc?5n@ 1004ba80     xpcruntime:xpcimports.obj
 0002:00009aac       ??_C@_0BK@IDACEHAO@sendToAsyncQueueTgtAppSvc?$AA@ 1004baac     xpcruntime:xpcimports.obj
 0002:00009ac8       ??_C@_0CF@PNCKPEHN@sendToAsyncQueueTgtAppSvc?5not?5fo@ 1004bac8     xpcruntime:xpcimports.obj
 0002:00009af0       ??_C@_0BN@HJOHIFOM@xpceGetIntTimerGranularityNS?$AA@ 1004baf0     xpcruntime:xpcimports.obj
 0002:00009b10       ??_C@_0CI@OADDPMKB@xpceGetIntTimerGranularityNS?5not@ 1004bb10     xpcruntime:xpcimports.obj
 0002:00009b38       ??_C@_0BG@CCHICKPN@slrteSetStepSizeDelta?$AA@ 1004bb38     xpcruntime:xpcimports.obj
 0002:00009b50       ??_C@_0CB@MKHINEIJ@slrteSetStepSizeDelta?5not?5found?6@ 1004bb50     xpcruntime:xpcimports.obj
 0002:00009b74       ??_C@_0BI@CLNBLDKJ@slrteGetCurrentStepSize?$AA@ 1004bb74     xpcruntime:xpcimports.obj
 0002:00009b8c       ??_C@_0CD@GIOJPGJA@slrteGetCurrentStepSize?5not?5foun@ 1004bb8c     xpcruntime:xpcimports.obj
 0002:00009bb0       ??_C@_0BE@FCLCBOC@registerPTPTimeRead?$AA@ 1004bbb0     xpcruntime:xpcimports.obj
 0002:00009bc4       ??_C@_0BP@LHPKAJIP@registerPTPTimeRead?5not?5found?6?$AA@ 1004bbc4     xpcruntime:xpcimports.obj
 0002:00009be4       ??_C@_0BG@KIGCDDJI@unRegisterPTPTimeRead?$AA@ 1004bbe4     xpcruntime:xpcimports.obj
 0002:00009bfc       ??_C@_0CB@MLFFBFCM@unRegisterPTPTimeRead?5not?5found?6@ 1004bbfc     xpcruntime:xpcimports.obj
 0002:00009c20       ??_C@_0BB@IPMDDBHK@slTestInitialize?$AA@ 1004bc20     xpcruntime:xpcimports.obj
 0002:00009c34       ??_C@_0BM@LAJFCCJH@slTestInitialize?5not?5found?6?$AA@ 1004bc34     xpcruntime:xpcimports.obj
 0002:00009c50       ??_C@_0BF@OOMPMEBC@slTestLogAssessments?$AA@ 1004bc50     xpcruntime:xpcimports.obj
 0002:00009c68       ??_C@_0CA@FGJCEBAG@slTestLogAssessments?5not?5found?6?$AA@ 1004bc68     xpcruntime:xpcimports.obj
 0002:00009c88       ??_C@_0BB@HJHKONHO@slTestEvalOnFail?$AA@ 1004bc88     xpcruntime:xpcimports.obj
 0002:00009c9c       ??_C@_0BM@JIKCFFNJ@slTestEvalOnFail?5not?5found?6?$AA@ 1004bc9c     xpcruntime:xpcimports.obj
 0002:00009cb8       ??_C@_0BA@LBHLABFP@slTestTerminate?$AA@ 1004bcb8     xpcruntime:xpcimports.obj
 0002:00009cc8       ??_C@_0BL@EMFGKAPA@slTestTerminate?5not?5found?6?$AA@ 1004bcc8     xpcruntime:xpcimports.obj
 0002:00009ce4       ??_C@_0BE@JPNPBBEO@slTestRegAssessment?$AA@ 1004bce4     xpcruntime:xpcimports.obj
 0002:00009cf8       ??_C@_0BP@FBDEJJJH@slTestRegAssessment?5not?5found?6?$AA@ 1004bcf8     xpcruntime:xpcimports.obj
 0002:0000d688       __FPinit                   1004f688     LIBCMT:fpinit.obj
 0002:0000d694       ??_C@_1BI@BGOHAHKC@?$AAm?$AAs?$AAc?$AAo?$AAr?$AAe?$AAe?$AA?4?$AAd?$AAl?$AAl?$AA?$AA@ 1004f694     LIBCMT:crt0dat.obj
 0002:0000d6ac       ??_C@_0P@MIGLKIOC@CorExitProcess?$AA@ 1004f6ac     LIBCMT:crt0dat.obj
 0002:0000d744       ??_C@_17LGKOMLJ@?$AA?4?$AA?4?$AA?4?$AA?$AA@ 1004f744     LIBCMT:wassert.obj
 0002:0000d74c       ??_C@_13LBAGMAIH@?$AA?6?$AA?$AA@ 1004f74c     LIBCMT:wassert.obj
 0002:0000d750       ??_C@_15IABLJNFO@?$AA?6?$AA?6?$AA?$AA@ 1004f750     LIBCMT:wassert.obj
 0002:0000d758       ??_C@_1CE@OJBNHDMO@?$AAA?$AAs?$AAs?$AAe?$AAr?$AAt?$AAi?$AAo?$AAn?$AA?5?$AAf?$AAa?$AAi?$AAl?$AAe?$AAd?$AA?$CB?$AA?$AA@ 1004f758     LIBCMT:wassert.obj
 0002:0000d77c       ??_C@_1BE@PHKBBGE@?$AAP?$AAr?$AAo?$AAg?$AAr?$AAa?$AAm?$AA?3?$AA?5?$AA?$AA@ 1004f77c     LIBCMT:wassert.obj
 0002:0000d790       ??_C@_1CO@EAEJAADC@?$AA?$DM?$AAp?$AAr?$AAo?$AAg?$AAr?$AAa?$AAm?$AA?5?$AAn?$AAa?$AAm?$AAe?$AA?5?$AAu?$AAn?$AAk?$AAn?$AAo?$AAw?$AAn?$AA?$DO?$AA?$AA@ 1004f790     LIBCMT:wassert.obj
 0002:0000d7c0       ??_C@_1O@HEMHKNDC@?$AAF?$AAi?$AAl?$AAe?$AA?3?$AA?5?$AA?$AA@ 1004f7c0     LIBCMT:wassert.obj
 0002:0000d7d0       ??_C@_1O@KCAFKHJE@?$AAL?$AAi?$AAn?$AAe?$AA?3?$AA?5?$AA?$AA@ 1004f7d0     LIBCMT:wassert.obj
 0002:0000d7e0       ??_C@_1BK@PEDCIPMA@?$AAE?$AAx?$AAp?$AAr?$AAe?$AAs?$AAs?$AAi?$AAo?$AAn?$AA?3?$AA?5?$AA?$AA@ 1004f7e0     LIBCMT:wassert.obj
 0002:0000d800       ??_C@_1OA@EGMLFBHJ@?$AAF?$AAo?$AAr?$AA?5?$AAi?$AAn?$AAf?$AAo?$AAr?$AAm?$AAa?$AAt?$AAi?$AAo?$AAn?$AA?5?$AAo?$AAn?$AA?5?$AAh?$AAo?$AAw?$AA?5?$AAy?$AAo?$AAu?$AAr?$AA?5?$AAp?$AAr?$AAo?$AAg@ 1004f800     LIBCMT:wassert.obj
 0002:0000d8e0       ??_C@_1HK@POCJMFGK@?$AA?$CI?$AAP?$AAr?$AAe?$AAs?$AAs?$AA?5?$AAR?$AAe?$AAt?$AAr?$AAy?$AA?5?$AAt?$AAo?$AA?5?$AAd?$AAe?$AAb?$AAu?$AAg?$AA?5?$AAt?$AAh?$AAe?$AA?5?$AAa?$AAp?$AAp?$AAl?$AAi?$AAc@ 1004f8e0     LIBCMT:wassert.obj
 0002:0000d960       ??_C@_1EK@MBDPDCGA@?$AAM?$AAi?$AAc?$AAr?$AAo?$AAs?$AAo?$AAf?$AAt?$AA?5?$AAV?$AAi?$AAs?$AAu?$AAa?$AAl?$AA?5?$AAC?$AA?$CL?$AA?$CL?$AA?5?$AAR?$AAu?$AAn?$AAt?$AAi?$AAm?$AAe?$AA?5?$AAL?$AAi?$AAb@ 1004f960     LIBCMT:wassert.obj
 0002:0000d9ac       __pDefaultRawDllMain       1004f9ac     LIBCMT:dllcrt0.obj
 0002:0000d9ac       __pRawDllMain              1004f9ac     LIBCMT:dllcrt0.obj
 0002:0000d9b0       ?ProcessDetach@NativeDll@<CrtImplementationDetails>@@0IB 1004f9b0     LIBCMT:handler.obj
 0002:0000d9b4       ?ProcessAttach@NativeDll@<CrtImplementationDetails>@@0IB 1004f9b4     LIBCMT:handler.obj
 0002:0000d9b8       ?ThreadAttach@NativeDll@<CrtImplementationDetails>@@0IB 1004f9b8     LIBCMT:handler.obj
 0002:0000d9bc       ?ThreadDetach@NativeDll@<CrtImplementationDetails>@@0IB 1004f9bc     LIBCMT:handler.obj
 0002:0000d9c0       ?ProcessVerifier@NativeDll@<CrtImplementationDetails>@@0IB 1004f9c0     LIBCMT:handler.obj
 0002:0000da80       ??_C@_1FK@PGACCAFB@?$AAR?$AA6?$AA0?$AA0?$AA2?$AA?$AN?$AA?6?$AA?9?$AA?5?$AAf?$AAl?$AAo?$AAa?$AAt?$AAi?$AAn?$AAg?$AA?5?$AAp?$AAo?$AAi?$AAn?$AAt?$AA?5?$AAs?$AAu?$AAp?$AAp?$AAo?$AAr?$AAt?$AA?5@ 1004fa80     LIBCMT:crt0msg.obj
 0002:0000dae0       ??_C@_1FE@LLNEDJMD@?$AAR?$AA6?$AA0?$AA0?$AA8?$AA?$AN?$AA?6?$AA?9?$AA?5?$AAn?$AAo?$AAt?$AA?5?$AAe?$AAn?$AAo?$AAu?$AAg?$AAh?$AA?5?$AAs?$AAp?$AAa?$AAc?$AAe?$AA?5?$AAf?$AAo?$AAr?$AA?5?$AAa?$AAr@ 1004fae0     LIBCMT:crt0msg.obj
 0002:0000db38       ??_C@_1FI@HONFMGBI@?$AAR?$AA6?$AA0?$AA0?$AA9?$AA?$AN?$AA?6?$AA?9?$AA?5?$AAn?$AAo?$AAt?$AA?5?$AAe?$AAn?$AAo?$AAu?$AAg?$AAh?$AA?5?$AAs?$AAp?$AAa?$AAc?$AAe?$AA?5?$AAf?$AAo?$AAr?$AA?5?$AAe?$AAn@ 1004fb38     LIBCMT:crt0msg.obj
 0002:0000db90       ??_C@_1EG@BEHAGFJD@?$AAR?$AA6?$AA0?$AA1?$AA0?$AA?$AN?$AA?6?$AA?9?$AA?5?$AAa?$AAb?$AAo?$AAr?$AAt?$AA?$CI?$AA?$CJ?$AA?5?$AAh?$AAa?$AAs?$AA?5?$AAb?$AAe?$AAe?$AAn?$AA?5?$AAc?$AAa?$AAl?$AAl?$AAe?$AAd@ 1004fb90     LIBCMT:crt0msg.obj
 0002:0000dbd8       ??_C@_1FI@LOGNIKDM@?$AAR?$AA6?$AA0?$AA1?$AA6?$AA?$AN?$AA?6?$AA?9?$AA?5?$AAn?$AAo?$AAt?$AA?5?$AAe?$AAn?$AAo?$AAu?$AAg?$AAh?$AA?5?$AAs?$AAp?$AAa?$AAc?$AAe?$AA?5?$AAf?$AAo?$AAr?$AA?5?$AAt?$AAh@ 1004fbd8     LIBCMT:crt0msg.obj
 0002:0000dc30       ??_C@_1FK@BEOGODMC@?$AAR?$AA6?$AA0?$AA1?$AA7?$AA?$AN?$AA?6?$AA?9?$AA?5?$AAu?$AAn?$AAe?$AAx?$AAp?$AAe?$AAc?$AAt?$AAe?$AAd?$AA?5?$AAm?$AAu?$AAl?$AAt?$AAi?$AAt?$AAh?$AAr?$AAe?$AAa?$AAd?$AA?5@ 1004fc30     LIBCMT:crt0msg.obj
 0002:0000dc90       ??_C@_1EC@JIBHAOPH@?$AAR?$AA6?$AA0?$AA1?$AA8?$AA?$AN?$AA?6?$AA?9?$AA?5?$AAu?$AAn?$AAe?$AAx?$AAp?$AAe?$AAc?$AAt?$AAe?$AAd?$AA?5?$AAh?$AAe?$AAa?$AAp?$AA?5?$AAe?$AAr?$AAr?$AAo?$AAr?$AA?$AN?$AA?6@ 1004fc90     LIBCMT:crt0msg.obj
 0002:0000dcd8       ??_C@_1FC@ECHBIFBC@?$AAR?$AA6?$AA0?$AA1?$AA9?$AA?$AN?$AA?6?$AA?9?$AA?5?$AAu?$AAn?$AAa?$AAb?$AAl?$AAe?$AA?5?$AAt?$AAo?$AA?5?$AAo?$AAp?$AAe?$AAn?$AA?5?$AAc?$AAo?$AAn?$AAs?$AAo?$AAl?$AAe?$AA?5@ 1004fcd8     LIBCMT:crt0msg.obj
 0002:0000dd30       ??_C@_1GK@FHCKBEFA@?$AAR?$AA6?$AA0?$AA2?$AA4?$AA?$AN?$AA?6?$AA?9?$AA?5?$AAn?$AAo?$AAt?$AA?5?$AAe?$AAn?$AAo?$AAu?$AAg?$AAh?$AA?5?$AAs?$AAp?$AAa?$AAc?$AAe?$AA?5?$AAf?$AAo?$AAr?$AA?5?$AA_?$AAo@ 1004fd30     LIBCMT:crt0msg.obj
 0002:0000dda0       ??_C@_1EM@MAADIHMB@?$AAR?$AA6?$AA0?$AA2?$AA5?$AA?$AN?$AA?6?$AA?9?$AA?5?$AAp?$AAu?$AAr?$AAe?$AA?5?$AAv?$AAi?$AAr?$AAt?$AAu?$AAa?$AAl?$AA?5?$AAf?$AAu?$AAn?$AAc?$AAt?$AAi?$AAo?$AAn?$AA?5?$AAc@ 1004fda0     LIBCMT:crt0msg.obj
 0002:0000ddf0       ??_C@_1GK@MCAAGJMO@?$AAR?$AA6?$AA0?$AA2?$AA6?$AA?$AN?$AA?6?$AA?9?$AA?5?$AAn?$AAo?$AAt?$AA?5?$AAe?$AAn?$AAo?$AAu?$AAg?$AAh?$AA?5?$AAs?$AAp?$AAa?$AAc?$AAe?$AA?5?$AAf?$AAo?$AAr?$AA?5?$AAs?$AAt@ 1004fdf0     LIBCMT:crt0msg.obj
 0002:0000de60       ??_C@_1GK@MFGOKLAG@?$AAR?$AA6?$AA0?$AA2?$AA7?$AA?$AN?$AA?6?$AA?9?$AA?5?$AAn?$AAo?$AAt?$AA?5?$AAe?$AAn?$AAo?$AAu?$AAg?$AAh?$AA?5?$AAs?$AAp?$AAa?$AAc?$AAe?$AA?5?$AAf?$AAo?$AAr?$AA?5?$AAl?$AAo@ 1004fe60     LIBCMT:crt0msg.obj
 0002:0000ded0       ??_C@_1EK@HHFLMAOL@?$AAR?$AA6?$AA0?$AA2?$AA8?$AA?$AN?$AA?6?$AA?9?$AA?5?$AAu?$AAn?$AAa?$AAb?$AAl?$AAe?$AA?5?$AAt?$AAo?$AA?5?$AAi?$AAn?$AAi?$AAt?$AAi?$AAa?$AAl?$AAi?$AAz?$AAe?$AA?5?$AAh?$AAe@ 1004fed0     LIBCMT:crt0msg.obj
 0002:0000df1c       ??_C@_1DO@BMFCDCD@?$AAR?$AA6?$AA0?$AA3?$AA0?$AA?$AN?$AA?6?$AA?9?$AA?5?$AAC?$AAR?$AAT?$AA?5?$AAn?$AAo?$AAt?$AA?5?$AAi?$AAn?$AAi?$AAt?$AAi?$AAa?$AAl?$AAi?$AAz?$AAe?$AAd?$AA?$AN?$AA?6?$AA?$AA@ 1004ff1c     LIBCMT:crt0msg.obj
 0002:0000df60       ??_C@_1MG@ENCOOIDF@?$AAR?$AA6?$AA0?$AA3?$AA1?$AA?$AN?$AA?6?$AA?9?$AA?5?$AAA?$AAt?$AAt?$AAe?$AAm?$AAp?$AAt?$AA?5?$AAt?$AAo?$AA?5?$AAi?$AAn?$AAi?$AAt?$AAi?$AAa?$AAl?$AAi?$AAz?$AAe?$AA?5?$AAt@ 1004ff60     LIBCMT:crt0msg.obj
 0002:0000e028       ??_C@_1GG@GOPILAJP@?$AAR?$AA6?$AA0?$AA3?$AA2?$AA?$AN?$AA?6?$AA?9?$AA?5?$AAn?$AAo?$AAt?$AA?5?$AAe?$AAn?$AAo?$AAu?$AAg?$AAh?$AA?5?$AAs?$AAp?$AAa?$AAc?$AAe?$AA?5?$AAf?$AAo?$AAr?$AA?5?$AAl?$AAo@ 10050028     LIBCMT:crt0msg.obj
 0002:0000e090       ??_C@_1BOO@KGEDBGAJ@?$AAR?$AA6?$AA0?$AA3?$AA3?$AA?$AN?$AA?6?$AA?9?$AA?5?$AAA?$AAt?$AAt?$AAe?$AAm?$AAp?$AAt?$AA?5?$AAt?$AAo?$AA?5?$AAu?$AAs?$AAe?$AA?5?$AAM?$AAS?$AAI?$AAL?$AA?5?$AAc?$AAo?$AAd@ 10050090     LIBCMT:crt0msg.obj
 0002:0000e280       ??_C@_1GG@MKFPEKFO@?$AAR?$AA6?$AA0?$AA3?$AA4?$AA?$AN?$AA?6?$AA?9?$AA?5?$AAi?$AAn?$AAc?$AAo?$AAn?$AAs?$AAi?$AAs?$AAt?$AAe?$AAn?$AAt?$AA?5?$AAo?$AAn?$AAe?$AAx?$AAi?$AAt?$AA?5?$AAb?$AAe?$AAg@ 10050280     LIBCMT:crt0msg.obj
 0002:0000e2e8       ??_C@_1BO@BFCDCGC@?$AAD?$AAO?$AAM?$AAA?$AAI?$AAN?$AA?5?$AAe?$AAr?$AAr?$AAo?$AAr?$AA?$AN?$AA?6?$AA?$AA@ 100502e8     LIBCMT:crt0msg.obj
 0002:0000e308       ??_C@_1BK@KMOMNAAI@?$AAS?$AAI?$AAN?$AAG?$AA?5?$AAe?$AAr?$AAr?$AAo?$AAr?$AA?$AN?$AA?6?$AA?$AA@ 10050308     LIBCMT:crt0msg.obj
 0002:0000e324       ??_C@_1BM@JBBEPPHI@?$AAT?$AAL?$AAO?$AAS?$AAS?$AA?5?$AAe?$AAr?$AAr?$AAo?$AAr?$AA?$AN?$AA?6?$AA?$AA@ 10050324     LIBCMT:crt0msg.obj
 0002:0000e340       ??_C@_15JNBOKNOG@?$AA?$AN?$AA?6?$AA?$AA@ 10050340     LIBCMT:crt0msg.obj
 0002:0000e348       ??_C@_1BO@BKOMIGKJ@?$AAr?$AAu?$AAn?$AAt?$AAi?$AAm?$AAe?$AA?5?$AAe?$AAr?$AAr?$AAo?$AAr?$AA?5?$AA?$AA@ 10050348     LIBCMT:crt0msg.obj
 0002:0000e368       ??_C@_1DE@JNGNBFGO@?$AAR?$AAu?$AAn?$AAt?$AAi?$AAm?$AAe?$AA?5?$AAE?$AAr?$AAr?$AAo?$AAr?$AA?$CB?$AA?6?$AA?6?$AAP?$AAr?$AAo?$AAg?$AAr?$AAa?$AAm?$AA?3?$AA?5?$AA?$AA@ 10050368     LIBCMT:crt0msg.obj
 0002:0000e39c       ??_C@_06OJHGLDPL@?$CInull?$CJ?$AA@ 1005039c     LIBCMT:output.obj
 0002:0000e3a4       ??_C@_1O@CEDCILHN@?$AA?$CI?$AAn?$AAu?$AAl?$AAl?$AA?$CJ?$AA?$AA@ 100503a4     LIBCMT:output.obj
 0002:0000e3b8       ___lookuptable             100503b8     LIBCMT:output.obj
 0002:0000e480       ??_C@_03MGHMBJCF@log?$AA@  10050480     LIBCMT:libm_error.obj
 0002:0000e484       ??_C@_05HGHHAHAP@log10?$AA@ 10050484     LIBCMT:libm_error.obj
 0002:0000e48c       ??_C@_03KHJOGHMM@exp?$AA@  1005048c     LIBCMT:libm_error.obj
 0002:0000e490       ??_C@_03JGHBODFD@pow?$AA@  10050490     LIBCMT:libm_error.obj
 0002:0000e494       ??_C@_04FIHNOPOL@asin?$AA@ 10050494     LIBCMT:libm_error.obj
 0002:0000e49c       ??_C@_04PDIFKINK@acos?$AA@ 1005049c     LIBCMT:libm_error.obj
 0002:0000e4a4       ??_C@_05EOHGHCHD@exp10?$AA@ 100504a4     LIBCMT:libm_error.obj
 0002:0000e4ac       ??_C@_04MLLJIGOK@atan?$AA@ 100504ac     LIBCMT:libm_error.obj
 0002:0000e4b4       ??_C@_04GFPJNGEK@ceil?$AA@ 100504b4     LIBCMT:libm_error.obj
 0002:0000e4bc       ??_C@_05PBJFFIGL@floor?$AA@ 100504bc     LIBCMT:libm_error.obj
 0002:0000e4c4       ??_C@_04EHEDPDJG@modf?$AA@ 100504c4     LIBCMT:libm_error.obj
 0002:0000e4cc       ??_C@_03BLEJJJBH@sin?$AA@  100504cc     LIBCMT:libm_error.obj
 0002:0000e4d0       ??_C@_03LALBNOCG@cos?$AA@  100504d0     LIBCMT:libm_error.obj
 0002:0000e4d4       ??_C@_03IIINPABG@tan?$AA@  100504d4     LIBCMT:libm_error.obj
 0002:0000e4d8       ??_C@_04EIAKFFMI@sqrt?$AA@ 100504d8     LIBCMT:libm_error.obj
 0002:0000e4e0       ??_C@_05KLBDPFGC@e?$CL000?$AA@ 100504e0     LIBCMT:cvt.obj
 0002:0000e4e8       ??_C@_1BK@MGMFAEKH@?$AAk?$AAe?$AAr?$AAn?$AAe?$AAl?$AA3?$AA2?$AA?4?$AAd?$AAl?$AAl?$AA?$AA@ 100504e8     LIBCMT:winapisupp.obj
 0002:0000e504       ??_C@_08KNHFBNJ@FlsAlloc?$AA@ 10050504     LIBCMT:winapisupp.obj
 0002:0000e510       ??_C@_07PEJMOBNF@FlsFree?$AA@ 10050510     LIBCMT:winapisupp.obj
 0002:0000e518       ??_C@_0M@GDNOONDI@FlsGetValue?$AA@ 10050518     LIBCMT:winapisupp.obj
 0002:0000e524       ??_C@_0M@JCPCPOEF@FlsSetValue?$AA@ 10050524     LIBCMT:winapisupp.obj
 0002:0000e530       ??_C@_0BM@HCFOFFN@InitializeCriticalSectionEx?$AA@ 10050530     LIBCMT:winapisupp.obj
 0002:0000e54c       ??_C@_0P@DLHPPCNH@CreateEventExW?$AA@ 1005054c     LIBCMT:winapisupp.obj
 0002:0000e55c       ??_C@_0BD@KIEEOEEH@CreateSemaphoreExW?$AA@ 1005055c     LIBCMT:winapisupp.obj
 0002:0000e570       ??_C@_0BI@BKLFFAPO@SetThreadStackGuarantee?$AA@ 10050570     LIBCMT:winapisupp.obj
 0002:0000e588       ??_C@_0BG@OGFAJCKC@CreateThreadpoolTimer?$AA@ 10050588     LIBCMT:winapisupp.obj
 0002:0000e5a0       ??_C@_0BD@LPLEMMDI@SetThreadpoolTimer?$AA@ 100505a0     LIBCMT:winapisupp.obj
 0002:0000e5b4       ??_C@_0CA@FMNJENH@WaitForThreadpoolTimerCallbacks?$AA@ 100505b4     LIBCMT:winapisupp.obj
 0002:0000e5d4       ??_C@_0BF@DCFCCNOC@CloseThreadpoolTimer?$AA@ 100505d4     LIBCMT:winapisupp.obj
 0002:0000e5ec       ??_C@_0BF@FLABGKKM@CreateThreadpoolWait?$AA@ 100505ec     LIBCMT:winapisupp.obj
 0002:0000e604       ??_C@_0BC@MGCOHNA@SetThreadpoolWait?$AA@ 10050604     LIBCMT:winapisupp.obj
 0002:0000e618       ??_C@_0BE@OCIOMIMP@CloseThreadpoolWait?$AA@ 10050618     LIBCMT:winapisupp.obj
 0002:0000e62c       ??_C@_0BJ@LKGHFHBO@FlushProcessWriteBuffers?$AA@ 1005062c     LIBCMT:winapisupp.obj
 0002:0000e648       ??_C@_0BP@KALKKPMO@FreeLibraryWhenCallbackReturns?$AA@ 10050648     LIBCMT:winapisupp.obj
 0002:0000e668       ??_C@_0BK@DFNBACLA@GetCurrentProcessorNumber?$AA@ 10050668     LIBCMT:winapisupp.obj
 0002:0000e684       ??_C@_0BP@KHGALBC@GetLogicalProcessorInformation?$AA@ 10050684     LIBCMT:winapisupp.obj
 0002:0000e6a4       ??_C@_0BE@FKKLLFLM@CreateSymbolicLinkW?$AA@ 100506a4     LIBCMT:winapisupp.obj
 0002:0000e6b8       ??_C@_0BJ@OHNKDLIJ@SetDefaultDllDirectories?$AA@ 100506b8     LIBCMT:winapisupp.obj
 0002:0000e6d4       ??_C@_0BE@LJANKFHF@EnumSystemLocalesEx?$AA@ 100506d4     LIBCMT:winapisupp.obj
 0002:0000e6e8       ??_C@_0BA@IHGNDAEB@CompareStringEx?$AA@ 100506e8     LIBCMT:winapisupp.obj
 0002:0000e6f8       ??_C@_0BA@EPCJIIPD@GetDateFormatEx?$AA@ 100506f8     LIBCMT:winapisupp.obj
 0002:0000e708       ??_C@_0BA@ONOKGCMP@GetLocaleInfoEx?$AA@ 10050708     LIBCMT:winapisupp.obj
 0002:0000e718       ??_C@_0BA@CIJJKCJJ@GetTimeFormatEx?$AA@ 10050718     LIBCMT:winapisupp.obj
 0002:0000e728       ??_C@_0BJ@PBCCBIPI@GetUserDefaultLocaleName?$AA@ 10050728     LIBCMT:winapisupp.obj
 0002:0000e744       ??_C@_0BC@CELBKLLA@IsValidLocaleName?$AA@ 10050744     LIBCMT:winapisupp.obj
 0002:0000e758       ??_C@_0O@KKBNKAPF@LCMapStringEx?$AA@ 10050758     LIBCMT:winapisupp.obj
 0002:0000e768       ??_C@_0BE@JOGNEJCI@GetCurrentPackageId?$AA@ 10050768     LIBCMT:winapisupp.obj
 0002:0000e77c       ??_C@_0P@CDHHOHKP@GetTickCount64?$AA@ 1005077c     LIBCMT:winapisupp.obj
 0002:0000e78c       ??_C@_0BO@KPCLFDJJ@GetFileInformationByHandleExW?$AA@ 1005078c     LIBCMT:winapisupp.obj
 0002:0000e7ac       ??_C@_0BM@MHIDLABK@SetFileInformationByHandleW?$AA@ 100507ac     LIBCMT:winapisupp.obj
 0002:0000e7c8       ??_C@_1BK@GAEMIDIL@?$AAA?$AAD?$AAV?$AAA?$AAP?$AAI?$AA3?$AA2?$AA?4?$AAD?$AAL?$AAL?$AA?$AA@ 100507c8     LIBCMT:rand_s.obj
 0002:0000e7e4       ??_C@_0BC@JEAENNKH@SystemFunction036?$AA@ 100507e4     LIBCMT:rand_s.obj
 0002:0000e808       ??_C@_1M@HPNHIDJI@?$AAj?$AAa?$AA?9?$AAJ?$AAP?$AA?$AA@ 10050808     LIBCMT:mbctype.obj
 0002:0000e814       ??_C@_1M@BIBDDEMK@?$AAz?$AAh?$AA?9?$AAC?$AAN?$AA?$AA@ 10050814     LIBCMT:mbctype.obj
 0002:0000e820       ??_C@_1M@JLOOOEGK@?$AAk?$AAo?$AA?9?$AAK?$AAR?$AA?$AA@ 10050820     LIBCMT:mbctype.obj
 0002:0000e82c       ??_C@_1M@CLNBBOPM@?$AAz?$AAh?$AA?9?$AAT?$AAW?$AA?$AA@ 1005082c     LIBCMT:mbctype.obj
 0002:0000e858       ??_C@_04FJHINJAO@tanh?$AA@ 10050858     LIBCMT:fpexcept.obj
 0002:0000e860       ??_C@_05KNGEOGJB@atan2?$AA@ 10050860     LIBCMT:fpexcept.obj
 0002:0000e868       ??_C@_04ODHECPBC@fabs?$AA@ 10050868     LIBCMT:fpexcept.obj
 0002:0000e870       ??_C@_05CEJMAHNP@ldexp?$AA@ 10050870     LIBCMT:fpexcept.obj
 0002:0000e878       ??_C@_05KBKMEMPO@_cabs?$AA@ 10050878     LIBCMT:fpexcept.obj
 0002:0000e880       ??_C@_06MEIMCGCF@_hypot?$AA@ 10050880     LIBCMT:fpexcept.obj
 0002:0000e888       ??_C@_04KEPJIHGP@fmod?$AA@ 10050888     LIBCMT:fpexcept.obj
 0002:0000e890       ??_C@_05GKKHEGJL@frexp?$AA@ 10050890     LIBCMT:fpexcept.obj
 0002:0000e898       ??_C@_03MJLDFKDL@_y0?$AA@  10050898     LIBCMT:fpexcept.obj
 0002:0000e89c       ??_C@_03NAKIGLHK@_y1?$AA@  1005089c     LIBCMT:fpexcept.obj
 0002:0000e8a0       ??_C@_03ONILCKOB@_yn?$AA@  100508a0     LIBCMT:fpexcept.obj
 0002:0000e8a4       ??_C@_05JGDBENOH@_logb?$AA@ 100508a4     LIBCMT:fpexcept.obj
 0002:0000e8ac       ??_C@_0L@KDOEJCKC@_nextafter?$AA@ 100508ac     LIBCMT:fpexcept.obj
 0002:0000e8b8       ??_C@_04COOMCNPB@sinh?$AA@ 100508b8     LIBCMT:fpexcept.obj
 0002:0000e8c0       ??_C@_04HPJJNFIM@cosh?$AA@ 100508c0     LIBCMT:fpexcept.obj
 0002:0000e8c8       ??_C@_1BG@GOEBHBDC@?$AAU?$AAS?$AAE?$AAR?$AA3?$AA2?$AA?4?$AAD?$AAL?$AAL?$AA?$AA@ 100508c8     LIBCMT:crtmboxw.obj
 0002:0000e8e0       ??_C@_0M@DLDCCGNP@MessageBoxW?$AA@ 100508e0     LIBCMT:crtmboxw.obj
 0002:0000e8ec       ??_C@_0BA@HNOPNCHB@GetActiveWindow?$AA@ 100508ec     LIBCMT:crtmboxw.obj
 0002:0000e8fc       ??_C@_0BD@HHGDFDBJ@GetLastActivePopup?$AA@ 100508fc     LIBCMT:crtmboxw.obj
 0002:0000e910       ??_C@_0BK@DEKFELLI@GetUserObjectInformationW?$AA@ 10050910     LIBCMT:crtmboxw.obj
 0002:0000e92c       ??_C@_0BI@DFKBFLJE@GetProcessWindowStation?$AA@ 1005092c     LIBCMT:crtmboxw.obj
 0002:0000e948       __XcptActTab               10050948     LIBCMT:winxfltr.obj
 0002:0000e9d8       __XcptActTabCount          100509d8     LIBCMT:winxfltr.obj
 0002:0000e9dc       __XcptActTabSize           100509dc     LIBCMT:winxfltr.obj
 0002:0000e9e0       __First_FPE_Indx           100509e0     LIBCMT:winxfltr.obj
 0002:0000e9e4       __Num_FPE                  100509e4     LIBCMT:winxfltr.obj
 0002:0000e9e8       ___lookuptable_s           100509e8     LIBCMT:outputs.obj
 0002:0000ea44       ??_C@_03KOEHGMDN@Sun?$AA@  10050a44     LIBCMT:nlsdata.obj
 0002:0000ea48       ??_C@_03PDAGKDH@Mon?$AA@   10050a48     LIBCMT:nlsdata.obj
 0002:0000ea4c       ??_C@_03NAGEINEP@Tue?$AA@  10050a4c     LIBCMT:nlsdata.obj
 0002:0000ea50       ??_C@_03MHOMLAJA@Wed?$AA@  10050a50     LIBCMT:nlsdata.obj
 0002:0000ea54       ??_C@_03IOFIKPDN@Thu?$AA@  10050a54     LIBCMT:nlsdata.obj
 0002:0000ea58       ??_C@_03IDIOELNC@Fri?$AA@  10050a58     LIBCMT:nlsdata.obj
 0002:0000ea5c       ??_C@_03FEFJNEK@Sat?$AA@   10050a5c     LIBCMT:nlsdata.obj
 0002:0000ea60       ??_C@_06OOPIFAJ@Sunday?$AA@ 10050a60     LIBCMT:nlsdata.obj
 0002:0000ea68       ??_C@_06JLEDEDGH@Monday?$AA@ 10050a68     LIBCMT:nlsdata.obj
 0002:0000ea70       ??_C@_07BAAGCFCM@Tuesday?$AA@ 10050a70     LIBCMT:nlsdata.obj
 0002:0000ea78       ??_C@_09DLIGFAKA@Wednesday?$AA@ 10050a78     LIBCMT:nlsdata.obj
 0002:0000ea84       ??_C@_08HACCIKIA@Thursday?$AA@ 10050a84     LIBCMT:nlsdata.obj
 0002:0000ea90       ??_C@_06JECMNKMI@Friday?$AA@ 10050a90     LIBCMT:nlsdata.obj
 0002:0000ea98       ??_C@_08INBOOONO@Saturday?$AA@ 10050a98     LIBCMT:nlsdata.obj
 0002:0000eaa4       ??_C@_03JIHJHPIE@Jan?$AA@  10050aa4     LIBCMT:nlsdata.obj
 0002:0000eaa8       ??_C@_03HJBDCHOM@Feb?$AA@  10050aa8     LIBCMT:nlsdata.obj
 0002:0000eaac       ??_C@_03ODNJBKGA@Mar?$AA@  10050aac     LIBCMT:nlsdata.obj
 0002:0000eab0       ??_C@_03LEOLGMJP@Apr?$AA@  10050ab0     LIBCMT:nlsdata.obj
 0002:0000eab4       ??_C@_03CNMDKL@May?$AA@    10050ab4     LIBCMT:nlsdata.obj
 0002:0000eab8       ??_C@_03IDFGHECI@Jun?$AA@  10050ab8     LIBCMT:nlsdata.obj
 0002:0000eabc       ??_C@_03LBGABGKK@Jul?$AA@  10050abc     LIBCMT:nlsdata.obj
 0002:0000eac0       ??_C@_03IFJFEIGA@Aug?$AA@  10050ac0     LIBCMT:nlsdata.obj
 0002:0000eac4       ??_C@_03GGCAPAJC@Sep?$AA@  10050ac4     LIBCMT:nlsdata.obj
 0002:0000eac8       ??_C@_03BMAOKBAD@Oct?$AA@  10050ac8     LIBCMT:nlsdata.obj
 0002:0000eacc       ??_C@_03JPJOFNIA@Nov?$AA@  10050acc     LIBCMT:nlsdata.obj
 0002:0000ead0       ??_C@_03MKABNOCG@Dec?$AA@  10050ad0     LIBCMT:nlsdata.obj
 0002:0000ead4       ??_C@_07CGJPFGJA@January?$AA@ 10050ad4     LIBCMT:nlsdata.obj
 0002:0000eadc       ??_C@_08GNJGEPFN@February?$AA@ 10050adc     LIBCMT:nlsdata.obj
 0002:0000eae8       ??_C@_05HPCKOFNC@March?$AA@ 10050ae8     LIBCMT:nlsdata.obj
 0002:0000eaf0       ??_C@_05DMJDNLEJ@April?$AA@ 10050af0     LIBCMT:nlsdata.obj
 0002:0000eaf8       ??_C@_04CNLMGBGM@June?$AA@ 10050af8     LIBCMT:nlsdata.obj
 0002:0000eb00       ??_C@_04MIEPOIFP@July?$AA@ 10050b00     LIBCMT:nlsdata.obj
 0002:0000eb08       ??_C@_06LBBHFDDG@August?$AA@ 10050b08     LIBCMT:nlsdata.obj
 0002:0000eb10       ??_C@_09BHHEALKD@September?$AA@ 10050b10     LIBCMT:nlsdata.obj
 0002:0000eb1c       ??_C@_07JJNFCEND@October?$AA@ 10050b1c     LIBCMT:nlsdata.obj
 0002:0000eb24       ??_C@_08HCHEGEOA@November?$AA@ 10050b24     LIBCMT:nlsdata.obj
 0002:0000eb30       ??_C@_08EDHMEBNP@December?$AA@ 10050b30     LIBCMT:nlsdata.obj
 0002:0000eb3c       ??_C@_02DEDBPAFC@AM?$AA@   10050b3c     LIBCMT:nlsdata.obj
 0002:0000eb40       ??_C@_02CJNFDJBF@PM?$AA@   10050b40     LIBCMT:nlsdata.obj
 0002:0000eb44       ??_C@_08BPBNCDIB@MM?1dd?1yy?$AA@ 10050b44     LIBCMT:nlsdata.obj
 0002:0000eb50       ??_C@_0BE@CKGJFCPC@dddd?0?5MMMM?5dd?0?5yyyy?$AA@ 10050b50     LIBCMT:nlsdata.obj
 0002:0000eb64       ??_C@_08JCCMCCIL@HH?3mm?3ss?$AA@ 10050b64     LIBCMT:nlsdata.obj
 0002:0000eb70       ??_C@_17MBGCMIPB@?$AAS?$AAu?$AAn?$AA?$AA@ 10050b70     LIBCMT:nlsdata.obj
 0002:0000eb78       ??_C@_17KBOMKBF@?$AAM?$AAo?$AAn?$AA?$AA@ 10050b78     LIBCMT:nlsdata.obj
 0002:0000eb80       ??_C@_17BMKGEGOJ@?$AAT?$AAu?$AAe?$AA?$AA@ 10050b80     LIBCMT:nlsdata.obj
 0002:0000eb88       ??_C@_17CJEDCEPE@?$AAW?$AAe?$AAd?$AA?$AA@ 10050b88     LIBCMT:nlsdata.obj
 0002:0000eb90       ??_C@_17PDPHAADD@?$AAT?$AAh?$AAu?$AA?$AA@ 10050b90     LIBCMT:nlsdata.obj
 0002:0000eb98       ??_C@_17HFOLPPLP@?$AAF?$AAr?$AAi?$AA?$AA@ 10050b98     LIBCMT:nlsdata.obj
 0002:0000eba0       ??_C@_17GGIBDPIH@?$AAS?$AAa?$AAt?$AA?$AA@ 10050ba0     LIBCMT:nlsdata.obj
 0002:0000eba8       ??_C@_1O@IHNHDHPB@?$AAS?$AAu?$AAn?$AAd?$AAa?$AAy?$AA?$AA@ 10050ba8     LIBCMT:nlsdata.obj
 0002:0000ebb8       ??_C@_1O@MMNBFLIA@?$AAM?$AAo?$AAn?$AAd?$AAa?$AAy?$AA?$AA@ 10050bb8     LIBCMT:nlsdata.obj
 0002:0000ebc8       ??_C@_1BA@ENFBFFEK@?$AAT?$AAu?$AAe?$AAs?$AAd?$AAa?$AAy?$AA?$AA@ 10050bc8     LIBCMT:nlsdata.obj
 0002:0000ebd8       ??_C@_1BE@EBOGMDOH@?$AAW?$AAe?$AAd?$AAn?$AAe?$AAs?$AAd?$AAa?$AAy?$AA?$AA@ 10050bd8     LIBCMT:nlsdata.obj
 0002:0000ebec       ??_C@_1BC@HHMNLIHE@?$AAT?$AAh?$AAu?$AAr?$AAs?$AAd?$AAa?$AAy?$AA?$AA@ 10050bec     LIBCMT:nlsdata.obj
 0002:0000ec00       ??_C@_1O@PDICJHAG@?$AAF?$AAr?$AAi?$AAd?$AAa?$AAy?$AA?$AA@ 10050c00     LIBCMT:nlsdata.obj
 0002:0000ec10       ??_C@_1BC@ENMNNPAJ@?$AAS?$AAa?$AAt?$AAu?$AAr?$AAd?$AAa?$AAy?$AA?$AA@ 10050c10     LIBCMT:nlsdata.obj
 0002:0000ec24       ??_C@_17DKNBKCHM@?$AAJ?$AAa?$AAn?$AA?$AA@ 10050c24     LIBCMT:nlsdata.obj
 0002:0000ec2c       ??_C@_17LMDJEKJN@?$AAF?$AAe?$AAb?$AA?$AA@ 10050c2c     LIBCMT:nlsdata.obj
 0002:0000ec34       ??_C@_17CKNLEDEC@?$AAM?$AAa?$AAr?$AA?$AA@ 10050c34     LIBCMT:nlsdata.obj
 0002:0000ec3c       ??_C@_17LFPOIHDD@?$AAA?$AAp?$AAr?$AA?$AA@ 10050c3c     LIBCMT:nlsdata.obj
 0002:0000ec44       ??_C@_17PNNKMEED@?$AAM?$AAa?$AAy?$AA?$AA@ 10050c44     LIBCMT:nlsdata.obj
 0002:0000ec4c       ??_C@_17KCJGOCPB@?$AAJ?$AAu?$AAn?$AA?$AA@ 10050c4c     LIBCMT:nlsdata.obj
 0002:0000ec54       ??_C@_17IJPCKHK@?$AAJ?$AAu?$AAl?$AA?$AA@ 10050c54     LIBCMT:nlsdata.obj
 0002:0000ec5c       ??_C@_17ICPELBCN@?$AAA?$AAu?$AAg?$AA?$AA@ 10050c5c     LIBCMT:nlsdata.obj
 0002:0000ec64       ??_C@_17HCHCOKMG@?$AAS?$AAe?$AAp?$AA?$AA@ 10050c64     LIBCMT:nlsdata.obj
 0002:0000ec6c       ??_C@_17FNLKOI@?$AAO?$AAc?$AAt?$AA?$AA@ 10050c6c     LIBCMT:nlsdata.obj
 0002:0000ec74       ??_C@_17BBDMLCIG@?$AAN?$AAo?$AAv?$AA?$AA@ 10050c74     LIBCMT:nlsdata.obj
 0002:0000ec7c       ??_C@_17EGKACKIF@?$AAD?$AAe?$AAc?$AA?$AA@ 10050c7c     LIBCMT:nlsdata.obj
 0002:0000ec84       ??_C@_1BA@EFMEIEBA@?$AAJ?$AAa?$AAn?$AAu?$AAa?$AAr?$AAy?$AA?$AA@ 10050c84     LIBCMT:nlsdata.obj
 0002:0000ec94       ??_C@_1BC@JGDDFFAM@?$AAF?$AAe?$AAb?$AAr?$AAu?$AAa?$AAr?$AAy?$AA?$AA@ 10050c94     LIBCMT:nlsdata.obj
 0002:0000eca8       ??_C@_1M@IKEENEDF@?$AAM?$AAa?$AAr?$AAc?$AAh?$AA?$AA@ 10050ca8     LIBCMT:nlsdata.obj
 0002:0000ecb4       ??_C@_1M@GJNLMHFD@?$AAA?$AAp?$AAr?$AAi?$AAl?$AA?$AA@ 10050cb4     LIBCMT:nlsdata.obj
 0002:0000ecc0       ??_C@_19EPFLPGAP@?$AAJ?$AAu?$AAn?$AAe?$AA?$AA@ 10050cc0     LIBCMT:nlsdata.obj
 0002:0000eccc       ??_C@_19BIFMLPCD@?$AAJ?$AAu?$AAl?$AAy?$AA?$AA@ 10050ccc     LIBCMT:nlsdata.obj
 0002:0000ecd8       ??_C@_1O@PAHLKOAC@?$AAA?$AAu?$AAg?$AAu?$AAs?$AAt?$AA?$AA@ 10050cd8     LIBCMT:nlsdata.obj
 0002:0000ece8       ??_C@_1BE@DKAAMBJL@?$AAS?$AAe?$AAp?$AAt?$AAe?$AAm?$AAb?$AAe?$AAr?$AA?$AA@ 10050ce8     LIBCMT:nlsdata.obj
 0002:0000ecfc       ??_C@_1BA@EPANDLNG@?$AAO?$AAc?$AAt?$AAo?$AAb?$AAe?$AAr?$AA?$AA@ 10050cfc     LIBCMT:nlsdata.obj
 0002:0000ed0c       ??_C@_1BC@BGLIFPF@?$AAN?$AAo?$AAv?$AAe?$AAm?$AAb?$AAe?$AAr?$AA?$AA@ 10050d0c     LIBCMT:nlsdata.obj
 0002:0000ed20       ??_C@_1BC@FEMKIFH@?$AAD?$AAe?$AAc?$AAe?$AAm?$AAb?$AAe?$AAr?$AA?$AA@ 10050d20     LIBCMT:nlsdata.obj
 0002:0000ed34       ??_C@_15ODEHAHHF@?$AAA?$AAM?$AA?$AA@ 10050d34     LIBCMT:nlsdata.obj
 0002:0000ed3c       ??_C@_15CLMNNGEL@?$AAP?$AAM?$AA?$AA@ 10050d3c     LIBCMT:nlsdata.obj
 0002:0000ed44       ??_C@_1BC@IEBCMHCM@?$AAM?$AAM?$AA?1?$AAd?$AAd?$AA?1?$AAy?$AAy?$AA?$AA@ 10050d44     LIBCMT:nlsdata.obj
 0002:0000ed58       ??_C@_1CI@KNAKOEBC@?$AAd?$AAd?$AAd?$AAd?$AA?0?$AA?5?$AAM?$AAM?$AAM?$AAM?$AA?5?$AAd?$AAd?$AA?0?$AA?5?$AAy?$AAy?$AAy?$AAy?$AA?$AA@ 10050d58     LIBCMT:nlsdata.obj
 0002:0000ed80       ??_C@_1BC@GDGBMEMK@?$AAH?$AAH?$AA?3?$AAm?$AAm?$AA?3?$AAs?$AAs?$AA?$AA@ 10050d80     LIBCMT:nlsdata.obj
 0002:0000ed94       ??_C@_1M@BMHNFIME@?$AAe?$AAn?$AA?9?$AAU?$AAS?$AA?$AA@ 10050d94     LIBCMT:nlsdata.obj
 0002:0000eda0       _LcidToLocaleNameTable     10050da0     LIBCMT:winapinls.obj
 0002:0000f4c0       _LocaleNameToIndexTable    100514c0     LIBCMT:winapinls.obj
 0002:0000fbe0       ??_C@_15EMKDOKLE@?$AAa?$AAr?$AA?$AA@ 10051be0     LIBCMT:winapinls.obj
 0002:0000fbe8       ??_C@_15KNPADPLH@?$AAb?$AAg?$AA?$AA@ 10051be8     LIBCMT:winapinls.obj
 0002:0000fbf0       ??_C@_15EDMHLDMO@?$AAc?$AAa?$AA?$AA@ 10051bf0     LIBCMT:winapinls.obj
 0002:0000fbf8       ??_C@_1O@BPEAJADD@?$AAz?$AAh?$AA?9?$AAC?$AAH?$AAS?$AA?$AA@ 10051bf8     LIBCMT:winapinls.obj
 0002:0000fc08       ??_C@_15LJNHCMNK@?$AAc?$AAs?$AA?$AA@ 10051c08     LIBCMT:winapinls.obj
 0002:0000fc10       ??_C@_15FOMCIDHG@?$AAd?$AAa?$AA?$AA@ 10051c10     LIBCMT:winapinls.obj
 0002:0000fc18       ??_C@_15NBKABECB@?$AAd?$AAe?$AA?$AA@ 10051c18     LIBCMT:winapinls.obj
 0002:0000fc20       ??_C@_15GHPEIIAO@?$AAe?$AAl?$AA?$AA@ 10051c20     LIBCMT:winapinls.obj
 0002:0000fc28       ??_C@_15MNPNEAIF@?$AAe?$AAn?$AA?$AA@ 10051c28     LIBCMT:winapinls.obj
 0002:0000fc30       ??_C@_15GPIOMPMH@?$AAe?$AAs?$AA?$AA@ 10051c30     LIBCMT:winapinls.obj
 0002:0000fc38       ??_C@_15NGLOAKJC@?$AAf?$AAi?$AA?$AA@ 10051c38     LIBCMT:winapinls.obj
 0002:0000fc40       ??_C@_15FBKGNKAM@?$AAf?$AAr?$AA?$AA@ 10051c40     LIBCMT:winapinls.obj
 0002:0000fc48       ??_C@_15KGGCNEFK@?$AAh?$AAe?$AA?$AA@ 10051c48     LIBCMT:winapinls.obj
 0002:0000fc50       ??_C@_15PGHLIDMF@?$AAh?$AAu?$AA?$AA@ 10051c50     LIBCMT:winapinls.obj
 0002:0000fc58       ??_C@_15BIEMAPLM@?$AAi?$AAs?$AA?$AA@ 10051c58     LIBCMT:winapinls.obj
 0002:0000fc60       ??_C@_15IFJLDHAF@?$AAi?$AAt?$AA?$AA@ 10051c60     LIBCMT:winapinls.obj
 0002:0000fc68       ??_C@_15GEMIOCAG@?$AAj?$AAa?$AA?$AA@ 10051c68     LIBCMT:winapinls.obj
 0002:0000fc70       ??_C@_15EPELEGJA@?$AAk?$AAo?$AA?$AA@ 10051c70     LIBCMT:winapinls.obj
 0002:0000fc78       ??_C@_15NDDHIMN@?$AAn?$AAl?$AA?$AA@ 10051c78     LIBCMT:winapinls.obj
 0002:0000fc80       ??_C@_15BPIGNHCD@?$AAn?$AAo?$AA?$AA@ 10051c80     LIBCMT:winapinls.obj
 0002:0000fc88       ??_C@_15DEOPBLCG@?$AAp?$AAl?$AA?$AA@ 10051c88     LIBCMT:winapinls.obj
 0002:0000fc90       ??_C@_15KBECGEFG@?$AAp?$AAt?$AA?$AA@ 10051c90     LIBCMT:winapinls.obj
 0002:0000fc98       ??_C@_15GLJCBFMD@?$AAr?$AAo?$AA?$AA@ 10051c98     LIBCMT:winapinls.obj
 0002:0000fca0       ??_C@_15FEDGKCDI@?$AAr?$AAu?$AA?$AA@ 10051ca0     LIBCMT:winapinls.obj
 0002:0000fca8       ??_C@_15GLKMLLHM@?$AAh?$AAr?$AA?$AA@ 10051ca8     LIBCMT:winapinls.obj
 0002:0000fcb0       ??_C@_15CPKMFBDB@?$AAs?$AAk?$AA?$AA@ 10051cb0     LIBCMT:winapinls.obj
 0002:0000fcb8       ??_C@_15BAAIOGMK@?$AAs?$AAq?$AA?$AA@ 10051cb8     LIBCMT:winapinls.obj
 0002:0000fcc0       ??_C@_15INNPNOHD@?$AAs?$AAv?$AA?$AA@ 10051cc0     LIBCMT:winapinls.obj
 0002:0000fcc8       ??_C@_15CABMMOGH@?$AAt?$AAh?$AA?$AA@ 10051cc8     LIBCMT:winapinls.obj
 0002:0000fcd0       ??_C@_15BPLIHJJM@?$AAt?$AAr?$AA?$AA@ 10051cd0     LIBCMT:winapinls.obj
 0002:0000fcd8       ??_C@_15NEOEKKDJ@?$AAu?$AAr?$AA?$AA@ 10051cd8     LIBCMT:winapinls.obj
 0002:0000fce0       ??_C@_15NFICGAJK@?$AAi?$AAd?$AA?$AA@ 10051ce0     LIBCMT:winapinls.obj
 0002:0000fce8       ??_C@_15PJPFLCCM@?$AAu?$AAk?$AA?$AA@ 10051ce8     LIBCMT:winapinls.obj
 0002:0000fcf0       ??_C@_15HPJPHDM@?$AAb?$AAe?$AA?$AA@ 10051cf0     LIBCMT:winapinls.obj
 0002:0000fcf8       ??_C@_15LCHLGJII@?$AAs?$AAl?$AA?$AA@ 10051cf8     LIBCMT:winapinls.obj
 0002:0000fd00       ??_C@_15PCFJPHHO@?$AAe?$AAt?$AA?$AA@ 10051d00     LIBCMT:winapinls.obj
 0002:0000fd08       ??_C@_15HPFPGODN@?$AAl?$AAv?$AA?$AA@ 10051d08     LIBCMT:winapinls.obj
 0002:0000fd10       ??_C@_15NFFGKGLG@?$AAl?$AAt?$AA?$AA@ 10051d10     LIBCMT:winapinls.obj
 0002:0000fd18       ??_C@_15BDAKCCHN@?$AAf?$AAa?$AA?$AA@ 10051d18     LIBCMT:winapinls.obj
 0002:0000fd20       ??_C@_15NFGIAIAJ@?$AAv?$AAi?$AA?$AA@ 10051d20     LIBCMT:winapinls.obj
 0002:0000fd28       ??_C@_15LMKNDMHN@?$AAh?$AAy?$AA?$AA@ 10051d28     LIBCMT:winapinls.obj
 0002:0000fd30       ??_C@_15IJBHMCFL@?$AAa?$AAz?$AA?$AA@ 10051d30     LIBCMT:winapinls.obj
 0002:0000fd38       ??_C@_15EKOFJABL@?$AAe?$AAu?$AA?$AA@ 10051d38     LIBCMT:winapinls.obj
 0002:0000fd40       ??_C@_15BGHADCNK@?$AAm?$AAk?$AA?$AA@ 10051d40     LIBCMT:winapinls.obj
 0002:0000fd48       ??_C@_15JDNICKHM@?$AAa?$AAf?$AA?$AA@ 10051d48     LIBCMT:winapinls.obj
 0002:0000fd50       ??_C@_15KPJEDBKD@?$AAk?$AAa?$AA?$AA@ 10051d50     LIBCMT:winapinls.obj
 0002:0000fd58       ??_C@_15PDNFFFEO@?$AAf?$AAo?$AA?$AA@ 10051d58     LIBCMT:winapinls.obj
 0002:0000fd60       ??_C@_15OMLEGLOC@?$AAh?$AAi?$AA?$AA@ 10051d60     LIBCMT:winapinls.obj
 0002:0000fd68       ??_C@_15IDNNENKK@?$AAm?$AAs?$AA?$AA@ 10051d68     LIBCMT:winapinls.obj
 0002:0000fd70       ??_C@_15MACJNBMH@?$AAk?$AAk?$AA?$AA@ 10051d70     LIBCMT:winapinls.obj
 0002:0000fd78       ??_C@_15DKDJEOND@?$AAk?$AAy?$AA?$AA@ 10051d78     LIBCMT:winapinls.obj
 0002:0000fd80       ??_C@_15DFGDLJBG@?$AAs?$AAw?$AA?$AA@ 10051d80     LIBCMT:winapinls.obj
 0002:0000fd88       ??_C@_15BBFAICNG@?$AAu?$AAz?$AA?$AA@ 10051d88     LIBCMT:winapinls.obj
 0002:0000fd90       ??_C@_15DKNDCGEA@?$AAt?$AAt?$AA?$AA@ 10051d90     LIBCMT:winapinls.obj
 0002:0000fd98       ??_C@_15MGIFMDPL@?$AAp?$AAa?$AA?$AA@ 10051d98     LIBCMT:winapinls.obj
 0002:0000fda0       ??_C@_15HCNDBBA@?$AAg?$AAu?$AA?$AA@ 10051da0     LIBCMT:winapinls.obj
 0002:0000fda8       ??_C@_15FNBEIBON@?$AAt?$AAa?$AA?$AA@ 10051da8     LIBCMT:winapinls.obj
 0002:0000fdb0       ??_C@_15NCHGBGLK@?$AAt?$AAe?$AA?$AA@ 10051db0     LIBCMT:winapinls.obj
 0002:0000fdb8       ??_C@_15PHPHCBPF@?$AAk?$AAn?$AA?$AA@ 10051db8     LIBCMT:winapinls.obj
 0002:0000fdc0       ??_C@_15DLGBCKMP@?$AAm?$AAr?$AA?$AA@ 10051dc0     LIBCMT:winapinls.obj
 0002:0000fdc8       ??_C@_15EABBLBFF@?$AAs?$AAa?$AA?$AA@ 10051dc8     LIBCMT:winapinls.obj
 0002:0000fdd0       ??_C@_15CBKOMCOI@?$AAm?$AAn?$AA?$AA@ 10051dd0     LIBCMT:winapinls.obj
 0002:0000fdd8       ??_C@_15CKDMCJAF@?$AAg?$AAl?$AA?$AA@ 10051dd8     LIBCMT:winapinls.obj
 0002:0000fde0       ??_C@_17CNJFBPG@?$AAk?$AAo?$AAk?$AA?$AA@ 10051de0     LIBCMT:winapinls.obj
 0002:0000fde8       ??_C@_17FFBJICPL@?$AAs?$AAy?$AAr?$AA?$AA@ 10051de8     LIBCMT:winapinls.obj
 0002:0000fdf0       ??_C@_17KPNDCPAF@?$AAd?$AAi?$AAv?$AA?$AA@ 10051df0     LIBCMT:winapinls.obj
 0002:0000fdf8       ??_C@_11LOCGONAA@?$AA?$AA@ 10051df8     LIBCMT:winapinls.obj
 0002:0000fdfc       ??_C@_1M@OKAHONE@?$AAa?$AAr?$AA?9?$AAS?$AAA?$AA?$AA@ 10051dfc     LIBCMT:winapinls.obj
 0002:0000fe08       ??_C@_1M@FFFIGIGK@?$AAb?$AAg?$AA?9?$AAB?$AAG?$AA?$AA@ 10051e08     LIBCMT:winapinls.obj
 0002:0000fe14       ??_C@_1M@BJNKEDC@?$AAc?$AAa?$AA?9?$AAE?$AAS?$AA?$AA@ 10051e14     LIBCMT:winapinls.obj
 0002:0000fe20       ??_C@_1M@IJJHFJHA@?$AAc?$AAs?$AA?9?$AAC?$AAZ?$AA?$AA@ 10051e20     LIBCMT:winapinls.obj
 0002:0000fe2c       ??_C@_1M@CLPEOBGI@?$AAd?$AAa?$AA?9?$AAD?$AAK?$AA?$AA@ 10051e2c     LIBCMT:winapinls.obj
 0002:0000fe38       ??_C@_1M@MCMADGCB@?$AAd?$AAe?$AA?9?$AAD?$AAE?$AA?$AA@ 10051e38     LIBCMT:winapinls.obj
 0002:0000fe44       ??_C@_1M@OOCKEMAM@?$AAe?$AAl?$AA?9?$AAG?$AAR?$AA?$AA@ 10051e44     LIBCMT:winapinls.obj
 0002:0000fe50       ??_C@_1M@DDNJFGID@?$AAf?$AAi?$AA?9?$AAF?$AAI?$AA?$AA@ 10051e50     LIBCMT:winapinls.obj
 0002:0000fe5c       ??_C@_1M@GLIPPMAC@?$AAf?$AAr?$AA?9?$AAF?$AAR?$AA?$AA@ 10051e5c     LIBCMT:winapinls.obj
 0002:0000fe68       ??_C@_1M@GFMCHPE@?$AAh?$AAe?$AA?9?$AAI?$AAL?$AA?$AA@ 10051e68     LIBCMT:winapinls.obj
 0002:0000fe74       ??_C@_1M@MHLPGNKM@?$AAh?$AAu?$AA?9?$AAH?$AAU?$AA?$AA@ 10051e74     LIBCMT:winapinls.obj
 0002:0000fe80       ??_C@_1M@LPDDNNPN@?$AAi?$AAs?$AA?9?$AAI?$AAS?$AA?$AA@ 10051e80     LIBCMT:winapinls.obj
 0002:0000fe8c       ??_C@_1M@MADIPODN@?$AAi?$AAt?$AA?9?$AAI?$AAT?$AA?$AA@ 10051e8c     LIBCMT:winapinls.obj
 0002:0000fe98       ??_C@_1M@IHBJJGG@?$AAn?$AAl?$AA?9?$AAN?$AAL?$AA?$AA@ 10051e98     LIBCMT:winapinls.obj
 0002:0000fea4       ??_C@_1M@EANAGDL@?$AAn?$AAb?$AA?9?$AAN?$AAO?$AA?$AA@ 10051ea4     LIBCMT:winapinls.obj
 0002:0000feb0       ??_C@_1M@NEIEMEGP@?$AAp?$AAl?$AA?9?$AAP?$AAL?$AA?$AA@ 10051eb0     LIBCMT:winapinls.obj
 0002:0000febc       ??_C@_1M@BOCFIGEP@?$AAp?$AAt?$AA?9?$AAB?$AAR?$AA?$AA@ 10051ebc     LIBCMT:winapinls.obj
 0002:0000fec8       ??_C@_1M@IMPFOPBG@?$AAr?$AAo?$AA?9?$AAR?$AAO?$AA?$AA@ 10051ec8     LIBCMT:winapinls.obj
 0002:0000fed4       ??_C@_1M@IDNNEJMM@?$AAr?$AAu?$AA?9?$AAR?$AAU?$AA?$AA@ 10051ed4     LIBCMT:winapinls.obj
 0002:0000fee0       ??_C@_1M@LILEEOGM@?$AAh?$AAr?$AA?9?$AAH?$AAR?$AA?$AA@ 10051ee0     LIBCMT:winapinls.obj
 0002:0000feec       ??_C@_1M@FKIFEHPB@?$AAs?$AAk?$AA?9?$AAS?$AAK?$AA?$AA@ 10051eec     LIBCMT:winapinls.obj
 0002:0000fef8       ??_C@_1M@LJMAMNPJ@?$AAs?$AAq?$AA?9?$AAA?$AAL?$AA?$AA@ 10051ef8     LIBCMT:winapinls.obj
 0002:0000ff04       ??_C@_1M@GIAKDKJK@?$AAs?$AAv?$AA?9?$AAS?$AAE?$AA?$AA@ 10051f04     LIBCMT:winapinls.obj
 0002:0000ff10       ??_C@_1M@MKJKIKCL@?$AAt?$AAh?$AA?9?$AAT?$AAH?$AA?$AA@ 10051f10     LIBCMT:winapinls.obj
 0002:0000ff1c       ??_C@_1M@MFLCCMPB@?$AAt?$AAr?$AA?9?$AAT?$AAR?$AA?$AA@ 10051f1c     LIBCMT:winapinls.obj
 0002:0000ff28       ??_C@_1M@OIJHDKJN@?$AAu?$AAr?$AA?9?$AAP?$AAK?$AA?$AA@ 10051f28     LIBCMT:winapinls.obj
 0002:0000ff34       ??_C@_1M@LHIPCIEK@?$AAi?$AAd?$AA?9?$AAI?$AAD?$AA?$AA@ 10051f34     LIBCMT:winapinls.obj
 0002:0000ff40       ??_C@_1M@MFMOBGI@?$AAu?$AAk?$AA?9?$AAU?$AAA?$AA?$AA@ 10051f40     LIBCMT:winapinls.obj
 0002:0000ff4c       ??_C@_1M@OBGLJIPL@?$AAb?$AAe?$AA?9?$AAB?$AAY?$AA?$AA@ 10051f4c     LIBCMT:winapinls.obj
 0002:0000ff58       ??_C@_1M@BCFAJEAD@?$AAs?$AAl?$AA?9?$AAS?$AAI?$AA?$AA@ 10051f58     LIBCMT:winapinls.obj
 0002:0000ff64       ??_C@_1M@FKFFEDDN@?$AAe?$AAt?$AA?9?$AAE?$AAE?$AA?$AA@ 10051f64     LIBCMT:winapinls.obj
 0002:0000ff70       ??_C@_1M@KGKKAACI@?$AAl?$AAv?$AA?9?$AAL?$AAV?$AA?$AA@ 10051f70     LIBCMT:winapinls.obj
 0002:0000ff7c       ??_C@_1M@IFGBIJO@?$AAl?$AAt?$AA?9?$AAL?$AAT?$AA?$AA@ 10051f7c     LIBCMT:winapinls.obj
 0002:0000ff88       ??_C@_1M@FGEAHEDM@?$AAf?$AAa?$AA?9?$AAI?$AAR?$AA?$AA@ 10051f88     LIBCMT:winapinls.obj
 0002:0000ff94       ??_C@_1M@KBMAIBFN@?$AAv?$AAi?$AA?9?$AAV?$AAN?$AA?$AA@ 10051f94     LIBCMT:winapinls.obj
 0002:0000ffa0       ??_C@_1M@GPCBKDJK@?$AAh?$AAy?$AA?9?$AAA?$AAM?$AA?$AA@ 10051fa0     LIBCMT:winapinls.obj
 0002:0000ffac       ??_C@_1BG@BECMDDJB@?$AAa?$AAz?$AA?9?$AAA?$AAZ?$AA?9?$AAL?$AAa?$AAt?$AAn?$AA?$AA@ 10051fac     LIBCMT:winapinls.obj
 0002:0000ffc4       ??_C@_1M@MAOFCAEA@?$AAe?$AAu?$AA?9?$AAE?$AAS?$AA?$AA@ 10051fc4     LIBCMT:winapinls.obj
 0002:0000ffd0       ??_C@_1M@IGHABKPI@?$AAm?$AAk?$AA?9?$AAM?$AAK?$AA?$AA@ 10051fd0     LIBCMT:winapinls.obj
 0002:0000ffdc       ??_C@_1M@IAIGNEJG@?$AAt?$AAn?$AA?9?$AAZ?$AAA?$AA?$AA@ 10051fdc     LIBCMT:winapinls.obj
 0002:0000ffe8       ??_C@_1M@IIJCOJFA@?$AAx?$AAh?$AA?9?$AAZ?$AAA?$AA?$AA@ 10051fe8     LIBCMT:winapinls.obj
 0002:0000fff4       ??_C@_1M@LGPJHNJH@?$AAz?$AAu?$AA?9?$AAZ?$AAA?$AA?$AA@ 10051ff4     LIBCMT:winapinls.obj
 0002:00010000       ??_C@_1M@HOKAOIO@?$AAa?$AAf?$AA?9?$AAZ?$AAA?$AA?$AA@ 10052000     LIBCMT:winapinls.obj
 0002:0001000c       ??_C@_1M@DPCLHLIE@?$AAk?$AAa?$AA?9?$AAG?$AAE?$AA?$AA@ 1005200c     LIBCMT:winapinls.obj
 0002:00010018       ??_C@_1M@BLKMHJBI@?$AAf?$AAo?$AA?9?$AAF?$AAO?$AA?$AA@ 10052018     LIBCMT:winapinls.obj
 0002:00010024       ??_C@_1M@LGGJAPPB@?$AAh?$AAi?$AA?9?$AAI?$AAN?$AA?$AA@ 10052024     LIBCMT:winapinls.obj
 0002:00010030       ??_C@_1M@FIKPIHFE@?$AAm?$AAt?$AA?9?$AAM?$AAT?$AA?$AA@ 10052030     LIBCMT:winapinls.obj
 0002:0001003c       ??_C@_1M@HEGGPBFA@?$AAs?$AAe?$AA?9?$AAN?$AAO?$AA?$AA@ 1005203c     LIBCMT:winapinls.obj
 0002:00010048       ??_C@_1M@EIBJEEPA@?$AAm?$AAs?$AA?9?$AAM?$AAY?$AA?$AA@ 10052048     LIBCMT:winapinls.obj
 0002:00010054       ??_C@_1M@FHLBGMPP@?$AAk?$AAk?$AA?9?$AAK?$AAZ?$AA?$AA@ 10052054     LIBCMT:winapinls.obj
 0002:00010060       ??_C@_1M@NGJJLCGI@?$AAk?$AAy?$AA?9?$AAK?$AAG?$AA?$AA@ 10052060     LIBCMT:winapinls.obj
 0002:0001006c       ??_C@_1M@GIENNBFC@?$AAs?$AAw?$AA?9?$AAK?$AAE?$AA?$AA@ 1005206c     LIBCMT:winapinls.obj
 0002:00010078       ??_C@_1BG@NDGMJIMJ@?$AAu?$AAz?$AA?9?$AAU?$AAZ?$AA?9?$AAL?$AAa?$AAt?$AAn?$AA?$AA@ 10052078     LIBCMT:winapinls.obj
 0002:00010090       ??_C@_1M@IDCCIHBC@?$AAt?$AAt?$AA?9?$AAR?$AAU?$AA?$AA@ 10052090     LIBCMT:winapinls.obj
 0002:0001009c       ??_C@_1M@LOICPMOJ@?$AAb?$AAn?$AA?9?$AAI?$AAN?$AA?$AA@ 1005209c     LIBCMT:winapinls.obj
 0002:000100a8       ??_C@_1M@KPKKNEAH@?$AAp?$AAa?$AA?9?$AAI?$AAN?$AA?$AA@ 100520a8     LIBCMT:winapinls.obj
 0002:000100b4       ??_C@_1M@PJGPPBOG@?$AAg?$AAu?$AA?9?$AAI?$AAN?$AA?$AA@ 100520b4     LIBCMT:winapinls.obj
 0002:000100c0       ??_C@_1M@KMKMOPHI@?$AAt?$AAa?$AA?9?$AAI?$AAN?$AA?$AA@ 100520c0     LIBCMT:winapinls.obj
 0002:000100cc       ??_C@_1M@KFEHEPAC@?$AAt?$AAe?$AA?9?$AAI?$AAN?$AA?$AA@ 100520cc     LIBCMT:winapinls.obj
 0002:000100d8       ??_C@_1M@CDCLMGHI@?$AAk?$AAn?$AA?9?$AAI?$AAN?$AA?$AA@ 100520d8     LIBCMT:winapinls.obj
 0002:000100e4       ??_C@_1M@MIODLDKF@?$AAm?$AAl?$AA?9?$AAI?$AAN?$AA?$AA@ 100520e4     LIBCMT:winapinls.obj
 0002:000100f0       ??_C@_1M@PBIEACPO@?$AAm?$AAr?$AA?9?$AAI?$AAN?$AA?$AA@ 100520f0     LIBCMT:winapinls.obj
 0002:000100fc       ??_C@_1M@NIDEAGPH@?$AAs?$AAa?$AA?9?$AAI?$AAN?$AA?$AA@ 100520fc     LIBCMT:winapinls.obj
 0002:00010108       ??_C@_1M@FHIHCBIO@?$AAm?$AAn?$AA?9?$AAM?$AAN?$AA?$AA@ 10052108     LIBCMT:winapinls.obj
 0002:00010114       ??_C@_1M@JAIJPENP@?$AAc?$AAy?$AA?9?$AAG?$AAB?$AA?$AA@ 10052114     LIBCMT:winapinls.obj
 0002:00010120       ??_C@_1M@PHGFBEPN@?$AAg?$AAl?$AA?9?$AAE?$AAS?$AA?$AA@ 10052120     LIBCMT:winapinls.obj
 0002:0001012c       ??_C@_1O@KPIPDNCP@?$AAk?$AAo?$AAk?$AA?9?$AAI?$AAN?$AA?$AA@ 1005212c     LIBCMT:winapinls.obj
 0002:0001013c       ??_C@_1O@KNHJLDJA@?$AAs?$AAy?$AAr?$AA?9?$AAS?$AAY?$AA?$AA@ 1005213c     LIBCMT:winapinls.obj
 0002:0001014c       ??_C@_1O@MKEKBLAH@?$AAd?$AAi?$AAv?$AA?9?$AAM?$AAV?$AA?$AA@ 1005214c     LIBCMT:winapinls.obj
 0002:0001015c       ??_C@_1O@OHDCKDDF@?$AAq?$AAu?$AAz?$AA?9?$AAB?$AAO?$AA?$AA@ 1005215c     LIBCMT:winapinls.obj
 0002:0001016c       ??_C@_1M@LEPJNLFD@?$AAn?$AAs?$AA?9?$AAZ?$AAA?$AA?$AA@ 1005216c     LIBCMT:winapinls.obj
 0002:00010178       ??_C@_1M@OMLEIIJB@?$AAm?$AAi?$AA?9?$AAN?$AAZ?$AA?$AA@ 10052178     LIBCMT:winapinls.obj
 0002:00010184       ??_C@_1M@PMPEAILG@?$AAa?$AAr?$AA?9?$AAI?$AAQ?$AA?$AA@ 10052184     LIBCMT:winapinls.obj
 0002:00010190       ??_C@_1M@CNKPNOEE@?$AAd?$AAe?$AA?9?$AAC?$AAH?$AA?$AA@ 10052190     LIBCMT:winapinls.obj
 0002:0001019c       ??_C@_1M@LKMGMLKO@?$AAe?$AAn?$AA?9?$AAG?$AAB?$AA?$AA@ 1005219c     LIBCMT:winapinls.obj
 0002:000101a8       ??_C@_1M@PGKJFFGL@?$AAe?$AAs?$AA?9?$AAM?$AAX?$AA?$AA@ 100521a8     LIBCMT:winapinls.obj
 0002:000101b4       ??_C@_1M@DNNANBDC@?$AAf?$AAr?$AA?9?$AAB?$AAE?$AA?$AA@ 100521b4     LIBCMT:winapinls.obj
 0002:000101c0       ??_C@_1M@HLGMDFHM@?$AAi?$AAt?$AA?9?$AAC?$AAH?$AA?$AA@ 100521c0     LIBCMT:winapinls.obj
 0002:000101cc       ??_C@_1M@CLLBGJH@?$AAn?$AAl?$AA?9?$AAB?$AAE?$AA?$AA@ 100521cc     LIBCMT:winapinls.obj
 0002:000101d8       ??_C@_1M@BODBOGLF@?$AAn?$AAn?$AA?9?$AAN?$AAO?$AA?$AA@ 100521d8     LIBCMT:winapinls.obj
 0002:000101e4       ??_C@_1M@HFFAHKAD@?$AAp?$AAt?$AA?9?$AAP?$AAT?$AA?$AA@ 100521e4     LIBCMT:winapinls.obj
 0002:000101f0       ??_C@_1BG@LNOAKHIE@?$AAs?$AAr?$AA?9?$AAS?$AAP?$AA?9?$AAL?$AAa?$AAt?$AAn?$AA?$AA@ 100521f0     LIBCMT:winapinls.obj
 0002:00010208       ??_C@_1M@HBMHBGAK@?$AAs?$AAv?$AA?9?$AAF?$AAI?$AA?$AA@ 10052208     LIBCMT:winapinls.obj
 0002:00010214       ??_C@_1BG@DGCJGJBE@?$AAa?$AAz?$AA?9?$AAA?$AAZ?$AA?9?$AAC?$AAy?$AAr?$AAl?$AA?$AA@ 10052214     LIBCMT:winapinls.obj
 0002:0001022c       ??_C@_1M@KEJDAAHB@?$AAs?$AAe?$AA?9?$AAS?$AAE?$AA?$AA@ 1005222c     LIBCMT:winapinls.obj
 0002:00010238       ??_C@_1M@HEIBJJAD@?$AAm?$AAs?$AA?9?$AAB?$AAN?$AA?$AA@ 10052238     LIBCMT:winapinls.obj
 0002:00010244       ??_C@_1BG@PBGJMCEM@?$AAu?$AAz?$AA?9?$AAU?$AAZ?$AA?9?$AAC?$AAy?$AAr?$AAl?$AA?$AA@ 10052244     LIBCMT:winapinls.obj
 0002:0001025c       ??_C@_1O@LAOBCMDF@?$AAq?$AAu?$AAz?$AA?9?$AAE?$AAC?$AA?$AA@ 1005225c     LIBCMT:winapinls.obj
 0002:0001026c       ??_C@_1M@POEEMAIO@?$AAa?$AAr?$AA?9?$AAE?$AAG?$AA?$AA@ 1005226c     LIBCMT:winapinls.obj
 0002:00010278       ??_C@_1M@EFAKDEDL@?$AAz?$AAh?$AA?9?$AAH?$AAK?$AA?$AA@ 10052278     LIBCMT:winapinls.obj
 0002:00010284       ??_C@_1M@HKKIJHGI@?$AAd?$AAe?$AA?9?$AAA?$AAT?$AA?$AA@ 10052284     LIBCMT:winapinls.obj
 0002:00010290       ??_C@_1M@KBFBEHJF@?$AAe?$AAn?$AA?9?$AAA?$AAU?$AA?$AA@ 10052290     LIBCMT:winapinls.obj
 0002:0001029c       ??_C@_1M@MNPLFAAH@?$AAe?$AAs?$AA?9?$AAE?$AAS?$AA?$AA@ 1005229c     LIBCMT:winapinls.obj
 0002:000102a8       ??_C@_1M@HJOOJFMA@?$AAf?$AAr?$AA?9?$AAC?$AAA?$AA?$AA@ 100522a8     LIBCMT:winapinls.obj
 0002:000102b4       ??_C@_1BG@JPOFPNAB@?$AAs?$AAr?$AA?9?$AAS?$AAP?$AA?9?$AAC?$AAy?$AAr?$AAl?$AA?$AA@ 100522b4     LIBCMT:winapinls.obj
 0002:000102cc       ??_C@_1M@LNFOCMOB@?$AAs?$AAe?$AA?9?$AAF?$AAI?$AA?$AA@ 100522cc     LIBCMT:winapinls.obj
 0002:000102d8       ??_C@_1O@MGJBOAMB@?$AAq?$AAu?$AAz?$AA?9?$AAP?$AAE?$AA?$AA@ 100522d8     LIBCMT:winapinls.obj
 0002:000102e8       ??_C@_1M@GJINLBOK@?$AAa?$AAr?$AA?9?$AAL?$AAY?$AA?$AA@ 100522e8     LIBCMT:winapinls.obj
 0002:000102f4       ??_C@_1M@GGMNHJNL@?$AAz?$AAh?$AA?9?$AAS?$AAG?$AA?$AA@ 100522f4     LIBCMT:winapinls.obj
 0002:00010300       ??_C@_1M@HOIKODND@?$AAd?$AAe?$AA?9?$AAL?$AAU?$AA?$AA@ 10052300     LIBCMT:winapinls.obj
 0002:0001030c       ??_C@_1M@DDOCCGFG@?$AAe?$AAn?$AA?9?$AAC?$AAA?$AA?$AA@ 1005230c     LIBCMT:winapinls.obj
 0002:00010318       ??_C@_1M@BNOEMJLF@?$AAe?$AAs?$AA?9?$AAG?$AAT?$AA?$AA@ 10052318     LIBCMT:winapinls.obj
 0002:00010324       ??_C@_1M@EOGNKEK@?$AAf?$AAr?$AA?9?$AAC?$AAH?$AA?$AA@ 10052324     LIBCMT:winapinls.obj
 0002:00010330       ??_C@_1M@FLIDJFHL@?$AAh?$AAr?$AA?9?$AAB?$AAA?$AA?$AA@ 10052330     LIBCMT:winapinls.obj
 0002:0001033c       ??_C@_1O@FMCELNAJ@?$AAs?$AAm?$AAj?$AA?9?$AAN?$AAO?$AA?$AA@ 1005233c     LIBCMT:winapinls.obj
 0002:0001034c       ??_C@_1M@JHGLJMGJ@?$AAa?$AAr?$AA?9?$AAD?$AAZ?$AA?$AA@ 1005234c     LIBCMT:winapinls.obj
 0002:00010358       ??_C@_1M@JKKFDCNP@?$AAz?$AAh?$AA?9?$AAM?$AAO?$AA?$AA@ 10052358     LIBCMT:winapinls.obj
 0002:00010364       ??_C@_1M@GEEFALPE@?$AAd?$AAe?$AA?9?$AAL?$AAI?$AA?$AA@ 10052364     LIBCMT:winapinls.obj
 0002:00010370       ??_C@_1M@IGEOFBG@?$AAe?$AAn?$AA?9?$AAN?$AAZ?$AA?$AA@ 10052370     LIBCMT:winapinls.obj
 0002:0001037c       ??_C@_1M@KDBONEHP@?$AAe?$AAs?$AA?9?$AAC?$AAR?$AA?$AA@ 1005237c     LIBCMT:winapinls.obj
 0002:00010388       ??_C@_1M@FHMDOHNN@?$AAf?$AAr?$AA?9?$AAL?$AAU?$AA?$AA@ 10052388     LIBCMT:winapinls.obj
 0002:00010394       ??_C@_1BG@NFKKMAFG@?$AAb?$AAs?$AA?9?$AAB?$AAA?$AA?9?$AAL?$AAa?$AAt?$AAn?$AA?$AA@ 10052394     LIBCMT:winapinls.obj
 0002:000103ac       ??_C@_1O@IMNBEMCI@?$AAs?$AAm?$AAj?$AA?9?$AAS?$AAE?$AA?$AA@ 100523ac     LIBCMT:winapinls.obj
 0002:000103bc       ??_C@_1M@DHHMBNDP@?$AAa?$AAr?$AA?9?$AAM?$AAA?$AA?$AA@ 100523bc     LIBCMT:winapinls.obj
 0002:000103c8       ??_C@_1M@BNBLJCGH@?$AAe?$AAn?$AA?9?$AAI?$AAE?$AA?$AA@ 100523c8     LIBCMT:winapinls.obj
 0002:000103d4       ??_C@_1M@GEPAFMDL@?$AAe?$AAs?$AA?9?$AAP?$AAA?$AA?$AA@ 100523d4     LIBCMT:winapinls.obj
 0002:000103e0       ??_C@_1M@OJONDMDL@?$AAf?$AAr?$AA?9?$AAM?$AAC?$AA?$AA@ 100523e0     LIBCMT:winapinls.obj
 0002:000103ec       ??_C@_1BG@OBCNFJB@?$AAs?$AAr?$AA?9?$AAB?$AAA?$AA?9?$AAL?$AAa?$AAt?$AAn?$AA?$AA@ 100523ec     LIBCMT:winapinls.obj
 0002:00010404       ??_C@_1O@KEMEEGPO@?$AAs?$AAm?$AAa?$AA?9?$AAN?$AAO?$AA?$AA@ 10052404     LIBCMT:winapinls.obj
 0002:00010414       ??_C@_1M@ELMGFODK@?$AAa?$AAr?$AA?9?$AAT?$AAN?$AA?$AA@ 10052414     LIBCMT:winapinls.obj
 0002:00010420       ??_C@_1M@BHDLHFAF@?$AAe?$AAn?$AA?9?$AAZ?$AAA?$AA?$AA@ 10052420     LIBCMT:winapinls.obj
 0002:0001042c       ??_C@_1M@BMGIGLIF@?$AAe?$AAs?$AA?9?$AAD?$AAO?$AA?$AA@ 1005242c     LIBCMT:winapinls.obj
 0002:00010438       ??_C@_1BG@CMBHIPBE@?$AAs?$AAr?$AA?9?$AAB?$AAA?$AA?9?$AAC?$AAy?$AAr?$AAl?$AA?$AA@ 10052438     LIBCMT:winapinls.obj
 0002:00010450       ??_C@_1O@HEDBLHNP@?$AAs?$AAm?$AAa?$AA?9?$AAS?$AAE?$AA?$AA@ 10052450     LIBCMT:winapinls.obj
 0002:00010460       ??_C@_1M@DAGCADIM@?$AAa?$AAr?$AA?9?$AAO?$AAM?$AA?$AA@ 10052460     LIBCMT:winapinls.obj
 0002:0001046c       ??_C@_1M@FODLMICG@?$AAe?$AAn?$AA?9?$AAJ?$AAM?$AA?$AA@ 1005246c     LIBCMT:winapinls.obj
 0002:00010478       ??_C@_1M@DNMLCIHB@?$AAe?$AAs?$AA?9?$AAV?$AAE?$AA?$AA@ 10052478     LIBCMT:winapinls.obj
 0002:00010484       ??_C@_1O@EOKHMKJK@?$AAs?$AAm?$AAs?$AA?9?$AAF?$AAI?$AA?$AA@ 10052484     LIBCMT:winapinls.obj
 0002:00010494       ??_C@_1M@CAFJMKOF@?$AAa?$AAr?$AA?9?$AAY?$AAE?$AA?$AA@ 10052494     LIBCMT:winapinls.obj
 0002:000104a0       ??_C@_1M@CBFHIJLI@?$AAe?$AAn?$AA?9?$AAC?$AAB?$AA?$AA@ 100524a0     LIBCMT:winapinls.obj
 0002:000104ac       ??_C@_1M@BGNFLDN@?$AAe?$AAs?$AA?9?$AAC?$AAO?$AA?$AA@ 100524ac     LIBCMT:winapinls.obj
 0002:000104b8       ??_C@_1O@JMPHMAMC@?$AAs?$AAm?$AAn?$AA?9?$AAF?$AAI?$AA?$AA@ 100524b8     LIBCMT:winapinls.obj
 0002:000104c8       ??_C@_1M@JLANABKE@?$AAa?$AAr?$AA?9?$AAS?$AAY?$AA?$AA@ 100524c8     LIBCMT:winapinls.obj
 0002:000104d4       ??_C@_1M@HPKGCFGN@?$AAe?$AAn?$AA?9?$AAB?$AAZ?$AA?$AA@ 100524d4     LIBCMT:winapinls.obj
 0002:000104e0       ??_C@_1M@OLJCMLGM@?$AAe?$AAs?$AA?9?$AAP?$AAE?$AA?$AA@ 100524e0     LIBCMT:winapinls.obj
 0002:000104ec       ??_C@_1M@MKKGFKLE@?$AAa?$AAr?$AA?9?$AAJ?$AAO?$AA?$AA@ 100524ec     LIBCMT:winapinls.obj
 0002:000104f8       ??_C@_1M@EKPGLDNI@?$AAe?$AAn?$AA?9?$AAT?$AAT?$AA?$AA@ 100524f8     LIBCMT:winapinls.obj
 0002:00010504       ??_C@_1M@OONGHFHE@?$AAe?$AAs?$AA?9?$AAA?$AAR?$AA?$AA@ 10052504     LIBCMT:winapinls.obj
 0002:00010510       ??_C@_1M@OOJFGBHE@?$AAa?$AAr?$AA?9?$AAL?$AAB?$AA?$AA@ 10052510     LIBCMT:winapinls.obj
 0002:0001051c       ??_C@_1M@GCEJHNEG@?$AAe?$AAn?$AA?9?$AAZ?$AAW?$AA?$AA@ 1005251c     LIBCMT:winapinls.obj
 0002:00010528       ??_C@_1M@JNOCAHJI@?$AAe?$AAs?$AA?9?$AAE?$AAC?$AA?$AA@ 10052528     LIBCMT:winapinls.obj
 0002:00010534       ??_C@_1M@JEFHPGGB@?$AAa?$AAr?$AA?9?$AAK?$AAW?$AA?$AA@ 10052534     LIBCMT:winapinls.obj
 0002:00010540       ??_C@_1M@MLKIBJOJ@?$AAe?$AAn?$AA?9?$AAP?$AAH?$AA?$AA@ 10052540     LIBCMT:winapinls.obj
 0002:0001054c       ??_C@_1M@BDNIPEND@?$AAe?$AAs?$AA?9?$AAC?$AAL?$AA?$AA@ 1005254c     LIBCMT:winapinls.obj
 0002:00010558       ??_C@_1M@MPNMEKBD@?$AAa?$AAr?$AA?9?$AAA?$AAE?$AA?$AA@ 10052558     LIBCMT:winapinls.obj
 0002:00010564       ??_C@_1M@KBJALCPI@?$AAe?$AAs?$AA?9?$AAU?$AAY?$AA?$AA@ 10052564     LIBCMT:winapinls.obj
 0002:00010570       ??_C@_1M@LLCCOAGA@?$AAa?$AAr?$AA?9?$AAB?$AAH?$AA?$AA@ 10052570     LIBCMT:winapinls.obj
 0002:0001057c       ??_C@_1M@PBFNCDEL@?$AAe?$AAs?$AA?9?$AAP?$AAY?$AA?$AA@ 1005257c     LIBCMT:winapinls.obj
 0002:00010588       ??_C@_1M@EDGINPNP@?$AAa?$AAr?$AA?9?$AAQ?$AAA?$AA?$AA@ 10052588     LIBCMT:winapinls.obj
 0002:00010594       ??_C@_1M@MKDBIIJI@?$AAe?$AAs?$AA?9?$AAB?$AAO?$AA?$AA@ 10052594     LIBCMT:winapinls.obj
 0002:000105a0       ??_C@_1M@CPKKEBLD@?$AAe?$AAs?$AA?9?$AAS?$AAV?$AA?$AA@ 100525a0     LIBCMT:winapinls.obj
 0002:000105ac       ??_C@_1M@NDBGMMJL@?$AAe?$AAs?$AA?9?$AAH?$AAN?$AA?$AA@ 100525ac     LIBCMT:winapinls.obj
 0002:000105b8       ??_C@_1M@JIJIBHDP@?$AAe?$AAs?$AA?9?$AAN?$AAI?$AA?$AA@ 100525b8     LIBCMT:winapinls.obj
 0002:000105c4       ??_C@_1M@CGFMKEEK@?$AAe?$AAs?$AA?9?$AAP?$AAR?$AA?$AA@ 100525c4     LIBCMT:winapinls.obj
 0002:000105d0       ??_C@_1O@ICJHKIIK@?$AAz?$AAh?$AA?9?$AAC?$AAH?$AAT?$AA?$AA@ 100525d0     LIBCMT:winapinls.obj
 0002:000105e0       ??_C@_15CLNEJCE@?$AAs?$AAr?$AA?$AA@ 100525e0     LIBCMT:winapinls.obj
 0002:000105e8       ??_C@_1M@KAHEKEIG@?$AAa?$AAf?$AA?9?$AAz?$AAa?$AA?$AA@ 100525e8     LIBCMT:winapinls.obj
 0002:000105f4       ??_C@_1M@GIECOABL@?$AAa?$AAr?$AA?9?$AAa?$AAe?$AA?$AA@ 100525f4     LIBCMT:winapinls.obj
 0002:00010600       ??_C@_1M@BMLMEKGI@?$AAa?$AAr?$AA?9?$AAb?$AAh?$AA?$AA@ 10052600     LIBCMT:winapinls.obj
 0002:0001060c       ??_C@_1M@DAPFDGGB@?$AAa?$AAr?$AA?9?$AAd?$AAz?$AA?$AA@ 1005260c     LIBCMT:winapinls.obj
 0002:00010618       ??_C@_1M@FJNKGKIG@?$AAa?$AAr?$AA?9?$AAe?$AAg?$AA?$AA@ 10052618     LIBCMT:winapinls.obj
 0002:00010624       ??_C@_1M@FLGKKCLO@?$AAa?$AAr?$AA?9?$AAi?$AAq?$AA?$AA@ 10052624     LIBCMT:winapinls.obj
 0002:00010630       ??_C@_1M@GNDIPALM@?$AAa?$AAr?$AA?9?$AAj?$AAo?$AA?$AA@ 10052630     LIBCMT:winapinls.obj
 0002:0001063c       ??_C@_1M@DDMJFMGJ@?$AAa?$AAr?$AA?9?$AAk?$AAw?$AA?$AA@ 1005263c     LIBCMT:winapinls.obj
 0002:00010648       ??_C@_1M@EJALMLHM@?$AAa?$AAr?$AA?9?$AAl?$AAb?$AA?$AA@ 10052648     LIBCMT:winapinls.obj
 0002:00010654       ??_C@_1M@MOBDBLOC@?$AAa?$AAr?$AA?9?$AAl?$AAy?$AA?$AA@ 10052654     LIBCMT:winapinls.obj
 0002:00010660       ??_C@_1M@JAOCLHDH@?$AAa?$AAr?$AA?9?$AAm?$AAa?$AA?$AA@ 10052660     LIBCMT:winapinls.obj
 0002:0001066c       ??_C@_1M@JHPMKJIE@?$AAa?$AAr?$AA?9?$AAo?$AAm?$AA?$AA@ 1005266c     LIBCMT:winapinls.obj
 0002:00010678       ??_C@_1M@OEPGHFNH@?$AAa?$AAr?$AA?9?$AAq?$AAa?$AA?$AA@ 10052678     LIBCMT:winapinls.obj
 0002:00010684       ??_C@_1M@KJDONENM@?$AAa?$AAr?$AA?9?$AAs?$AAa?$AA?$AA@ 10052684     LIBCMT:winapinls.obj
 0002:00010690       ??_C@_1M@DMJDKLKM@?$AAa?$AAr?$AA?9?$AAs?$AAy?$AA?$AA@ 10052690     LIBCMT:winapinls.obj
 0002:0001069c       ??_C@_1M@OMFIPEDC@?$AAa?$AAr?$AA?9?$AAt?$AAn?$AA?$AA@ 1005269c     LIBCMT:winapinls.obj
 0002:000106a8       ??_C@_1M@IHMHGAON@?$AAa?$AAr?$AA?9?$AAy?$AAe?$AA?$AA@ 100526a8     LIBCMT:winapinls.obj
 0002:000106b4       ??_C@_1BG@KDCPGJGB@?$AAa?$AAz?$AA?9?$AAa?$AAz?$AA?9?$AAc?$AAy?$AAr?$AAl?$AA?$AA@ 100526b4     LIBCMT:winapinls.obj
 0002:000106cc       ??_C@_1BG@IBCKDDOE@?$AAa?$AAz?$AA?9?$AAa?$AAz?$AA?9?$AAl?$AAa?$AAt?$AAn?$AA?$AA@ 100526cc     LIBCMT:winapinls.obj
 0002:000106e4       ??_C@_1M@EGPFDCPD@?$AAb?$AAe?$AA?9?$AAb?$AAy?$AA?$AA@ 100526e4     LIBCMT:winapinls.obj
 0002:000106f0       ??_C@_1M@PCMGMCGC@?$AAb?$AAg?$AA?9?$AAb?$AAg?$AA?$AA@ 100526f0     LIBCMT:winapinls.obj
 0002:000106fc       ??_C@_1M@BJBMFGOB@?$AAb?$AAn?$AA?9?$AAi?$AAn?$AA?$AA@ 100526fc     LIBCMT:winapinls.obj
 0002:00010708       ??_C@_1BG@EAKMMACD@?$AAb?$AAs?$AA?9?$AAb?$AAa?$AA?9?$AAl?$AAa?$AAt?$AAn?$AA?$AA@ 10052708     LIBCMT:winapinls.obj
 0002:00010720       ??_C@_1M@KGADAODK@?$AAc?$AAa?$AA?9?$AAe?$AAs?$AA?$AA@ 10052720     LIBCMT:winapinls.obj
 0002:0001072c       ??_C@_1M@COAJPDHI@?$AAc?$AAs?$AA?9?$AAc?$AAz?$AA?$AA@ 1005272c     LIBCMT:winapinls.obj
 0002:00010738       ??_C@_1M@DHBHFONH@?$AAc?$AAy?$AA?9?$AAg?$AAb?$AA?$AA@ 10052738     LIBCMT:winapinls.obj
 0002:00010744       ??_C@_1M@IMGKELGA@?$AAd?$AAa?$AA?9?$AAd?$AAk?$AA?$AA@ 10052744     LIBCMT:winapinls.obj
 0002:00010750       ??_C@_1M@NNDGDNGA@?$AAd?$AAe?$AA?9?$AAa?$AAt?$AA?$AA@ 10052750     LIBCMT:winapinls.obj
 0002:0001075c       ??_C@_1M@IKDBHEEM@?$AAd?$AAe?$AA?9?$AAc?$AAh?$AA?$AA@ 1005275c     LIBCMT:winapinls.obj
 0002:00010768       ??_C@_1M@GFFOJMCJ@?$AAd?$AAe?$AA?9?$AAd?$AAe?$AA?$AA@ 10052768     LIBCMT:winapinls.obj
 0002:00010774       ??_C@_1M@MDNLKBPM@?$AAd?$AAe?$AA?9?$AAl?$AAi?$AA?$AA@ 10052774     LIBCMT:winapinls.obj
 0002:00010780       ??_C@_1M@NJBEEJNL@?$AAd?$AAe?$AA?9?$AAl?$AAu?$AA?$AA@ 10052780     LIBCMT:winapinls.obj
 0002:0001078c       ??_C@_1O@GNNELBAP@?$AAd?$AAi?$AAv?$AA?9?$AAm?$AAv?$AA?$AA@ 1005278c     LIBCMT:winapinls.obj
 0002:0001079c       ??_C@_1M@EJLEOGAE@?$AAe?$AAl?$AA?9?$AAg?$AAr?$AA?$AA@ 1005279c     LIBCMT:winapinls.obj
 0002:000107a8       ??_C@_1M@GMPONJN@?$AAe?$AAn?$AA?9?$AAa?$AAu?$AA?$AA@ 100527a8     LIBCMT:winapinls.obj
 0002:000107b4       ??_C@_1M@NIDIIPGF@?$AAe?$AAn?$AA?9?$AAb?$AAz?$AA?$AA@ 100527b4     LIBCMT:winapinls.obj
 0002:000107c0       ??_C@_1M@JEHMIMFO@?$AAe?$AAn?$AA?9?$AAc?$AAa?$AA?$AA@ 100527c0     LIBCMT:winapinls.obj
 0002:000107cc       ??_C@_1M@IGMJCDLA@?$AAe?$AAn?$AA?9?$AAc?$AAb?$AA?$AA@ 100527cc     LIBCMT:winapinls.obj
 0002:000107d8       ??_C@_1M@BNFIGBKG@?$AAe?$AAn?$AA?9?$AAg?$AAb?$AA?$AA@ 100527d8     LIBCMT:winapinls.obj
 0002:000107e4       ??_C@_1M@LKIFDIGP@?$AAe?$AAn?$AA?9?$AAi?$AAe?$AA?$AA@ 100527e4     LIBCMT:winapinls.obj
 0002:000107f0       ??_C@_1M@PJKFGCCO@?$AAe?$AAn?$AA?9?$AAj?$AAm?$AA?$AA@ 100527f0     LIBCMT:winapinls.obj
 0002:000107fc       ??_C@_1M@KPPKEPBO@?$AAe?$AAn?$AA?9?$AAn?$AAz?$AA?$AA@ 100527fc     LIBCMT:winapinls.obj
 0002:00010808       ??_C@_1M@GMDGLDOB@?$AAe?$AAn?$AA?9?$AAp?$AAh?$AA?$AA@ 10052808     LIBCMT:winapinls.obj
 0002:00010814       ??_C@_1M@ONGIBJNA@?$AAe?$AAn?$AA?9?$AAt?$AAt?$AA?$AA@ 10052814     LIBCMT:winapinls.obj
 0002:00010820       ??_C@_1M@LLODPCMM@?$AAe?$AAn?$AA?9?$AAu?$AAs?$AA?$AA@ 10052820     LIBCMT:winapinls.obj
 0002:0001082c       ??_C@_1M@LAKFNPAN@?$AAe?$AAn?$AA?9?$AAz?$AAa?$AA?$AA@ 1005282c     LIBCMT:winapinls.obj
 0002:00010838       ??_C@_1M@MFNHNHEO@?$AAe?$AAn?$AA?9?$AAz?$AAw?$AA?$AA@ 10052838     LIBCMT:winapinls.obj
 0002:00010844       ??_C@_1M@EJEINPHM@?$AAe?$AAs?$AA?9?$AAa?$AAr?$AA?$AA@ 10052844     LIBCMT:winapinls.obj
 0002:00010850       ??_C@_1M@GNKPCCJA@?$AAe?$AAs?$AA?9?$AAb?$AAo?$AA?$AA@ 10052850     LIBCMT:winapinls.obj
 0002:0001085c       ??_C@_1M@LEEGFONL@?$AAe?$AAs?$AA?9?$AAc?$AAl?$AA?$AA@ 1005285c     LIBCMT:winapinls.obj
 0002:00010868       ??_C@_1M@KGPDPBDF@?$AAe?$AAs?$AA?9?$AAc?$AAo?$AA?$AA@ 10052868     LIBCMT:winapinls.obj
 0002:00010874       ??_C@_1M@EIAHOHH@?$AAe?$AAs?$AA?9?$AAc?$AAr?$AA?$AA@ 10052874     LIBCMT:winapinls.obj
 0002:00010880       ??_C@_1M@LLPGMBIN@?$AAe?$AAs?$AA?9?$AAd?$AAo?$AA?$AA@ 10052880     LIBCMT:winapinls.obj
 0002:0001088c       ??_C@_1M@DKHMKNJA@?$AAe?$AAs?$AA?9?$AAe?$AAc?$AA?$AA@ 1005288c     LIBCMT:winapinls.obj
 0002:00010898       ??_C@_1M@GKGFPKAP@?$AAe?$AAs?$AA?9?$AAe?$AAs?$AA?$AA@ 10052898     LIBCMT:winapinls.obj
 0002:000108a4       ??_C@_1M@LKHKGDLN@?$AAe?$AAs?$AA?9?$AAg?$AAt?$AA?$AA@ 100528a4     LIBCMT:winapinls.obj
 0002:000108b0       ??_C@_1M@HEIIGGJD@?$AAe?$AAs?$AA?9?$AAh?$AAn?$AA?$AA@ 100528b0     LIBCMT:winapinls.obj
 0002:000108bc       ??_C@_1M@FBDHPPGD@?$AAe?$AAs?$AA?9?$AAm?$AAx?$AA?$AA@ 100528bc     LIBCMT:winapinls.obj
 0002:000108c8       ??_C@_1M@DPAGLNDH@?$AAe?$AAs?$AA?9?$AAn?$AAi?$AA?$AA@ 100528c8     LIBCMT:winapinls.obj
 0002:000108d4       ??_C@_1M@MDGOPGDD@?$AAe?$AAs?$AA?9?$AAp?$AAa?$AA?$AA@ 100528d4     LIBCMT:winapinls.obj
 0002:000108e0       ??_C@_1M@EMAMGBGE@?$AAe?$AAs?$AA?9?$AAp?$AAe?$AA?$AA@ 100528e0     LIBCMT:winapinls.obj
 0002:000108ec       ??_C@_1M@IBMCAOEC@?$AAe?$AAs?$AA?9?$AAp?$AAr?$AA?$AA@ 100528ec     LIBCMT:winapinls.obj
 0002:000108f8       ??_C@_1M@FGMDIJED@?$AAe?$AAs?$AA?9?$AAp?$AAy?$AA?$AA@ 100528f8     LIBCMT:winapinls.obj
 0002:00010904       ??_C@_1M@IIDEOLLL@?$AAe?$AAs?$AA?9?$AAs?$AAv?$AA?$AA@ 10052904     LIBCMT:winapinls.obj
 0002:00010910       ??_C@_1M@GAOBIPA@?$AAe?$AAs?$AA?9?$AAu?$AAy?$AA?$AA@ 10052910     LIBCMT:winapinls.obj
 0002:0001091c       ??_C@_1M@JKFFICHJ@?$AAe?$AAs?$AA?9?$AAv?$AAe?$AA?$AA@ 1005291c     LIBCMT:winapinls.obj
 0002:00010928       ??_C@_1M@PNMLOJDF@?$AAe?$AAt?$AA?9?$AAe?$AAe?$AA?$AA@ 10052928     LIBCMT:winapinls.obj
 0002:00010934       ??_C@_1M@GHHLIKEI@?$AAe?$AAu?$AA?9?$AAe?$AAs?$AA?$AA@ 10052934     LIBCMT:winapinls.obj
 0002:00010940       ??_C@_1M@PBNONODE@?$AAf?$AAa?$AA?9?$AAi?$AAr?$AA?$AA@ 10052940     LIBCMT:winapinls.obj
 0002:0001094c       ??_C@_1M@JEEHPMIL@?$AAf?$AAi?$AA?9?$AAf?$AAi?$AA?$AA@ 1005294c     LIBCMT:winapinls.obj
 0002:00010958       ??_C@_1M@LMDCNDBA@?$AAf?$AAo?$AA?9?$AAf?$AAo?$AA?$AA@ 10052958     LIBCMT:winapinls.obj
 0002:00010964       ??_C@_1M@JKEOHLDK@?$AAf?$AAr?$AA?9?$AAb?$AAe?$AA?$AA@ 10052964     LIBCMT:winapinls.obj
 0002:00010970       ??_C@_1M@NOHADPMI@?$AAf?$AAr?$AA?9?$AAc?$AAa?$AA?$AA@ 10052970     LIBCMT:winapinls.obj
 0002:0001097c       ??_C@_1M@KDHIHAEC@?$AAf?$AAr?$AA?9?$AAc?$AAh?$AA?$AA@ 1005297c     LIBCMT:winapinls.obj
 0002:00010988       ??_C@_1M@MMBBFGAK@?$AAf?$AAr?$AA?9?$AAf?$AAr?$AA?$AA@ 10052988     LIBCMT:winapinls.obj
 0002:00010994       ??_C@_1M@PAFNENNF@?$AAf?$AAr?$AA?9?$AAl?$AAu?$AA?$AA@ 10052994     LIBCMT:winapinls.obj
 0002:000109a0       ??_C@_1M@EOHDJGDD@?$AAf?$AAr?$AA?9?$AAm?$AAc?$AA?$AA@ 100529a0     LIBCMT:winapinls.obj
 0002:000109ac       ??_C@_1M@FAPLLOPF@?$AAg?$AAl?$AA?9?$AAe?$AAs?$AA?$AA@ 100529ac     LIBCMT:winapinls.obj
 0002:000109b8       ??_C@_1M@FOPBFLOO@?$AAg?$AAu?$AA?9?$AAi?$AAn?$AA?$AA@ 100529b8     LIBCMT:winapinls.obj
 0002:000109c4       ??_C@_1M@KBMCINPM@?$AAh?$AAe?$AA?9?$AAi?$AAl?$AA?$AA@ 100529c4     LIBCMT:winapinls.obj
 0002:000109d0       ??_C@_1M@BBPHKFPJ@?$AAh?$AAi?$AA?9?$AAi?$AAn?$AA?$AA@ 100529d0     LIBCMT:winapinls.obj
 0002:000109dc       ??_C@_1M@PMBNDPHD@?$AAh?$AAr?$AA?9?$AAb?$AAa?$AA?$AA@ 100529dc     LIBCMT:winapinls.obj
 0002:000109e8       ??_C@_1M@BPCKOEGE@?$AAh?$AAr?$AA?9?$AAh?$AAr?$AA?$AA@ 100529e8     LIBCMT:winapinls.obj
 0002:000109f4       ??_C@_1M@GACBMHKE@?$AAh?$AAu?$AA?9?$AAh?$AAu?$AA?$AA@ 100529f4     LIBCMT:winapinls.obj
 0002:00010a00       ??_C@_1M@MILPAJJC@?$AAh?$AAy?$AA?9?$AAa?$AAm?$AA?$AA@ 10052a00     LIBCMT:winapinls.obj
 0002:00010a0c       ??_C@_1M@BABBICEC@?$AAi?$AAd?$AA?9?$AAi?$AAd?$AA?$AA@ 10052a0c     LIBCMT:winapinls.obj
 0002:00010a18       ??_C@_1M@BIKNHHPF@?$AAi?$AAs?$AA?9?$AAi?$AAs?$AA?$AA@ 10052a18     LIBCMT:winapinls.obj
 0002:00010a24       ??_C@_1M@NMPCJPHE@?$AAi?$AAt?$AA?9?$AAc?$AAh?$AA?$AA@ 10052a24     LIBCMT:winapinls.obj
 0002:00010a30       ??_C@_1M@GHKGFEDF@?$AAi?$AAt?$AA?9?$AAi?$AAt?$AA?$AA@ 10052a30     LIBCMT:winapinls.obj
 0002:00010a3c       ??_C@_1M@NIEJCJJA@?$AAj?$AAa?$AA?9?$AAj?$AAp?$AA?$AA@ 10052a3c     LIBCMT:winapinls.obj
 0002:00010a48       ??_C@_1M@JILFNBIM@?$AAk?$AAa?$AA?9?$AAg?$AAe?$AA?$AA@ 10052a48     LIBCMT:winapinls.obj
 0002:00010a54       ??_C@_1M@PACPMGPH@?$AAk?$AAk?$AA?9?$AAk?$AAz?$AA?$AA@ 10052a54     LIBCMT:winapinls.obj
 0002:00010a60       ??_C@_1M@IELFGMHA@?$AAk?$AAn?$AA?9?$AAi?$AAn?$AA?$AA@ 10052a60     LIBCMT:winapinls.obj
 0002:00010a6c       ??_C@_1O@IBBJHCH@?$AAk?$AAo?$AAk?$AA?9?$AAi?$AAn?$AA?$AA@ 10052a6c     LIBCMT:winapinls.obj
 0002:00010a7c       ??_C@_1M@DMHAEOGC@?$AAk?$AAo?$AA?9?$AAk?$AAr?$AA?$AA@ 10052a7c     LIBCMT:winapinls.obj
 0002:00010a88       ??_C@_1M@HBAHBIGA@?$AAk?$AAy?$AA?9?$AAk?$AAg?$AA?$AA@ 10052a88     LIBCMT:winapinls.obj
 0002:00010a94       ??_C@_1M@KPMILCJG@?$AAl?$AAt?$AA?9?$AAl?$AAt?$AA?$AA@ 10052a94     LIBCMT:winapinls.obj
 0002:00010aa0       ??_C@_1M@BDEKKCA@?$AAl?$AAv?$AA?9?$AAl?$AAv?$AA?$AA@ 10052aa0     LIBCMT:winapinls.obj
 0002:00010aac       ??_C@_1M@ELCKCCJJ@?$AAm?$AAi?$AA?9?$AAn?$AAz?$AA?$AA@ 10052aac     LIBCMT:winapinls.obj
 0002:00010ab8       ??_C@_1M@CBOOLAPA@?$AAm?$AAk?$AA?9?$AAm?$AAk?$AA?$AA@ 10052ab8     LIBCMT:winapinls.obj
 0002:00010ac4       ??_C@_1M@GPHNBJKN@?$AAm?$AAl?$AA?9?$AAi?$AAn?$AA?$AA@ 10052ac4     LIBCMT:winapinls.obj
 0002:00010ad0       ??_C@_1M@PABJILIG@?$AAm?$AAn?$AA?9?$AAm?$AAn?$AA?$AA@ 10052ad0     LIBCMT:winapinls.obj
 0002:00010adc       ??_C@_1M@FGBKKIPG@?$AAm?$AAr?$AA?9?$AAi?$AAn?$AA?$AA@ 10052adc     LIBCMT:winapinls.obj
 0002:00010ae8       ??_C@_1M@NDBPDDAL@?$AAm?$AAs?$AA?9?$AAb?$AAn?$AA?$AA@ 10052ae8     LIBCMT:winapinls.obj
 0002:00010af4       ??_C@_1M@OPIHOOPI@?$AAm?$AAs?$AA?9?$AAm?$AAy?$AA?$AA@ 10052af4     LIBCMT:winapinls.obj
 0002:00010b00       ??_C@_1M@PPDBCNFM@?$AAm?$AAt?$AA?9?$AAm?$AAt?$AA?$AA@ 10052b00     LIBCMT:winapinls.obj
 0002:00010b0c       ??_C@_1M@KDJDKMDD@?$AAn?$AAb?$AA?9?$AAn?$AAo?$AA?$AA@ 10052b0c     LIBCMT:winapinls.obj
 0002:00010b18       ??_C@_1M@KFCFLMJP@?$AAn?$AAl?$AA?9?$AAb?$AAe?$AA?$AA@ 10052b18     LIBCMT:winapinls.obj
 0002:00010b24       ??_C@_1M@KPOPDDGO@?$AAn?$AAl?$AA?9?$AAn?$AAl?$AA?$AA@ 10052b24     LIBCMT:winapinls.obj
 0002:00010b30       ??_C@_1M@LJKPEMLN@?$AAn?$AAn?$AA?9?$AAn?$AAo?$AA?$AA@ 10052b30     LIBCMT:winapinls.obj
 0002:00010b3c       ??_C@_1M@BDGHHBFL@?$AAn?$AAs?$AA?9?$AAz?$AAa?$AA?$AA@ 10052b3c     LIBCMT:winapinls.obj
 0002:00010b48       ??_C@_1M@IDEHOAP@?$AAp?$AAa?$AA?9?$AAi?$AAn?$AA?$AA@ 10052b48     LIBCMT:winapinls.obj
 0002:00010b54       ??_C@_1M@HDBKGOGH@?$AAp?$AAl?$AA?9?$AAp?$AAl?$AA?$AA@ 10052b54     LIBCMT:winapinls.obj
 0002:00010b60       ??_C@_1M@LJLLCMEH@?$AAp?$AAt?$AA?9?$AAb?$AAr?$AA?$AA@ 10052b60     LIBCMT:winapinls.obj
 0002:00010b6c       ??_C@_1M@NCMONAAL@?$AAp?$AAt?$AA?9?$AAp?$AAt?$AA?$AA@ 10052b6c     LIBCMT:winapinls.obj
 0002:00010b78       ??_C@_1O@EAKMAJDN@?$AAq?$AAu?$AAz?$AA?9?$AAb?$AAo?$AA?$AA@ 10052b78     LIBCMT:winapinls.obj
 0002:00010b88       ??_C@_1O@BHHPIGDN@?$AAq?$AAu?$AAz?$AA?9?$AAe?$AAc?$AA?$AA@ 10052b88     LIBCMT:winapinls.obj
 0002:00010b98       ??_C@_1O@GBAPEKMJ@?$AAq?$AAu?$AAz?$AA?9?$AAp?$AAe?$AA?$AA@ 10052b98     LIBCMT:winapinls.obj
 0002:00010ba8       ??_C@_1M@CLGLEFBO@?$AAr?$AAo?$AA?9?$AAr?$AAo?$AA?$AA@ 10052ba8     LIBCMT:winapinls.obj
 0002:00010bb4       ??_C@_1M@CEEDODME@?$AAr?$AAu?$AA?9?$AAr?$AAu?$AA?$AA@ 10052bb4     LIBCMT:winapinls.obj
 0002:00010bc0       ??_C@_1M@HPKKKMPP@?$AAs?$AAa?$AA?9?$AAi?$AAn?$AA?$AA@ 10052bc0     LIBCMT:winapinls.obj
 0002:00010bcc       ??_C@_1M@BKMAIGOJ@?$AAs?$AAe?$AA?9?$AAf?$AAi?$AA?$AA@ 10052bcc     LIBCMT:winapinls.obj
 0002:00010bd8       ??_C@_1M@NDPIFLFI@?$AAs?$AAe?$AA?9?$AAn?$AAo?$AA?$AA@ 10052bd8     LIBCMT:winapinls.obj
 0002:00010be4       ??_C@_1M@DANKKHJ@?$AAs?$AAe?$AA?9?$AAs?$AAe?$AA?$AA@ 10052be4     LIBCMT:winapinls.obj
 0002:00010bf0       ??_C@_1M@PNBLONPJ@?$AAs?$AAk?$AA?9?$AAs?$AAk?$AA?$AA@ 10052bf0     LIBCMT:winapinls.obj
 0002:00010bfc       ??_C@_1M@LFMODOAL@?$AAs?$AAl?$AA?9?$AAs?$AAi?$AA?$AA@ 10052bfc     LIBCMT:winapinls.obj
 0002:00010c08       ??_C@_1O@DFKOMPG@?$AAs?$AAm?$AAa?$AA?9?$AAn?$AAo?$AA?$AA@ 10052c08     LIBCMT:winapinls.obj
 0002:00010c18       ??_C@_1O@NDKPBNNH@?$AAs?$AAm?$AAa?$AA?9?$AAs?$AAe?$AA?$AA@ 10052c18     LIBCMT:winapinls.obj
 0002:00010c28       ??_C@_1O@PLLKBHAB@?$AAs?$AAm?$AAj?$AA?9?$AAn?$AAo?$AA?$AA@ 10052c28     LIBCMT:winapinls.obj
 0002:00010c38       ??_C@_1O@CLEPOGCA@?$AAs?$AAm?$AAj?$AA?9?$AAs?$AAe?$AA?$AA@ 10052c38     LIBCMT:winapinls.obj
 0002:00010c48       ??_C@_1O@DLGJGKMK@?$AAs?$AAm?$AAn?$AA?9?$AAf?$AAi?$AA?$AA@ 10052c48     LIBCMT:winapinls.obj
 0002:00010c58       ??_C@_1O@OJDJGAJC@?$AAs?$AAm?$AAs?$AA?9?$AAf?$AAi?$AA?$AA@ 10052c58     LIBCMT:winapinls.obj
 0002:00010c68       ??_C@_1M@BOFOGHPB@?$AAs?$AAq?$AA?9?$AAa?$AAl?$AA?$AA@ 10052c68     LIBCMT:winapinls.obj
 0002:00010c74       ??_C@_1BG@LJBBIPGB@?$AAs?$AAr?$AA?9?$AAb?$AAa?$AA?9?$AAc?$AAy?$AAr?$AAl?$AA?$AA@ 10052c74     LIBCMT:winapinls.obj
 0002:00010c8c       ??_C@_1BG@JLBENFOE@?$AAs?$AAr?$AA?9?$AAb?$AAa?$AA?9?$AAl?$AAa?$AAt?$AAn?$AA?$AA@ 10052c8c     LIBCMT:winapinls.obj
 0002:00010ca4       ??_C@_1BG@KODPNHE@?$AAs?$AAr?$AA?9?$AAs?$AAp?$AA?9?$AAc?$AAy?$AAr?$AAl?$AA?$AA@ 10052ca4     LIBCMT:winapinls.obj
 0002:00010cbc       ??_C@_1BG@CIOGKHPB@?$AAs?$AAr?$AA?9?$AAs?$AAp?$AA?9?$AAl?$AAa?$AAt?$AAn?$AA?$AA@ 10052cbc     LIBCMT:winapinls.obj
 0002:00010cd4       ??_C@_1M@NGFJLMAC@?$AAs?$AAv?$AA?9?$AAf?$AAi?$AA?$AA@ 10052cd4     LIBCMT:winapinls.obj
 0002:00010ce0       ??_C@_1M@MPJEJAJC@?$AAs?$AAv?$AA?9?$AAs?$AAe?$AA?$AA@ 10052ce0     LIBCMT:winapinls.obj
 0002:00010cec       ??_C@_1M@MPNDHLFK@?$AAs?$AAw?$AA?9?$AAk?$AAe?$AA?$AA@ 10052cec     LIBCMT:winapinls.obj
 0002:00010cf8       ??_C@_1O@KOHBJJI@?$AAs?$AAy?$AAr?$AA?9?$AAs?$AAy?$AA?$AA@ 10052cf8     LIBCMT:winapinls.obj
 0002:00010d08       ??_C@_1M@LDCEFHA@?$AAt?$AAa?$AA?9?$AAi?$AAn?$AA?$AA@ 10052d08     LIBCMT:winapinls.obj
 0002:00010d14       ??_C@_1M@CNJOFAK@?$AAt?$AAe?$AA?9?$AAi?$AAn?$AA?$AA@ 10052d14     LIBCMT:winapinls.obj
 0002:00010d20       ??_C@_1M@GNAECACD@?$AAt?$AAh?$AA?9?$AAt?$AAh?$AA?$AA@ 10052d20     LIBCMT:winapinls.obj
 0002:00010d2c       ??_C@_1M@CHBIHOJO@?$AAt?$AAn?$AA?9?$AAz?$AAa?$AA?$AA@ 10052d2c     LIBCMT:winapinls.obj
 0002:00010d38       ??_C@_1M@GCCMIGPJ@?$AAt?$AAr?$AA?9?$AAt?$AAr?$AA?$AA@ 10052d38     LIBCMT:winapinls.obj
 0002:00010d44       ??_C@_1M@CELMCNBK@?$AAt?$AAt?$AA?9?$AAr?$AAu?$AA?$AA@ 10052d44     LIBCMT:winapinls.obj
 0002:00010d50       ??_C@_1M@KLMCELGA@?$AAu?$AAk?$AA?9?$AAu?$AAa?$AA?$AA@ 10052d50     LIBCMT:winapinls.obj
 0002:00010d5c       ??_C@_1M@EPAJJAJF@?$AAu?$AAr?$AA?9?$AAp?$AAk?$AA?$AA@ 10052d5c     LIBCMT:winapinls.obj
 0002:00010d68       ??_C@_1BG@GEGPMCDJ@?$AAu?$AAz?$AA?9?$AAu?$AAz?$AA?9?$AAc?$AAy?$AAr?$AAl?$AA?$AA@ 10052d68     LIBCMT:winapinls.obj
 0002:00010d80       ??_C@_1BG@EGGKJILM@?$AAu?$AAz?$AA?9?$AAu?$AAz?$AA?9?$AAl?$AAa?$AAt?$AAn?$AA?$AA@ 10052d80     LIBCMT:winapinls.obj
 0002:00010d98       ??_C@_1M@GFOCLFF@?$AAv?$AAi?$AA?9?$AAv?$AAn?$AA?$AA@ 10052d98     LIBCMT:winapinls.obj
 0002:00010da4       ??_C@_1M@CPAMEDFI@?$AAx?$AAh?$AA?9?$AAz?$AAa?$AA?$AA@ 10052da4     LIBCMT:winapinls.obj
 0002:00010db0       ??_C@_1O@EBKIFIGN@?$AAz?$AAh?$AA?9?$AAc?$AAh?$AAs?$AA?$AA@ 10052db0     LIBCMT:winapinls.obj
 0002:00010dc0       ??_C@_1O@NMHPGANE@?$AAz?$AAh?$AA?9?$AAc?$AAh?$AAt?$AA?$AA@ 10052dc0     LIBCMT:winapinls.obj
 0002:00010dd0       ??_C@_1M@LPINJOMC@?$AAz?$AAh?$AA?9?$AAc?$AAn?$AA?$AA@ 10052dd0     LIBCMT:winapinls.obj
 0002:00010ddc       ??_C@_1M@OCJEJODD@?$AAz?$AAh?$AA?9?$AAh?$AAk?$AA?$AA@ 10052ddc     LIBCMT:winapinls.obj
 0002:00010de8       ??_C@_1M@DNDLJINH@?$AAz?$AAh?$AA?9?$AAm?$AAo?$AA?$AA@ 10052de8     LIBCMT:winapinls.obj
 0002:00010df4       ??_C@_1M@MBFDNDND@?$AAz?$AAh?$AA?9?$AAs?$AAg?$AA?$AA@ 10052df4     LIBCMT:winapinls.obj
 0002:00010e00       ??_C@_1M@IMEPLEPE@?$AAz?$AAh?$AA?9?$AAt?$AAw?$AA?$AA@ 10052e00     LIBCMT:winapinls.obj
 0002:00010e0c       ??_C@_1M@BBGHNHJP@?$AAz?$AAu?$AA?9?$AAz?$AAa?$AA?$AA@ 10052e0c     LIBCMT:winapinls.obj
 0002:00010e18       ___newctype                10052e18     LIBCMT:ctype.obj
 0002:00011118       __wctype                   10053118     LIBCMT:ctype.obj
 0002:00011320       ___newclmap                10053320     LIBCMT:ctype.obj
 0002:000114a0       ___newcumap                100534a0     LIBCMT:ctype.obj
 0002:00011620       ___lc_category             10053620     LIBCMT:wsetloca.obj
 0002:00011668       ??_C@_1O@GIFLHMA@?$AAL?$AAC?$AA_?$AAA?$AAL?$AAL?$AA?$AA@ 10053668     LIBCMT:wsetloca.obj
 0002:00011678       ??_C@_1BG@PPOMIBNJ@?$AAL?$AAC?$AA_?$AAC?$AAO?$AAL?$AAL?$AAA?$AAT?$AAE?$AA?$AA@ 10053678     LIBCMT:wsetloca.obj
 0002:00011690       ??_C@_1BC@FFJGAPJM@?$AAL?$AAC?$AA_?$AAC?$AAT?$AAY?$AAP?$AAE?$AA?$AA@ 10053690     LIBCMT:wsetloca.obj
 0002:000116a4       ??_C@_1BI@PCKFNJFB@?$AAL?$AAC?$AA_?$AAM?$AAO?$AAN?$AAE?$AAT?$AAA?$AAR?$AAY?$AA?$AA@ 100536a4     LIBCMT:wsetloca.obj
 0002:000116bc       ??_C@_1BG@ENIEDKID@?$AAL?$AAC?$AA_?$AAN?$AAU?$AAM?$AAE?$AAR?$AAI?$AAC?$AA?$AA@ 100536bc     LIBCMT:wsetloca.obj
 0002:000116d4       ??_C@_1BA@HAAOMIIG@?$AAL?$AAC?$AA_?$AAT?$AAI?$AAM?$AAE?$AA?$AA@ 100536d4     LIBCMT:wsetloca.obj
 0002:00011768       ??_C@_15NBPDDFIP@?$AA?$DN?$AA?$DL?$AA?$AA@ 10053768     LIBCMT:wsetloca.obj
 0002:00011770       ??_C@_13PJJBFPED@?$AA?$DL?$AA?$AA@ 10053770     LIBCMT:wsetloca.obj
 0002:00011774       ??_C@_13NMPKAAJP@?$AA?$DN?$AA?$AA@ 10053774     LIBCMT:wsetloca.obj
 0002:00011778       ??_C@_13FHBKNHDA@?$AAC?$AA?$AA@ 10053778     LIBCMT:wsetloca.obj
 0002:0001177c       ??_C@_17MBJJLFDM@?$AA_?$AA?4?$AA?0?$AA?$AA@ 1005377c     LIBCMT:wsetloca.obj
 0002:00011784       ??_C@_13ENNFDPBH@?$AA_?$AA?$AA@ 10053784     LIBCMT:wsetloca.obj
 0002:00011788       ??_C@_13JOFGPIOO@?$AA?4?$AA?$AA@ 10053788     LIBCMT:wsetloca.obj
 0002:0001178c       ??_C@_06PGGFOGJG@1?$CDSNAN?$AA@ 1005378c     LIBCMT:x10fout.obj
 0002:00011794       ??_C@_05PHHOCPM@1?$CDIND?$AA@ 10053794     LIBCMT:x10fout.obj
 0002:0001179c       ??_C@_05DNEBIAHO@1?$CDINF?$AA@ 1005379c     LIBCMT:x10fout.obj
 0002:000117a4       ??_C@_06IMKFLFPG@1?$CDQNAN?$AA@ 100537a4     LIBCMT:x10fout.obj
 0002:000117ac       ??_C@_0M@HHGEPIBF@CreateFile2?$AA@ 100537ac     LIBCMT:wopen.obj
 0002:000117b8       ??_C@_1BA@BALFACEM@?$AAC?$AAO?$AAN?$AAO?$AAU?$AAT?$AA$?$AA?$AA@ 100537b8     LIBCMT:initcon.obj
 0002:000117c8       ___rg_language             100537c8     LIBCMT:getqloc.obj
 0002:00011ad4       ??_C@_1BC@LLOKLNP@?$AAa?$AAm?$AAe?$AAr?$AAi?$AAc?$AAa?$AAn?$AA?$AA@ 10053ad4     LIBCMT:getqloc.obj
 0002:00011ae8       ??_C@_1CC@HEIGCDGG@?$AAa?$AAm?$AAe?$AAr?$AAi?$AAc?$AAa?$AAn?$AA?5?$AAe?$AAn?$AAg?$AAl?$AAi?$AAs?$AAh?$AA?$AA@ 10053ae8     LIBCMT:getqloc.obj
 0002:00011b0c       ??_C@_1CC@IHCNOMIN@?$AAa?$AAm?$AAe?$AAr?$AAi?$AAc?$AAa?$AAn?$AA?9?$AAe?$AAn?$AAg?$AAl?$AAi?$AAs?$AAh?$AA?$AA@ 10053b0c     LIBCMT:getqloc.obj
 0002:00011b30       ??_C@_1BG@GKAGPCGG@?$AAa?$AAu?$AAs?$AAt?$AAr?$AAa?$AAl?$AAi?$AAa?$AAn?$AA?$AA@ 10053b30     LIBCMT:getqloc.obj
 0002:00011b48       ??_C@_1BA@GMENCENF@?$AAb?$AAe?$AAl?$AAg?$AAi?$AAa?$AAn?$AA?$AA@ 10053b48     LIBCMT:getqloc.obj
 0002:00011b58       ??_C@_1BC@PJMIIAAN@?$AAc?$AAa?$AAn?$AAa?$AAd?$AAi?$AAa?$AAn?$AA?$AA@ 10053b58     LIBCMT:getqloc.obj
 0002:00011b6c       ??_C@_17NOIMNFBF@?$AAc?$AAh?$AAh?$AA?$AA@ 10053b6c     LIBCMT:getqloc.obj
 0002:00011b74       ??_C@_17GGDALCHA@?$AAc?$AAh?$AAi?$AA?$AA@ 10053b74     LIBCMT:getqloc.obj
 0002:00011b7c       ??_C@_1BA@NPNJKIBL@?$AAc?$AAh?$AAi?$AAn?$AAe?$AAs?$AAe?$AA?$AA@ 10053b7c     LIBCMT:getqloc.obj
 0002:00011b8c       ??_C@_1CC@DINBAMMJ@?$AAc?$AAh?$AAi?$AAn?$AAe?$AAs?$AAe?$AA?9?$AAh?$AAo?$AAn?$AAg?$AAk?$AAo?$AAn?$AAg?$AA?$AA@ 10053b8c     LIBCMT:getqloc.obj
 0002:00011bb0       ??_C@_1CG@IOBJPACO@?$AAc?$AAh?$AAi?$AAn?$AAe?$AAs?$AAe?$AA?9?$AAs?$AAi?$AAm?$AAp?$AAl?$AAi?$AAf?$AAi?$AAe?$AAd?$AA?$AA@ 10053bb0     LIBCMT:getqloc.obj
 0002:00011bd8       ??_C@_1CE@GAJNDCKG@?$AAc?$AAh?$AAi?$AAn?$AAe?$AAs?$AAe?$AA?9?$AAs?$AAi?$AAn?$AAg?$AAa?$AAp?$AAo?$AAr?$AAe?$AA?$AA@ 10053bd8     LIBCMT:getqloc.obj
 0002:00011bfc       ??_C@_1CI@PAJPIOOD@?$AAc?$AAh?$AAi?$AAn?$AAe?$AAs?$AAe?$AA?9?$AAt?$AAr?$AAa?$AAd?$AAi?$AAt?$AAi?$AAo?$AAn?$AAa?$AAl?$AA?$AA@ 10053bfc     LIBCMT:getqloc.obj
 0002:00011c24       ??_C@_1BM@NILJBMMD@?$AAd?$AAu?$AAt?$AAc?$AAh?$AA?9?$AAb?$AAe?$AAl?$AAg?$AAi?$AAa?$AAn?$AA?$AA@ 10053c24     LIBCMT:getqloc.obj
 0002:00011c40       ??_C@_1CC@OOJPJNEJ@?$AAe?$AAn?$AAg?$AAl?$AAi?$AAs?$AAh?$AA?9?$AAa?$AAm?$AAe?$AAr?$AAi?$AAc?$AAa?$AAn?$AA?$AA@ 10053c40     LIBCMT:getqloc.obj
 0002:00011c64       ??_C@_1BI@IOLFEEM@?$AAe?$AAn?$AAg?$AAl?$AAi?$AAs?$AAh?$AA?9?$AAa?$AAu?$AAs?$AA?$AA@ 10053c64     LIBCMT:getqloc.obj
 0002:00011c7c       ??_C@_1BO@HFFNLENJ@?$AAe?$AAn?$AAg?$AAl?$AAi?$AAs?$AAh?$AA?9?$AAb?$AAe?$AAl?$AAi?$AAz?$AAe?$AA?$AA@ 10053c7c     LIBCMT:getqloc.obj
 0002:00011c9c       ??_C@_1BI@HAPKJMPO@?$AAe?$AAn?$AAg?$AAl?$AAi?$AAs?$AAh?$AA?9?$AAc?$AAa?$AAn?$AA?$AA@ 10053c9c     LIBCMT:getqloc.obj
 0002:00011cb4       ??_C@_1CE@HLNDMIOJ@?$AAe?$AAn?$AAg?$AAl?$AAi?$AAs?$AAh?$AA?9?$AAc?$AAa?$AAr?$AAi?$AAb?$AAb?$AAe?$AAa?$AAn?$AA?$AA@ 10053cb4     LIBCMT:getqloc.obj
 0002:00011cd8       ??_C@_1BI@LDHJHHAC@?$AAe?$AAn?$AAg?$AAl?$AAi?$AAs?$AAh?$AA?9?$AAi?$AAr?$AAe?$AA?$AA@ 10053cd8     LIBCMT:getqloc.obj
 0002:00011cf0       ??_C@_1CA@NJMMCFOC@?$AAe?$AAn?$AAg?$AAl?$AAi?$AAs?$AAh?$AA?9?$AAj?$AAa?$AAm?$AAa?$AAi?$AAc?$AAa?$AA?$AA@ 10053cf0     LIBCMT:getqloc.obj
 0002:00011d10       ??_C@_1BG@BHJEBBGG@?$AAe?$AAn?$AAg?$AAl?$AAi?$AAs?$AAh?$AA?9?$AAn?$AAz?$AA?$AA@ 10053d10     LIBCMT:getqloc.obj
 0002:00011d28       ??_C@_1CK@FGOEJJCO@?$AAe?$AAn?$AAg?$AAl?$AAi?$AAs?$AAh?$AA?9?$AAs?$AAo?$AAu?$AAt?$AAh?$AA?5?$AAa?$AAf?$AAr?$AAi?$AAc?$AAa?$AA?$AA@ 10053d28     LIBCMT:getqloc.obj
 0002:00011d54       ??_C@_1DE@PDBJPCJ@?$AAe?$AAn?$AAg?$AAl?$AAi?$AAs?$AAh?$AA?9?$AAt?$AAr?$AAi?$AAn?$AAi?$AAd?$AAa?$AAd?$AA?5?$AAy?$AA?5?$AAt?$AAo?$AAb?$AAa?$AAg?$AAo?$AA?$AA@ 10053d54     LIBCMT:getqloc.obj
 0002:00011d88       ??_C@_1BG@JGCANDME@?$AAe?$AAn?$AAg?$AAl?$AAi?$AAs?$AAh?$AA?9?$AAu?$AAk?$AA?$AA@ 10053d88     LIBCMT:getqloc.obj
 0002:00011da0       ??_C@_1BG@DINKMLE@?$AAe?$AAn?$AAg?$AAl?$AAi?$AAs?$AAh?$AA?9?$AAu?$AAs?$AA?$AA@ 10053da0     LIBCMT:getqloc.obj
 0002:00011db8       ??_C@_1BI@NMFDBHJE@?$AAe?$AAn?$AAg?$AAl?$AAi?$AAs?$AAh?$AA?9?$AAu?$AAs?$AAa?$AA?$AA@ 10053db8     LIBCMT:getqloc.obj
 0002:00011dd0       ??_C@_1BO@OIHKJKII@?$AAf?$AAr?$AAe?$AAn?$AAc?$AAh?$AA?9?$AAb?$AAe?$AAl?$AAg?$AAi?$AAa?$AAn?$AA?$AA@ 10053dd0     LIBCMT:getqloc.obj
 0002:00011df0       ??_C@_1CA@NKAELJKI@?$AAf?$AAr?$AAe?$AAn?$AAc?$AAh?$AA?9?$AAc?$AAa?$AAn?$AAa?$AAd?$AAi?$AAa?$AAn?$AA?$AA@ 10053df0     LIBCMT:getqloc.obj
 0002:00011e10       ??_C@_1CE@MGKCNLGN@?$AAf?$AAr?$AAe?$AAn?$AAc?$AAh?$AA?9?$AAl?$AAu?$AAx?$AAe?$AAm?$AAb?$AAo?$AAu?$AAr?$AAg?$AA?$AA@ 10053e10     LIBCMT:getqloc.obj
 0002:00011e34       ??_C@_1BK@CEGEAILM@?$AAf?$AAr?$AAe?$AAn?$AAc?$AAh?$AA?9?$AAs?$AAw?$AAi?$AAs?$AAs?$AA?$AA@ 10053e34     LIBCMT:getqloc.obj
 0002:00011e50       ??_C@_1CA@PAFKEOCC@?$AAg?$AAe?$AAr?$AAm?$AAa?$AAn?$AA?9?$AAa?$AAu?$AAs?$AAt?$AAr?$AAi?$AAa?$AAn?$AA?$AA@ 10053e50     LIBCMT:getqloc.obj
 0002:00011e70       ??_C@_1CI@HCFHGOFD@?$AAg?$AAe?$AAr?$AAm?$AAa?$AAn?$AA?9?$AAl?$AAi?$AAc?$AAh?$AAt?$AAe?$AAn?$AAs?$AAt?$AAe?$AAi?$AAn?$AA?$AA@ 10053e70     LIBCMT:getqloc.obj
 0002:00011e98       ??_C@_1CE@FEDDNPDG@?$AAg?$AAe?$AAr?$AAm?$AAa?$AAn?$AA?9?$AAl?$AAu?$AAx?$AAe?$AAm?$AAb?$AAo?$AAu?$AAr?$AAg?$AA?$AA@ 10053e98     LIBCMT:getqloc.obj
 0002:00011ebc       ??_C@_1BK@LIMINNMN@?$AAg?$AAe?$AAr?$AAm?$AAa?$AAn?$AA?9?$AAs?$AAw?$AAi?$AAs?$AAs?$AA?$AA@ 10053ebc     LIBCMT:getqloc.obj
 0002:00011ed8       ??_C@_1BM@LGMDBEPD@?$AAi?$AAr?$AAi?$AAs?$AAh?$AA?9?$AAe?$AAn?$AAg?$AAl?$AAi?$AAs?$AAh?$AA?$AA@ 10053ed8     LIBCMT:getqloc.obj
 0002:00011ef4       ??_C@_1BM@NNCFBAEE@?$AAi?$AAt?$AAa?$AAl?$AAi?$AAa?$AAn?$AA?9?$AAs?$AAw?$AAi?$AAs?$AAs?$AA?$AA@ 10053ef4     LIBCMT:getqloc.obj
 0002:00011f10       ??_C@_1BE@FEDJNPIB@?$AAn?$AAo?$AAr?$AAw?$AAe?$AAg?$AAi?$AAa?$AAn?$AA?$AA@ 10053f10     LIBCMT:getqloc.obj
 0002:00011f24       ??_C@_1CC@CILKDEIE@?$AAn?$AAo?$AAr?$AAw?$AAe?$AAg?$AAi?$AAa?$AAn?$AA?9?$AAb?$AAo?$AAk?$AAm?$AAa?$AAl?$AA?$AA@ 10053f24     LIBCMT:getqloc.obj
 0002:00011f48       ??_C@_1CE@DHMMHEPL@?$AAn?$AAo?$AAr?$AAw?$AAe?$AAg?$AAi?$AAa?$AAn?$AA?9?$AAn?$AAy?$AAn?$AAo?$AAr?$AAs?$AAk?$AA?$AA@ 10053f48     LIBCMT:getqloc.obj
 0002:00011f6c       ??_C@_1CK@OPNMHECD@?$AAp?$AAo?$AAr?$AAt?$AAu?$AAg?$AAu?$AAe?$AAs?$AAe?$AA?9?$AAb?$AAr?$AAa?$AAz?$AAi?$AAl?$AAi?$AAa?$AAn?$AA?$AA@ 10053f6c     LIBCMT:getqloc.obj
 0002:00011f98       ??_C@_1CE@KEEHCDB@?$AAs?$AAp?$AAa?$AAn?$AAi?$AAs?$AAh?$AA?9?$AAa?$AAr?$AAg?$AAe?$AAn?$AAt?$AAi?$AAn?$AAa?$AA?$AA@ 10053f98     LIBCMT:getqloc.obj
 0002:00011fbc       ??_C@_1CA@GIAOLHJD@?$AAs?$AAp?$AAa?$AAn?$AAi?$AAs?$AAh?$AA?9?$AAb?$AAo?$AAl?$AAi?$AAv?$AAi?$AAa?$AA?$AA@ 10053fbc     LIBCMT:getqloc.obj
 0002:00011fdc       ??_C@_1BM@OJNDFNPD@?$AAs?$AAp?$AAa?$AAn?$AAi?$AAs?$AAh?$AA?9?$AAc?$AAh?$AAi?$AAl?$AAe?$AA?$AA@ 10053fdc     LIBCMT:getqloc.obj
 0002:00011ff8       ??_C@_1CC@OCOLPALL@?$AAs?$AAp?$AAa?$AAn?$AAi?$AAs?$AAh?$AA?9?$AAc?$AAo?$AAl?$AAo?$AAm?$AAb?$AAi?$AAa?$AA?$AA@ 10053ff8     LIBCMT:getqloc.obj
 0002:0001201c       ??_C@_1CG@BPOFMKBB@?$AAs?$AAp?$AAa?$AAn?$AAi?$AAs?$AAh?$AA?9?$AAc?$AAo?$AAs?$AAt?$AAa?$AA?5?$AAr?$AAi?$AAc?$AAa?$AA?$AA@ 1005401c     LIBCMT:getqloc.obj
 0002:00012044       ??_C@_1DG@IGOBAPBB@?$AAs?$AAp?$AAa?$AAn?$AAi?$AAs?$AAh?$AA?9?$AAd?$AAo?$AAm?$AAi?$AAn?$AAi?$AAc?$AAa?$AAn?$AA?5?$AAr?$AAe?$AAp?$AAu?$AAb?$AAl?$AAi?$AAc?$AA?$AA@ 10054044     LIBCMT:getqloc.obj
 0002:0001207c       ??_C@_1CA@JHAPGEGI@?$AAs?$AAp?$AAa?$AAn?$AAi?$AAs?$AAh?$AA?9?$AAe?$AAc?$AAu?$AAa?$AAd?$AAo?$AAr?$AA?$AA@ 1005407c     LIBCMT:getqloc.obj
 0002:0001209c       ??_C@_1CI@LAPALJPP@?$AAs?$AAp?$AAa?$AAn?$AAi?$AAs?$AAh?$AA?9?$AAe?$AAl?$AA?5?$AAs?$AAa?$AAl?$AAv?$AAa?$AAd?$AAo?$AAr?$AA?$AA@ 1005409c     LIBCMT:getqloc.obj
 0002:000120c4       ??_C@_1CE@PDGBOFOM@?$AAs?$AAp?$AAa?$AAn?$AAi?$AAs?$AAh?$AA?9?$AAg?$AAu?$AAa?$AAt?$AAe?$AAm?$AAa?$AAl?$AAa?$AA?$AA@ 100540c4     LIBCMT:getqloc.obj
 0002:000120e8       ??_C@_1CC@NBEBAODI@?$AAs?$AAp?$AAa?$AAn?$AAi?$AAs?$AAh?$AA?9?$AAh?$AAo?$AAn?$AAd?$AAu?$AAr?$AAa?$AAs?$AA?$AA@ 100540e8     LIBCMT:getqloc.obj
 0002:0001210c       ??_C@_1CA@LLKGHBMF@?$AAs?$AAp?$AAa?$AAn?$AAi?$AAs?$AAh?$AA?9?$AAm?$AAe?$AAx?$AAi?$AAc?$AAa?$AAn?$AA?$AA@ 1005410c     LIBCMT:getqloc.obj
 0002:0001212c       ??_C@_1BO@LKNDOIGD@?$AAs?$AAp?$AAa?$AAn?$AAi?$AAs?$AAh?$AA?9?$AAm?$AAo?$AAd?$AAe?$AAr?$AAn?$AA?$AA@ 1005412c     LIBCMT:getqloc.obj
 0002:0001214c       ??_C@_1CE@NMDMOEEB@?$AAs?$AAp?$AAa?$AAn?$AAi?$AAs?$AAh?$AA?9?$AAn?$AAi?$AAc?$AAa?$AAr?$AAa?$AAg?$AAu?$AAa?$AA?$AA@ 1005414c     LIBCMT:getqloc.obj
 0002:00012170       ??_C@_1BO@LLCBEJGB@?$AAs?$AAp?$AAa?$AAn?$AAi?$AAs?$AAh?$AA?9?$AAp?$AAa?$AAn?$AAa?$AAm?$AAa?$AA?$AA@ 10054170     LIBCMT:getqloc.obj
 0002:00012190       ??_C@_1CC@FKPGGIHO@?$AAs?$AAp?$AAa?$AAn?$AAi?$AAs?$AAh?$AA?9?$AAp?$AAa?$AAr?$AAa?$AAg?$AAu?$AAa?$AAy?$AA?$AA@ 10054190     LIBCMT:getqloc.obj
 0002:000121b4       ??_C@_1BK@CDEIHOOP@?$AAs?$AAp?$AAa?$AAn?$AAi?$AAs?$AAh?$AA?9?$AAp?$AAe?$AAr?$AAu?$AA?$AA@ 100541b4     LIBCMT:getqloc.obj
 0002:000121d0       ??_C@_1CI@GAHAKKGP@?$AAs?$AAp?$AAa?$AAn?$AAi?$AAs?$AAh?$AA?9?$AAp?$AAu?$AAe?$AAr?$AAt?$AAo?$AA?5?$AAr?$AAi?$AAc?$AAo?$AA?$AA@ 100541d0     LIBCMT:getqloc.obj
 0002:000121f8       ??_C@_1CA@NKJBCAGP@?$AAs?$AAp?$AAa?$AAn?$AAi?$AAs?$AAh?$AA?9?$AAu?$AAr?$AAu?$AAg?$AAu?$AAa?$AAy?$AA?$AA@ 100541f8     LIBCMT:getqloc.obj
 0002:00012218       ??_C@_1CE@ODILCONM@?$AAs?$AAp?$AAa?$AAn?$AAi?$AAs?$AAh?$AA?9?$AAv?$AAe?$AAn?$AAe?$AAz?$AAu?$AAe?$AAl?$AAa?$AA?$AA@ 10054218     LIBCMT:getqloc.obj
 0002:0001223c       ??_C@_1CA@OBNMCGFO@?$AAs?$AAw?$AAe?$AAd?$AAi?$AAs?$AAh?$AA?9?$AAf?$AAi?$AAn?$AAl?$AAa?$AAn?$AAd?$AA?$AA@ 1005423c     LIBCMT:getqloc.obj
 0002:0001225c       ??_C@_1M@PIPDDPPI@?$AAs?$AAw?$AAi?$AAs?$AAs?$AA?$AA@ 1005425c     LIBCMT:getqloc.obj
 0002:00012268       ??_C@_15GMFIMNFM@?$AAu?$AAs?$AA?$AA@ 10054268     LIBCMT:getqloc.obj
 0002:00012270       ??_C@_17HAEBFAGL@?$AAu?$AAs?$AAa?$AA?$AA@ 10054270     LIBCMT:getqloc.obj
 0002:00012278       ___rg_country              10054278     LIBCMT:getqloc.obj
 0002:0001238c       ??_C@_1BA@DPFJEPHB@?$AAa?$AAm?$AAe?$AAr?$AAi?$AAc?$AAa?$AA?$AA@ 1005438c     LIBCMT:getqloc.obj
 0002:0001239c       ??_C@_1BA@ELOGGFK@?$AAb?$AAr?$AAi?$AAt?$AAa?$AAi?$AAn?$AA?$AA@ 1005439c     LIBCMT:getqloc.obj
 0002:000123ac       ??_C@_1M@GHBGIGDA@?$AAc?$AAh?$AAi?$AAn?$AAa?$AA?$AA@ 100543ac     LIBCMT:getqloc.obj
 0002:000123b8       ??_C@_1M@NCHEJOPO@?$AAc?$AAz?$AAe?$AAc?$AAh?$AA?$AA@ 100543b8     LIBCMT:getqloc.obj
 0002:000123c4       ??_C@_1BA@BKPAPBLA@?$AAe?$AAn?$AAg?$AAl?$AAa?$AAn?$AAd?$AA?$AA@ 100543c4     LIBCMT:getqloc.obj
 0002:000123d4       ??_C@_1BM@HKBCKIPC@?$AAg?$AAr?$AAe?$AAa?$AAt?$AA?5?$AAb?$AAr?$AAi?$AAt?$AAa?$AAi?$AAn?$AA?$AA@ 100543d4     LIBCMT:getqloc.obj
 0002:000123f0       ??_C@_1BA@PPCHPGJB@?$AAh?$AAo?$AAl?$AAl?$AAa?$AAn?$AAd?$AA?$AA@ 100543f0     LIBCMT:getqloc.obj
 0002:00012400       ??_C@_1BE@JBMPEGDG@?$AAh?$AAo?$AAn?$AAg?$AA?9?$AAk?$AAo?$AAn?$AAg?$AA?$AA@ 10054400     LIBCMT:getqloc.obj
 0002:00012414       ??_C@_1BI@KOELBBPJ@?$AAn?$AAe?$AAw?$AA?9?$AAz?$AAe?$AAa?$AAl?$AAa?$AAn?$AAd?$AA?$AA@ 10054414     LIBCMT:getqloc.obj
 0002:0001242c       ??_C@_15HIEBHAIO@?$AAn?$AAz?$AA?$AA@ 1005442c     LIBCMT:getqloc.obj
 0002:00012434       ??_C@_1BC@CHBCPFPI@?$AAp?$AAr?$AA?5?$AAc?$AAh?$AAi?$AAn?$AAa?$AA?$AA@ 10054434     LIBCMT:getqloc.obj
 0002:00012448       ??_C@_1BC@JAOIIFKD@?$AAp?$AAr?$AA?9?$AAc?$AAh?$AAi?$AAn?$AAa?$AA?$AA@ 10054448     LIBCMT:getqloc.obj
 0002:0001245c       ??_C@_1BI@BEHPPHKC@?$AAp?$AAu?$AAe?$AAr?$AAt?$AAo?$AA?9?$AAr?$AAi?$AAc?$AAo?$AA?$AA@ 1005445c     LIBCMT:getqloc.obj
 0002:00012474       ??_C@_1O@PAEOFKDI@?$AAs?$AAl?$AAo?$AAv?$AAa?$AAk?$AA?$AA@ 10054474     LIBCMT:getqloc.obj
 0002:00012484       ??_C@_1BK@FIHMCKAM@?$AAs?$AAo?$AAu?$AAt?$AAh?$AA?5?$AAa?$AAf?$AAr?$AAi?$AAc?$AAa?$AA?$AA@ 10054484     LIBCMT:getqloc.obj
 0002:000124a0       ??_C@_1BI@NAEOODKB@?$AAs?$AAo?$AAu?$AAt?$AAh?$AA?5?$AAk?$AAo?$AAr?$AAe?$AAa?$AA?$AA@ 100544a0     LIBCMT:getqloc.obj
 0002:000124b8       ??_C@_1BK@FBDGGIFF@?$AAs?$AAo?$AAu?$AAt?$AAh?$AA?9?$AAa?$AAf?$AAr?$AAi?$AAc?$AAa?$AA?$AA@ 100544b8     LIBCMT:getqloc.obj
 0002:000124d4       ??_C@_1BI@GHLEJDPK@?$AAs?$AAo?$AAu?$AAt?$AAh?$AA?9?$AAk?$AAo?$AAr?$AAe?$AAa?$AA?$AA@ 100544d4     LIBCMT:getqloc.obj
 0002:000124ec       ??_C@_1CE@PLHLOMJF@?$AAt?$AAr?$AAi?$AAn?$AAi?$AAd?$AAa?$AAd?$AA?5?$AA?$CG?$AA?5?$AAt?$AAo?$AAb?$AAa?$AAg?$AAo?$AA?$AA@ 100544ec     LIBCMT:getqloc.obj
 0002:00012510       ??_C@_1BO@MODIMHHI@?$AAu?$AAn?$AAi?$AAt?$AAe?$AAd?$AA?9?$AAk?$AAi?$AAn?$AAg?$AAd?$AAo?$AAm?$AA?$AA@ 10054510     LIBCMT:getqloc.obj
 0002:00012530       ??_C@_1BM@FFHJONBJ@?$AAu?$AAn?$AAi?$AAt?$AAe?$AAd?$AA?9?$AAs?$AAt?$AAa?$AAt?$AAe?$AAs?$AA?$AA@ 10054530     LIBCMT:getqloc.obj
 0002:0001254c       ___rg_language_count       1005454c     LIBCMT:getqloc.obj
 0002:00012550       ___rg_country_count        10054550     LIBCMT:getqloc.obj
 0002:00012554       ??_C@_17DNCLJFIF@?$AAA?$AAC?$AAP?$AA?$AA@ 10054554     LIBCMT:getqloc.obj
 0002:0001255c       ??_C@_17CIKBIHLH@?$AAO?$AAC?$AAP?$AA?$AA@ 1005455c     LIBCMT:getqloc.obj
 0002:00012564       ___rglangidNotDefault      10054564     LIBCMT:getqloc_downlevel.obj
 0002:00012578       __real@00000000            10054578     LIBCMT:wcstoq.obj
 0002:00012580       __load_config_used         10054580     LIBCMT:loadcfg.obj
 0002:00014880       ___safe_se_handler_table   10056880     <linker-defined>
 0002:00014990       ___rtc_iaa                 10056990     LIBCMT:initsect.obj
 0002:00014a94       ___rtc_izz                 10056a94     LIBCMT:initsect.obj
 0002:00014b98       ___rtc_taa                 10056b98     LIBCMT:initsect.obj
 0002:00014c9c       ___rtc_tzz                 10056c9c     LIBCMT:initsect.obj
 0003:00000568       _FingerStrokeAssistance_P  10058568     FingerStrokeAssistance_data.obj
 0003:00000ed8       _pci20041digout            10058ed8     xpctarget.obj
 0003:00000edc       _nipcdio24cnfg             10058edc     xpctarget.obj
 0003:00000ee0       _rtddm6604cnfg             10058ee0     xpctarget.obj
 0003:00001608       _DefaultCOMIOBase          10059608     xpcruntime:xpcimports.obj
 0003:00001618       _DefaultCOMIRQ             10059618     xpcruntime:xpcimports.obj
 0003:00001630       __fltused                  10059630     LIBCMT:fpinit.obj
 0003:00001634       __ldused                   10059634     LIBCMT:fpinit.obj
 0003:00001640       __iob                      10059640     LIBCMT:_file.obj
 0003:000018c0       ___isa_enabled             100598c0     LIBCMT:cpu_disp.obj
 0003:000018c4       ___security_cookie         100598c4     LIBCMT:gs_cookie.obj
 0003:000018c8       ___security_cookie_complement 100598c8     LIBCMT:gs_cookie.obj
 0003:00001aa0       ___nullstring              10059aa0     LIBCMT:output.obj
 0003:00001aa4       ___wnullstring             10059aa4     LIBCMT:output.obj
 0003:00001ab4       __cfltcvt_tab              10059ab4     LIBCMT:cmiscdat.obj
 0003:00001c00       __mbctype                  10059c00     LIBCMT:mbctype.obj
 0003:00001d08       __mbcasemap                10059d08     LIBCMT:mbctype.obj
 0003:00001e08       ___initialmbcinfo          10059e08     LIBCMT:mbctype.obj
 0003:0000202c       ___ptmbcinfo               1005a02c     LIBCMT:mbctype.obj
 0003:00002120       ___badioinfo               1005a120     LIBCMT:ioinit.obj
 0003:00002160       __lookuptrailbytes         1005a160     LIBCMT:read.obj
 0003:00002260       __d_inf                    1005a260     LIBCMT:util.obj
 0003:00002268       __d_ind                    1005a268     LIBCMT:util.obj
 0003:00002270       __d_max                    1005a270     LIBCMT:util.obj
 0003:00002278       __d_min                    1005a278     LIBCMT:util.obj
 0003:00002280       __d_mzero                  1005a280     LIBCMT:util.obj
 0003:0000238c       ___abort_behavior          1005a38c     LIBCMT:abort.obj
 0003:00002390       ___flsindex                1005a390     LIBCMT:tidtable.obj
 0003:000023a0       ___mb_cur_max              1005a3a0     LIBCMT:nlsdata.obj
 0003:000023a4       ___wclocalestr             1005a3a4     LIBCMT:nlsdata.obj
 0003:000023a8       ___lc_time_c               1005a3a8     LIBCMT:nlsdata.obj
 0003:0000250c       ___ptlocinfo               1005a50c     LIBCMT:nlsdata.obj
 0003:00002510       ___initiallocinfo          1005a510     LIBCMT:nlsdata.obj
 0003:000025c8       ___initiallocalestructinfo 1005a5c8     LIBCMT:nlsdata.obj
 0003:000025d0       ___globallocalestatus      1005a5d0     LIBCMT:glstatus.obj
 0003:000025d4       __matherr_flag             1005a5d4     LIBCMT:matherr.obj
 0003:000025e0       __NLG_Destination          1005a5e0     LIBCMT:exsup.obj
 0003:000025f0       ___lconv                   1005a5f0     LIBCMT:lconv.obj
 0003:000025f4       ___lconv_static_decimal    1005a5f4     LIBCMT:lconv.obj
 0003:000025f8       ___lconv_c                 1005a5f8     LIBCMT:lconv.obj
 0003:00002648       ___lconv_static_W_decimal  1005a648     LIBCMT:lconv.obj
 0003:0000264c       __pctype                   1005a64c     LIBCMT:ctype.obj
 0003:00002650       __pwctype                  1005a650     LIBCMT:ctype.obj
 0003:00002690       __confh                    1005a690     LIBCMT:initcon.obj
 0003:00002698       __pow10pos                 1005a698     LIBCMT:constpow.obj
 0003:000027f8       __pow10neg                 1005a7f8     LIBCMT:constpow.obj
 0003:00002960       __HUGE                     1005a960     LIBCMT:huge.obj
 0003:00002ebc       ___isa_available_default   1005aebc     rt_logging.obj
 0003:00002ecc       _pci20098PortA             1005aecc     xpctarget.obj
 0003:00002ed0       _pci20098PortB             1005aed0     xpctarget.obj
 0003:00002ed4       _siepowercan_firmware_initialized 1005aed4     xpctarget.obj
 0003:00002ed8       _siepowercan_port1_configured 1005aed8     xpctarget.obj
 0003:00002edc       _siepowercan_port2_configured 1005aedc     xpctarget.obj
 0003:00002ee0       _CANAC2_FIRMWARE_LOADED    1005aee0     xpctarget.obj
 0003:00002ee4       _rs232ports                1005aee4     xpctarget.obj
 0003:00002ef4       _NI_AT_MIO_16F_5_commreg2  1005aef4     xpctarget.obj
 0003:00002ef8       _RTD_DM6430_init           1005aef8     xpctarget.obj
 0003:00002efc       _RTD_DM6420_init           1005aefc     xpctarget.obj
 0003:00002f00       _CANAC2_FIRMWARE_LOADED_mb1 1005af00     xpctarget.obj
 0003:00002f04       _CANAC2_FIRMWARE_LOADED_mb2 1005af04     xpctarget.obj
 0003:00002f08       _CANAC2_FIRMWARE_LOADED_mb3 1005af08     xpctarget.obj
 0003:00002f0c       _xmlsize                   1005af0c     xpctarget.obj
 0003:00003618       ___fastflag                1005b618     LIBCMT:fpinit.obj
 0003:00003940       __C_Exit_Done              1005b940     LIBCMT:crt0dat.obj
 0003:00003944       ___argc                    1005b944     LIBCMT:crt0dat.obj
 0003:00003948       ___argv                    1005b948     LIBCMT:crt0dat.obj
 0003:0000394c       ___wargv                   1005b94c     LIBCMT:crt0dat.obj
 0003:00003950       __environ                  1005b950     LIBCMT:crt0dat.obj
 0003:00003954       __wenviron                 1005b954     LIBCMT:crt0dat.obj
 0003:00003958       __pgmptr                   1005b958     LIBCMT:crt0dat.obj
 0003:0000395c       __wpgmptr                  1005b95c     LIBCMT:crt0dat.obj
 0003:00003960       __umaskval                 1005b960     LIBCMT:crt0dat.obj
 0003:00003964       __exitflag                 1005b964     LIBCMT:crt0dat.obj
 0003:00003968       __C_Termination_Done       1005b968     LIBCMT:crt0dat.obj
 0003:0000396c       ___winitenv                1005b96c     LIBCMT:crt0dat.obj
 0003:00003970       ___initenv                 1005b970     LIBCMT:crt0dat.obj
 0003:00003974       __cflush                   1005b974     LIBCMT:_file.obj
 0003:00003978       ___isa_available           1005b978     LIBCMT:cpu_disp.obj
 0003:0000397c       ___favor                   1005b97c     LIBCMT:cpu_disp.obj
 0003:00003984       __aenvptr                  1005b984     LIBCMT:dllcrt0.obj
 0003:00003988       __wenvptr                  1005b988     LIBCMT:dllcrt0.obj
 0003:0000398c       ?_pnhHeap@@3P6AHI@ZA       1005b98c     LIBCMT:handler.obj
 0003:00003990       ___app_type                1005b990     LIBCMT:crt0msg.obj
 0003:00003fc0       __newmode                  1005bfc0     LIBCMT:_newmode.obj
 0003:00003fc4       __crtheap                  1005bfc4     LIBCMT:heapinit.obj
 0003:00003fc8       ___pInvalidArgHandler      1005bfc8     LIBCMT:invarg.obj
 0003:00003fcc       __stdbuf                   1005bfcc     LIBCMT:_sftbuf.obj
 0003:00004128       __maxwait                  1005c128     LIBCMT:crtheap.obj
 0003:0000412c       ?__pInconsistency@@3P6AXXZA 1005c12c     LIBCMT:hooks.obj
 0003:00004130       ___pPurecall               1005c130     LIBCMT:inithelp.obj
 0003:0000414c       ___mbcodepage              1005c14c     LIBCMT:mbctype.obj
 0003:00004150       ___ismbcodepage            1005c150     LIBCMT:mbctype.obj
 0003:00004154       ___mbulinfo                1005c154     LIBCMT:mbctype.obj
 0003:00004160       ___mblocalename            1005c160     LIBCMT:mbctype.obj
 0003:00004168       ___pioinfo                 1005c168     LIBCMT:ioinit.obj
 0003:00004268       ___error_mode              1005c268     LIBCMT:errmode.obj
 0003:00004388       __outputformat             1005c388     LIBCMT:outputformat.obj
 0003:00004390       __commode                  1005c390     LIBCMT:ncommode.obj
 0003:00004394       ___lconv_static_null       1005c394     LIBCMT:lconv.obj
 0003:00004398       ___lconv_static_W_null     1005c398     LIBCMT:lconv.obj
 0003:0000439c       ___locale_changed          1005c39c     LIBCMT:wsetloca.obj
 0003:000043a0       __fmode                    1005c3a0     LIBCMT:txtmode.obj
 0003:000043c0       _CANAC2_2_receiveindex_mb3 1005c3c0     <common>
 0003:00007494       _CANAC2_2_receivemaxindex_mb3 1005f494     <common>
 0003:000074a0       _CANAC2_2_sendindex_mb3    1005f4a0     <common>
 0003:000077c0       _CANAC2_2_sendmaxindex_mb3 1005f7c0     <common>
 0003:000077e0       _CANAC2_1_receiveindex_mb3 1005f7e0     <common>
 0003:00007b00       _CANAC2_1_receivemaxindex_mb3 1005fb00     <common>
 0003:00007b20       _CANAC2_1_sendindex_mb3    1005fb20     <common>
 0003:00007e40       _CANAC2_1_sendmaxindex_mb3 1005fe40     <common>
 0003:00007e60       _CANAC2_2_receive_mb3      1005fe60     <common>
 0003:00008180       _CANAC2_2_send_mb3         10060180     <common>
 0003:000084a0       _CANAC2_1_receive_mb3      100604a0     <common>
 0003:000087c0       _CANAC2_1_send_mb3         100607c0     <common>
 0003:00008ae0       _CANAC2_2_receiveindex_mb2 10060ae0     <common>
 0003:00008e00       _CANAC2_2_receivemaxindex_mb2 10060e00     <common>
 0003:00008e20       _CANAC2_2_sendindex_mb2    10060e20     <common>
 0003:00009140       _CANAC2_2_sendmaxindex_mb2 10061140     <common>
 0003:00009160       _CANAC2_1_receiveindex_mb2 10061160     <common>
 0003:00009480       _CANAC2_1_receivemaxindex_mb2 10061480     <common>
 0003:000094a0       _CANAC2_1_sendindex_mb2    100614a0     <common>
 0003:000097c0       _CANAC2_1_sendmaxindex_mb2 100617c0     <common>
 0003:000097e0       _CANAC2_2_receive_mb2      100617e0     <common>
 0003:00009b00       _CANAC2_2_send_mb2         10061b00     <common>
 0003:00009e20       _CANAC2_1_receive_mb2      10061e20     <common>
 0003:0000a140       _CANAC2_1_send_mb2         10062140     <common>
 0003:0000a460       _CANAC2_2_receiveindex_mb1 10062460     <common>
 0003:0000a780       _CANAC2_2_receivemaxindex_mb1 10062780     <common>
 0003:0000a7a0       _CANAC2_2_sendindex_mb1    100627a0     <common>
 0003:0000aac0       _CANAC2_2_sendmaxindex_mb1 10062ac0     <common>
 0003:0000aae0       _CANAC2_1_receiveindex_mb1 10062ae0     <common>
 0003:0000ae00       _CANAC2_1_receivemaxindex_mb1 10062e00     <common>
 0003:0000ae20       _CANAC2_1_sendindex_mb1    10062e20     <common>
 0003:0000b140       _CANAC2_1_sendmaxindex_mb1 10063140     <common>
 0003:0000b160       _CANAC2_2_receive_mb1      10063160     <common>
 0003:0000b480       _CANAC2_2_send_mb1         10063480     <common>
 0003:0000b7a0       _CANAC2_1_receive_mb1      100637a0     <common>
 0003:0000bac0       _CANAC2_1_send_mb1         10063ac0     <common>
 0003:0000bde0       _CANAC2_2_receiveindex     10063de0     <common>
 0003:0000c100       _CANAC2_2_receivemaxindex  10064100     <common>
 0003:0000c120       _CANAC2_2_sendindex        10064120     <common>
 0003:0000c440       _CANAC2_2_sendmaxindex     10064440     <common>
 0003:0000c460       _CANAC2_1_receiveindex     10064460     <common>
 0003:0000c780       _CANAC2_1_receivemaxindex  10064780     <common>
 0003:0000c7a0       _CANAC2_1_sendindex        100647a0     <common>
 0003:0000cac0       _CANAC2_1_sendmaxindex     10064ac0     <common>
 0003:0000cae0       _CANAC2_2_receive          10064ae0     <common>
 0003:0000ce00       _CANAC2_2_send             10064e00     <common>
 0003:0000d120       _CANAC2_1_receive          10065120     <common>
 0003:0000d440       _CANAC2_1_send             10065440     <common>
 0003:0000d760       _siepowercan_can_object_buffer_port2 10065760     <common>
 0003:00011780       _siepowercan_can_object_buffer_port1 10069780     <common>
 0003:00015780       _rtNaNF                    1006d780     <common>
 0003:00015794       _rtMinusInfF               1006d794     <common>
 0003:00015798       _rtInfF                    1006d798     <common>
 0003:000157a0       _rtNaN                     1006d7a0     <common>
 0003:000157a8       _rtMinusInf                1006d7a8     <common>
 0003:000157b0       _rtInf                     1006d7b0     <common>
 0003:000157c0       _FingerStrokeAssistance_M_ 1006d7c0     <common>
 0003:000173c9       _FingerStrokeAssistance_PrevZCX 1006f3c9     <common>
 0003:000173e0       _FingerStrokeAssistance_DW 1006f3e0     <common>
 0003:00017780       _FingerStrokeAssistance_B  1006f780     <common>
 0003:00017da8       _xpceaddEvent              1006fda8     <common>
 0003:00017df8       _xpceDeRegisterISR         1006fdf8     <common>
 0003:00017dfc       _xpceRegisterISR           1006fdfc     <common>
 0003:00017e00       _xpcIsModelInit            1006fe00     <common>
 0003:00017e04       _xpcGetElapsedTime         1006fe04     <common>
 0003:00017e08       _xpcBusyWait               1006fe08     <common>
 0003:00017e0c       _xpcFreePhysicalMemory     1006fe0c     <common>
 0003:00017e10       _xpcAllocPhysicalMemory    1006fe10     <common>
 0003:00017e14       _xpcReserveMemoryRegion    1006fe14     <common>
 0003:00017e18       _xpcOutpB                  1006fe18     <common>
 0003:00017e1c       _xpcOutpW                  1006fe1c     <common>
 0003:00017e20       _xpcOutpDW                 1006fe20     <common>
 0003:00017e24       _xpcInpB                   1006fe24     <common>
 0003:00017e28       _xpcInpW                   1006fe28     <common>
 0003:00017e2c       _xpcInpDW                  1006fe2c     <common>
 0003:00017e30       _slTestRegAssessment       1006fe30     <common>
 0003:00017e34       _slTestTerminate           1006fe34     <common>
 0003:00017e38       _slTestEvalOnFail          1006fe38     <common>
 0003:00017e3c       _slTestLogAssessments      1006fe3c     <common>
 0003:00017e40       _slTestInitialize          1006fe40     <common>
 0003:00017e44       _unRegisterPTPTimeRead     1006fe44     <common>
 0003:00017e48       _registerPTPTimeRead       1006fe48     <common>
 0003:00017e4c       _slrteGetCurrentStepSize   1006fe4c     <common>
 0003:00017e50       _slrteSetStepSizeDelta     1006fe50     <common>
 0003:00017e54       _xpceGetIntTimerGranularityNS 1006fe54     <common>
 0003:00017e58       _sendToAsyncQueueTgtAppSvc 1006fe58     <common>
 0003:00017e5c       _terminateToAsyncQueueTgtAppSvc 1006fe5c     <common>
 0003:00017e60       _startToAsyncQueueTgtAppSvc 1006fe60     <common>
 0003:00017e64       _getStatusFlags            1006fe64     <common>
 0003:00017e68       _getCommService            1006fe68     <common>
 0003:00017e6c       _getMemoryService          1006fe6c     <common>
 0003:00017e70       _StreamVideo               1006fe70     <common>
 0003:00017e74       _StopVideoDisplay          1006fe74     <common>
 0003:00017e78       _StartVideoDisplay         1006fe78     <common>
 0003:00017e7c       _DestroyVideoDisplay       1006fe7c     <common>
 0003:00017e80       _CreateVideoDisplay        1006fe80     <common>
 0003:00017e84       _ConvertUImage             1006fe84     <common>
 0003:00017e88       _StopVideo                 1006fe88     <common>
 0003:00017e8c       _ReadFrameBuffer           1006fe8c     <common>
 0003:00017e90       _StartVideo                1006fe90     <common>
 0003:00017e94       _GetVideoConfigs           1006fe94     <common>
 0003:00017e98       _FindUsbVideoDevice        1006fe98     <common>
 0003:00017e9c       _xpceDeleteSemaphore       1006fe9c     <common>
 0003:00017ea0       _xpceSignalSemaphore       1006fea0     <common>
 0003:00017ea4       _xpceWaitSemaphore         1006fea4     <common>
 0003:00017ea8       _xpceCreateSemaphore       1006fea8     <common>
 0003:00017eac       _TBGiveSpinFast            1006feac     <common>
 0003:00017eb0       _TBTakeSpinFast            1006feb0     <common>
 0003:00017eb4       _TBDeleteSpin              1006feb4     <common>
 0003:00017eb8       _TBCreateSpin              1006feb8     <common>
 0003:00017ebc       _xpceScopeAcqOK            1006febc     <common>
 0003:00017ec0       _rl32eRestartAcquisition   1006fec0     <common>
 0003:00017ec4       _rl32eSetTargetScopeSigFt  1006fec4     <common>
 0003:00017ec8       _rl32eSetTargetScope       1006fec8     <common>
 0003:00017ecc       _xpceFSScopeSet            1006fecc     <common>
 0003:00017ed0       _rl32eSetScope             1006fed0     <common>
 0003:00017ed4       _rl32eAddSignal            1006fed4     <common>
 0003:00017ed8       _rl32eGetSignalNo          1006fed8     <common>
 0003:00017edc       _rl32eDefScope             1006fedc     <common>
 0003:00017ee0       _rl32eScopeExists          1006fee0     <common>
 0003:00017ee4       _xpceUDPClose              1006fee4     <common>
 0003:00017ee8       _xpceUDPReceive            1006fee8     <common>
 0003:00017eec       _xpceUDPSend               1006feec     <common>
 0003:00017ef0       _xpceUDPOpenReceive        1006fef0     <common>
 0003:00017ef4       _xpceUDPOpenSend           1006fef4     <common>
 0003:00017ef8       _rl32eSendBlock            1006fef8     <common>
 0003:00017efc       _rl32eLineStatus           1006fefc     <common>
 0003:00017f00       _rl32eReceiveBufferCount   1006ff00     <common>
 0003:00017f04       _rl32eReceiveChar          1006ff04     <common>
 0003:00017f08       _rl32eSendChar             1006ff08     <common>
 0003:00017f0c       _rl32eCloseCOMPort         1006ff0c     <common>
 0003:00017f10       _rl32eInitCOMPort          1006ff10     <common>
 0003:00017f14       _xpceGetParamDims          1006ff14     <common>
 0003:00017f18       _xpceGetParameter          1006ff18     <common>
 0003:00017f1c       _xpceSetParameter          1006ff1c     <common>
 0003:00017f20       _xpceGetSignalValue        1006ff20     <common>
 0003:00017f24       _xpceAssignPCIInterrupt    1006ff24     <common>
 0003:00017f28       _rl32eGetPCIInfoAtSlot     1006ff28     <common>
 0003:00017f2c       _rl32eGetPCIInfo           1006ff2c     <common>
 0003:00017f30       _rl32eShowPCIInfo          1006ff30     <common>
 0003:00017f34       _rl32eShowPCIDev           1006ff34     <common>
 0003:00017f38       _xpceGetTET                1006ff38     <common>
 0003:00017f3c       _xpceFTSubtract            1006ff3c     <common>
 0003:00017f40       _xpceFTAdd                 1006ff40     <common>
 0003:00017f44       _xpceFTReadTime            1006ff44     <common>
 0003:00017f48       ___unguarded_readlc_active 1006ff48     <common>
 0003:00017f58       ___setlc_active            1006ff58     <common>
 0003:00017f5c       __nhandle                  1006ff5c     <common>
 0003:00017f80       _encodedKERNEL32Functions  1006ff80     <common>
 0003:00018028       __debugger_hook_dummy      10070028     <common>
 0003:00018034       ___use_sse2_mathfcns       10070034     <common>
 0003:00018040       __pmatherr                 10070040     <common>
 0003:0001804c       __pDestructExceptionObject 1007004c     <common>
 0003:00018058       __acmdln                   10070058     <common>
 0003:00018080       __bufin                    10070080     <common>
 0003:000193bc       ___piob                    100713bc     <common>
 0003:000193c0       __nstream                  100713c0     <common>
 0003:000193c4       ___dyn_tls_init_callback   100713c4     <common>
 0003:000193d4       ___onexitend               100713d4     <common>
 0003:000193d8       ___onexitbegin             100713d8     <common>
 0003:000193dc       ___mbctype_initialized     100713dc     <common>
 0003:000193e0       ___env_initialized         100713e0     <common>
 0004:00000000       __imp__GetModuleHandleA@4  10072000     kernel32:KERNEL32.dll
 0004:00000004       __imp__GetProcAddress@8    10072004     kernel32:KERNEL32.dll
 0004:00000008       __imp__HeapAlloc@12        10072008     kernel32:KERNEL32.dll
 0004:0000000c       __imp__IsDebuggerPresent@0 1007200c     kernel32:KERNEL32.dll
 0004:00000010       __imp__IsProcessorFeaturePresent@4 10072010     kernel32:KERNEL32.dll
 0004:00000014       __imp__EncodePointer@4     10072014     kernel32:KERNEL32.dll
 0004:00000018       __imp__DecodePointer@4     10072018     kernel32:KERNEL32.dll
 0004:0000001c       __imp__GetLastError@0      1007201c     kernel32:KERNEL32.dll
 0004:00000020       __imp__ExitProcess@4       10072020     kernel32:KERNEL32.dll
 0004:00000024       __imp__GetModuleHandleExW@12 10072024     kernel32:KERNEL32.dll
 0004:00000028       __imp__AreFileApisANSI@0   10072028     kernel32:KERNEL32.dll
 0004:0000002c       __imp__MultiByteToWideChar@24 1007202c     kernel32:KERNEL32.dll
 0004:00000030       __imp__WideCharToMultiByte@32 10072030     kernel32:KERNEL32.dll
 0004:00000034       __imp__HeapFree@12         10072034     kernel32:KERNEL32.dll
 0004:00000038       __imp__HeapReAlloc@16      10072038     kernel32:KERNEL32.dll
 0004:0000003c       __imp__EnterCriticalSection@4 1007203c     kernel32:KERNEL32.dll
 0004:00000040       __imp__LeaveCriticalSection@4 10072040     kernel32:KERNEL32.dll
 0004:00000044       __imp__GetStdHandle@4      10072044     kernel32:KERNEL32.dll
 0004:00000048       __imp__GetFileType@4       10072048     kernel32:KERNEL32.dll
 0004:0000004c       __imp__GetModuleFileNameW@12 1007204c     kernel32:KERNEL32.dll
 0004:00000050       __imp__WriteConsoleW@20    10072050     kernel32:KERNEL32.dll
 0004:00000054       __imp__GetCommandLineA@0   10072054     kernel32:KERNEL32.dll
 0004:00000058       __imp__GetCurrentThreadId@0 10072058     kernel32:KERNEL32.dll
 0004:0000005c       __imp__WriteFile@20        1007205c     kernel32:KERNEL32.dll
 0004:00000060       __imp__GetProcessHeap@0    10072060     kernel32:KERNEL32.dll
 0004:00000064       __imp__UnhandledExceptionFilter@4 10072064     kernel32:KERNEL32.dll
 0004:00000068       __imp__SetUnhandledExceptionFilter@4 10072068     kernel32:KERNEL32.dll
 0004:0000006c       __imp__SetLastError@4      1007206c     kernel32:KERNEL32.dll
 0004:00000070       __imp__InitializeCriticalSectionAndSpinCount@8 10072070     kernel32:KERNEL32.dll
 0004:00000074       __imp__CreateEventW@16     10072074     kernel32:KERNEL32.dll
 0004:00000078       __imp__Sleep@4             10072078     kernel32:KERNEL32.dll
 0004:0000007c       __imp__GetCurrentProcess@0 1007207c     kernel32:KERNEL32.dll
 0004:00000080       __imp__TerminateProcess@8  10072080     kernel32:KERNEL32.dll
 0004:00000084       __imp__TlsAlloc@0          10072084     kernel32:KERNEL32.dll
 0004:00000088       __imp__TlsGetValue@4       10072088     kernel32:KERNEL32.dll
 0004:0000008c       __imp__TlsSetValue@8       1007208c     kernel32:KERNEL32.dll
 0004:00000090       __imp__TlsFree@4           10072090     kernel32:KERNEL32.dll
 0004:00000094       __imp__GetStartupInfoW@4   10072094     kernel32:KERNEL32.dll
 0004:00000098       __imp__GetTickCount@0      10072098     kernel32:KERNEL32.dll
 0004:0000009c       __imp__GetModuleHandleW@4  1007209c     kernel32:KERNEL32.dll
 0004:000000a0       __imp__CreateSemaphoreW@16 100720a0     kernel32:KERNEL32.dll
 0004:000000a4       __imp__DeleteCriticalSection@4 100720a4     kernel32:KERNEL32.dll
 0004:000000a8       __imp__FatalAppExitA@8     100720a8     kernel32:KERNEL32.dll
 0004:000000ac       __imp__SetConsoleCtrlHandler@8 100720ac     kernel32:KERNEL32.dll
 0004:000000b0       __imp__FreeLibrary@4       100720b0     kernel32:KERNEL32.dll
 0004:000000b4       __imp__LoadLibraryExW@12   100720b4     kernel32:KERNEL32.dll
 0004:000000b8       __imp__IsValidCodePage@4   100720b8     kernel32:KERNEL32.dll
 0004:000000bc       __imp__GetACP@0            100720bc     kernel32:KERNEL32.dll
 0004:000000c0       __imp__GetOEMCP@0          100720c0     kernel32:KERNEL32.dll
 0004:000000c4       __imp__GetCPInfo@8         100720c4     kernel32:KERNEL32.dll
 0004:000000c8       __imp__CloseHandle@4       100720c8     kernel32:KERNEL32.dll
 0004:000000cc       __imp__RtlUnwind@16        100720cc     kernel32:KERNEL32.dll
 0004:000000d0       __imp__ReadFile@20         100720d0     kernel32:KERNEL32.dll
 0004:000000d4       __imp__GetConsoleMode@8    100720d4     kernel32:KERNEL32.dll
 0004:000000d8       __imp__ReadConsoleW@20     100720d8     kernel32:KERNEL32.dll
 0004:000000dc       __imp__GetConsoleCP@0      100720dc     kernel32:KERNEL32.dll
 0004:000000e0       __imp__DeleteFileW@4       100720e0     kernel32:KERNEL32.dll
 0004:000000e4       __imp__SetFilePointerEx@20 100720e4     kernel32:KERNEL32.dll
 0004:000000e8       __imp__RaiseException@16   100720e8     kernel32:KERNEL32.dll
 0004:000000ec       __imp__OutputDebugStringW@4 100720ec     kernel32:KERNEL32.dll
 0004:000000f0       __imp__GetCurrentThread@0  100720f0     kernel32:KERNEL32.dll
 0004:000000f4       __imp__GetModuleFileNameA@12 100720f4     kernel32:KERNEL32.dll
 0004:000000f8       __imp__QueryPerformanceCounter@4 100720f8     kernel32:KERNEL32.dll
 0004:000000fc       __imp__GetCurrentProcessId@0 100720fc     kernel32:KERNEL32.dll
 0004:00000100       __imp__GetSystemTimeAsFileTime@4 10072100     kernel32:KERNEL32.dll
 0004:00000104       __imp__GetEnvironmentStringsW@0 10072104     kernel32:KERNEL32.dll
 0004:00000108       __imp__FreeEnvironmentStringsW@4 10072108     kernel32:KERNEL32.dll
 0004:0000010c       __imp__HeapSize@12         1007210c     kernel32:KERNEL32.dll
 0004:00000110       __imp__GetDateFormatW@24   10072110     kernel32:KERNEL32.dll
 0004:00000114       __imp__GetTimeFormatW@24   10072114     kernel32:KERNEL32.dll
 0004:00000118       __imp__CompareStringW@24   10072118     kernel32:KERNEL32.dll
 0004:0000011c       __imp__LCMapStringW@24     1007211c     kernel32:KERNEL32.dll
 0004:00000120       __imp__GetLocaleInfoW@16   10072120     kernel32:KERNEL32.dll
 0004:00000124       __imp__IsValidLocale@8     10072124     kernel32:KERNEL32.dll
 0004:00000128       __imp__GetUserDefaultLCID@0 10072128     kernel32:KERNEL32.dll
 0004:0000012c       __imp__EnumSystemLocalesW@8 1007212c     kernel32:KERNEL32.dll
 0004:00000130       __imp__GetStringTypeW@16   10072130     kernel32:KERNEL32.dll
 0004:00000134       __imp__FlushFileBuffers@4  10072134     kernel32:KERNEL32.dll
 0004:00000138       __imp__SetStdHandle@8      10072138     kernel32:KERNEL32.dll
 0004:0000013c       __imp__CreateFileW@28      1007213c     kernel32:KERNEL32.dll
 0004:00000140       __imp__SetEndOfFile@4      10072140     kernel32:KERNEL32.dll
 0004:00000144       \177KERNEL32_NULL_THUNK_DATA 10072144     kernel32:KERNEL32.dll
 0004:000001b0       __IMPORT_DESCRIPTOR_KERNEL32 100721b0     kernel32:KERNEL32.dll
 0004:000001c4       __NULL_IMPORT_DESCRIPTOR   100721c4     kernel32:KERNEL32.dll

 entry point at        0001:00016ee3

