 FingerStrokeAssistance_xpc

 Timestamp is 595aa297 (Mon Jul 03 13:01:27 2017)

 Preferred load address is 10000000

 Start         Length     Name                   Class
 0001:00000000 00041a90H .text$mn                CODE
 0002:00000000 00000104H .CRT$XCA                DATA
 0002:00000104 00000104H .CRT$XCZ                DATA
 0002:00000208 00000104H .CRT$XIA                DATA
 0002:0000030c 00000118H .CRT$XIC                DATA
 0002:00000424 00000104H .CRT$XIZ                DATA
 0002:00000528 00000104H .CRT$XPA                DATA
 0002:0000062c 00000109H .CRT$XPX                DATA
 0002:00000738 00000104H .CRT$XPXA               DATA
 0002:0000083c 00000104H .CRT$XPZ                DATA
 0002:00000940 00000104H .CRT$XTA                DATA
 0002:00000a44 00000104H .CRT$XTZ                DATA
 0002:00000b50 00014550H .rdata                  DATA
 0002:000150a0 000001bbH .rdata$debug            DATA
 0002:00015260 0000010eH .rdata$sxdata           DATA
 0002:00015370 00000104H .rtc$IAA                DATA
 0002:00015474 00000104H .rtc$IZZ                DATA
 0002:00015578 00000104H .rtc$TAA                DATA
 0002:0001567c 00000104H .rtc$TZZ                DATA
 0002:00015780 00000991H .xdata$x                DATA
 0002:00016120 00000226H .edata                  DATA
 0003:00000000 00002feeH .data                   DATA
 0003:00003000 00016ee4H .bss                    DATA
 0004:00000000 000001b0H .idata$5                DATA
 0004:000001b0 00000014H .idata$2                DATA
 0004:000001c4 00000014H .idata$3                DATA
 0004:000001d8 000001b0H .idata$4                DATA
 0004:00000388 0000076bH .idata$6                DATA

  Address         Publics by Value              Rva+Base       Lib:Object

 0000:00000000       __except_list              00000000     <absolute>
 0000:00000000       ___guard_fids_count        00000000     <absolute>
 0000:00000000       ___guard_flags             00000000     <absolute>
 0000:00000000       ___guard_fids_table        00000000     <absolute>
 0000:00000003       ___safe_se_handler_count   00000003     <absolute>
 0000:00000000       ___ImageBase               10000000     <linker-defined>
 0001:00000460       _FingerStrokeAssi_MATLABFunction 10001460 f   FingerStrokeAssistance.obj
 0001:000004c0       _FingerStrokeAssistance    100014c0 f   FingerStrokeAssistance.obj
 0001:00001700       _FingerStrokeAssistance_gainramp 10002700 f   FingerStrokeAssistance.obj
 0001:000051c0       _MdlInitialize             100061c0 f   FingerStrokeAssistance.obj
 0001:000051d0       _MdlInitializeSampleTimes  100061d0 f   FingerStrokeAssistance.obj
 0001:000051e0       _MdlInitializeSizes        100061e0 f   FingerStrokeAssistance.obj
 0001:000051f0       _MdlOutputs                100061f0 f   FingerStrokeAssistance.obj
 0001:00005200       _MdlStart                  10006200 f   FingerStrokeAssistance.obj
 0001:00005210       _MdlTerminate              10006210 f   FingerStrokeAssistance.obj
 0001:00005270       _MdlUpdate                 10006270 f   FingerStrokeAssistance.obj
 0001:00005280       _rt_powd_snf               10006280 f   FingerStrokeAssistance.obj
 0001:00005510       _rt_roundd_snf             10006510 f   FingerStrokeAssistance.obj
 0001:00005610       _FingerStrokeAssistance_GetCAPIStaticMap 10006610 f   FingerStrokeAssistance_capi.obj
 0001:00005620       _FingerStrokeAssistance_InitializeDataMapInfo 10006620 f   FingerStrokeAssistance_capi.obj
 0001:000056b0       _TgtConnBackgroundTask     100066b0 f   FingerStrokeAssistance_tgtconn.obj
 0001:000056c0       _TgtConnInit               100066c0 f   FingerStrokeAssistance_tgtconn.obj
 0001:000056e0       _TgtConnPostStep           100066e0 f   FingerStrokeAssistance_tgtconn.obj
 0001:000056f0       _TgtConnPreStep            100066f0 f   FingerStrokeAssistance_tgtconn.obj
 0001:00005700       _TgtConnTerm               10006700 f   FingerStrokeAssistance_tgtconn.obj
 0001:00005710       _rtGetInf                  10006710 f   rtGetInf.obj
 0001:00005740       _rtGetInfF                 10006740 f   rtGetInf.obj
 0001:00005760       _rtGetMinusInf             10006760 f   rtGetInf.obj
 0001:00005790       _rtGetMinusInfF            10006790 f   rtGetInf.obj
 0001:000057b0       _rtGetNaN                  100067b0 f   rtGetNaN.obj
 0001:000057e0       _rtGetNaNF                 100067e0 f   rtGetNaN.obj
 0001:00006110       _rt_CreateLogVar           10007110 f   rt_logging.obj
 0001:000061a0       _rt_CreateLogVarWithConvert 100071a0 f   rt_logging.obj
 0001:00006b20       _rt_CreateStructLogVar     10007b20 f   rt_logging.obj
 0001:00007890       _rt_GetMxIdFromDTypeId     10008890 f   rt_logging.obj
 0001:000078c0       _rt_GetMxIdFromDTypeIdForRSim 100088c0 f   rt_logging.obj
 0001:0000a200       _rt_StartDataLogging       1000b200 f   rt_logging.obj
 0001:0000a6c0       _rt_StartDataLoggingWithStartTime 1000b6c0 f   rt_logging.obj
 0001:0000b020       _rt_StopDataLogging        1000c020 f   rt_logging.obj
 0001:0000b040       _rt_StopDataLoggingImpl    1000c040 f   rt_logging.obj
 0001:0000b360       _rt_UpdateLogVar           1000c360 f   rt_logging.obj
 0001:0000c720       _rt_UpdateStructLogVar     1000d720 f   rt_logging.obj
 0001:0000c7b0       _rt_UpdateTXXFYLogVars     1000d7b0 f   rt_logging.obj
 0001:0000caf0       _rt_UpdateTXYLogVars       1000daf0 f   rt_logging.obj
 0001:0000cd40       _rt_CleanUpForStateLogWithMMI 1000dd40 f   rt_logging_mmi.obj
 0001:0000ce50       _rt_FillStateSigInfoFromMMI 1000de50 f   rt_logging_mmi.obj
 0001:0000d200       _rt_mxCreateCharMatrixFromStrings 1000e200 f   rt_matrx.obj
 0001:0000d350       _rt_mxCreateDoubleMatrix   1000e350 f   rt_matrx.obj
 0001:0000d3b0       _rt_mxCreateNumericArray   1000e3b0 f   rt_matrx.obj
 0001:0000d430       _rt_mxCreateString         1000e430 f   rt_matrx.obj
 0001:0000d4c0       _rt_mxDuplicateArray       1000e4c0 f   rt_matrx.obj
 0001:0000d520       _rt_mxGetDimensions        1000e520 f   rt_matrx.obj
 0001:0000d560       _rt_mxGetEps               1000e560 f   rt_matrx.obj
 0001:0000d570       _rt_mxGetString            1000e570 f   rt_matrx.obj
 0001:0000d5f0       _rtIsInf                   1000e5f0 f   rt_nonfinite.obj
 0001:0000d630       _rtIsInfF                  1000e630 f   rt_nonfinite.obj
 0001:0000d670       _rtIsNaN                   1000e670 f   rt_nonfinite.obj
 0001:0000d690       _rtIsNaNF                  1000e690 f   rt_nonfinite.obj
 0001:0000d6b0       _rt_InitInfAndNaN          1000e6b0 f   rt_nonfinite.obj
 0001:0000d710       _rtPrintfNoOp              1000e710 f   rt_printf.obj
 0001:0000d720       _rt_ZCFcn                  1000e720 f   rt_zcfcn.obj
 0001:0000d7e0       _rtwCAPI_CountSysRan       1000e7e0 f   rtw_modelmap_utils.obj
 0001:0000d880       _rtwCAPI_EncodePath        1000e880 f   rtw_modelmap_utils.obj
 0001:0000d970       _rtwCAPI_FillSysRan        1000e970 f   rtw_modelmap_utils.obj
 0001:0000da60       _rtwCAPI_FreeFullPaths     1000ea60 f   rtw_modelmap_utils.obj
 0001:0000daf0       _rtwCAPI_GetFullStateBlockPath 1000eaf0 f   rtw_modelmap_utils.obj
 0001:0000dca0       _rtwCAPI_GetNumContStateRecords 1000eca0 f   rtw_modelmap_utils.obj
 0001:0000dd60       _rtwCAPI_GetNumSigLogRecords 1000ed60 f   rtw_modelmap_utils.obj
 0001:0000ddb0       _rtwCAPI_GetNumSigLogRecordsForRTWLogging 1000edb0 f   rtw_modelmap_utils.obj
 0001:0000de40       _rtwCAPI_GetNumStateRecords 1000ee40 f   rtw_modelmap_utils.obj
 0001:0000de90       _rtwCAPI_GetNumStateRecordsForRTWLogging 1000ee90 f   rtw_modelmap_utils.obj
 0001:0000df20       _rtwCAPI_GetSigAddrFromMap 1000ef20 f   rtw_modelmap_utils.obj
 0001:0000dfe0       _rtwCAPI_GetSigLogRecordInfo 1000efe0 f   rtw_modelmap_utils.obj
 0001:0000e410       _rtwCAPI_GetStateRecordInfo 1000f410 f   rtw_modelmap_utils.obj
 0001:0000e8c0       _rtwCAPI_GetStateWidth     1000f8c0 f   rtw_modelmap_utils.obj
 0001:0000e920       _rtwCAPI_HasStates         1000f920 f   rtw_modelmap_utils.obj
 0001:0000e990       _rtwCAPI_UpdateFullPaths   1000f990 f   rtw_modelmap_utils.obj
 0001:0000eb70       _DllMain@12                1000fb70 f   xpctarget.obj
 0001:0000eb80       _FingerStrokeAssistance_ChangeStepSize 1000fb80 f   xpctarget.obj
 0001:0000ebd0       _SLRTSetErrorStatus        1000fbd0 f   xpctarget.obj
 0001:0000ebf0       _changeStepSize            1000fbf0 f   xpctarget.obj
 0001:0000ec40       _getDLMVersion             1000fc40 f   xpctarget.obj
 0001:0000ec50       _getRefMdlPath             1000fc50 f   xpctarget.obj
 0001:0000ecd0       _getRefMdlSignalNumber     1000fcd0 f   xpctarget.obj
 0001:0000ed80       _getrlmdlinfo              1000fd80 f   xpctarget.obj
 0001:0000ef60       _updateDiscreteEvents      1000ff60 f   xpctarget.obj
 0001:0000ef70       _getNumRef                 1000ff70 f   appmappingData.obj
 0001:0000ef80       _adnipcim                  1000ff80 f   adnipcim.obj
 0001:0000f950       _encnipcim                 10010950 f   encnipcim.obj
 0001:0000ff80       _danipcim                  10010f80 f   danipcim.obj
 0001:00010780       _niMIdentify               10011780 f   xpcionim.obj
 0001:00010900       _niM_AISetup               10011900 f   xpcionim.obj
 0001:00010d10       _niM_AO_Setup              10011d10 f   xpcionim.obj
 0001:00010ea0       _niM_Cont_Pulse_Train_Generation 10011ea0 f   xpcionim.obj
 0001:00010fe0       _niM_Counter_Reset_All     10011fe0 f   xpcionim.obj
 0001:00011090       _niM_CtrArm                10012090 f   xpcionim.obj
 0001:000110b0       _niM_CtrDisarm             100120b0 f   xpcionim.obj
 0001:000110d0       _niM_CtrReadArm            100120d0 f   xpcionim.obj
 0001:000110f0       _niM_CtrReadDisarm         100120f0 f   xpcionim.obj
 0001:00011110       _niM_PeriodConfigure       10012110 f   xpcionim.obj
 0001:00011280       _niM_Private_Data          10012280 f   xpcionim.obj
 0001:00011860       _niM_SetPFIFilter          10012860 f   xpcionim.obj
 0001:000118e0       _niM_SetPFI_DO             100128e0 f   xpcionim.obj
 0001:00011930       _niM_SetPFI_Select         10012930 f   xpcionim.obj
 0001:000119b0       _niM_aiConfigureChannel    100129b0 f   xpcionim.obj
 0001:00011a20       _niM_aiGetScalingCoefficients 10012a20 f   xpcionim.obj
 0001:00011c00       _niM_aiPolynomialScaler    10012c00 f   xpcionim.obj
 0001:00011d20       _niM_analogTriggerReset    10012d20 f   xpcionim.obj
 0001:00011d70       _niM_aoConfigureDAC        10012d70 f   xpcionim.obj
 0001:00011dc0       _niM_aoGetScalingCoefficients 10012dc0 f   xpcionim.obj
 0001:00011e70       _niM_aoLinearScaler        10012e70 f   xpcionim.obj
 0001:00011ea0       _niM_configureTimebase     10012ea0 f   xpcionim.obj
 0001:00011ec0       _niM_eepromReadMSeries     10012ec0 f   xpcionim.obj
 0001:00011f90       _niM_pllReset              10012f90 f   xpcionim.obj
 0001:00011fc0       _niM_resetCtr              10012fc0 f   xpcionim.obj
 0001:00011fe0       _niM_whichBank             10012fe0 f   xpcionim.obj
 0001:00012020       _niMconfig                 10013020 f   xpcionim.obj
 0001:000120c0       _GetPCIDeviceFull          100130c0 f   xpcruntime:xpcimports.obj
 0001:000120f0       _ShowPCIDevice             100130f0 f   xpcruntime:xpcimports.obj
 0001:00012760       _xpcGetPciConfigAtSlot     10013760 f   xpcruntime:xpcimports.obj
 0001:000129e0       _xpcInitProcs              100139e0 f   xpcruntime:xpcimports.obj
 0001:00013540       _xpceuploadevent           10014540 f   xpcruntime:xpcimports.obj
 0001:00013541       __heap_alloc               10014541 f i LIBCMT:malloc.obj
 0001:0001357e       _malloc                    1001457e f   LIBCMT:malloc.obj
 0001:00013610       __get_printf_count_output  10014610 f   LIBCMT:printf.obj
 0001:00013625       __printf_l                 10014625 f   LIBCMT:printf.obj
 0001:0001363c       __printf_p                 1001463c f   LIBCMT:printf.obj
 0001:00013652       __printf_p_l               10014652 f   LIBCMT:printf.obj
 0001:00013669       __printf_s_l               10014669 f   LIBCMT:printf.obj
 0001:00013680       __set_printf_count_output  10014680 f   LIBCMT:printf.obj
 0001:000136a8       _printf                    100146a8 f   LIBCMT:printf.obj
 0001:00013757       _printf_s                  10014757 f   LIBCMT:printf.obj
 0001:0001376d       ___libm_sse2_pow           1001476d f   LIBCMT:pow_sse2.obj
 0001:000141f0       _ceil                      100151f0 f   LIBCMT:ceil_pentium4.obj
 0001:00014230       __ceil_pentium4            10015230 f   LIBCMT:ceil_pentium4.obj
 0001:00014310       _memset                    10015310 f   LIBCMT:memset.obj
 0001:000143a0       __fpmath                   100153a0 f   LIBCMT:fpinit.obj
 0001:000143b7       ___setfflag                100153b7 f   LIBCMT:fpinit.obj
 0001:000143ca       __cfltcvt_init             100153ca f   LIBCMT:fpinit.obj
 0001:0001442a       ___raise_securityfailure   1001542a f   LIBCMT:gs_report.obj
 0001:00014467       ___report_gsfailure        10015467 f   LIBCMT:gs_report.obj
 0001:00014562       ___report_rangecheckfailure 10015562 f   LIBCMT:gs_report.obj
 0001:0001456e       ___report_securityfailure  1001556e f   LIBCMT:gs_report.obj
 0001:0001463e       ___report_securityfailureEx 1001563e f   LIBCMT:gs_report.obj
 0001:00014754       ___copy_path_to_wide_string 10015754 f   LIBCMT:crt0dat.obj
 0001:00014806       ___copy_to_char            10015806 f   LIBCMT:crt0dat.obj
 0001:000148bb       ___crtCorExitProcess       100158bb f   LIBCMT:crt0dat.obj
 0001:000148ef       ___crtExitProcess          100158ef f   LIBCMT:crt0dat.obj
 0001:00014905       ___freeCrtMemory           10015905 f   LIBCMT:crt0dat.obj
 0001:00014a12       __amsg_exit                10015a12 f   LIBCMT:crt0dat.obj
 0001:00014a2e       __c_exit                   10015a2e f   LIBCMT:crt0dat.obj
 0001:00014a3d       __cexit                    10015a3d f   LIBCMT:crt0dat.obj
 0001:00014a4c       __cinit                    10015a4c f   LIBCMT:crt0dat.obj
 0001:00014ad0       __exit                     10015ad0 f   LIBCMT:crt0dat.obj
 0001:00014ae4       __exit_app                 10015ae4 f   LIBCMT:crt0dat.obj
 0001:00014af2       __get_pgmptr               10015af2 f   LIBCMT:crt0dat.obj
 0001:00014b21       __get_wpgmptr              10015b21 f   LIBCMT:crt0dat.obj
 0001:00014b50       __init_pointers            10015b50 f   LIBCMT:crt0dat.obj
 0001:00014bbe       __initterm_e               10015bbe f   LIBCMT:crt0dat.obj
 0001:00014be0       __lockexit                 10015be0 f   LIBCMT:crt0dat.obj
 0001:00014be9       __unlockexit               10015be9 f   LIBCMT:crt0dat.obj
 0001:00014d21       _exit                      10015d21 f   LIBCMT:crt0dat.obj
 0001:00014d35       _calloc                    10015d35 f   LIBCMT:calloc.obj
 0001:00014d75       _free                      10015d75 f   LIBCMT:free.obj
 0001:00014dad       _realloc                   10015dad f   LIBCMT:realloc.obj
 0001:00014e60       _memmove                   10015e60 f   LIBCMT:memmove.obj
 0001:000154b0       _strchr                    100164b0 f   LIBCMT:strchr.obj
 0001:0001551e       ___from_strstr_to_strchr   1001651e     LIBCMT:strchr.obj
 0001:000155e0       _strncat                   100165e0 f   LIBCMT:strncat.obj
 0001:00015720       _strncpy                   10016720 f   LIBCMT:strncpy.obj
 0001:00015844       ___initstdio               10016844 f   LIBCMT:_file.obj
 0001:000158b7       ___endstdio                100168b7 f   LIBCMT:_file.obj
 0001:000158de       ___iob_func                100168de f   LIBCMT:_file.obj
 0001:000158e4       __lock_file                100168e4 f   LIBCMT:_file.obj
 0001:00015923       __lock_file2               10016923 f   LIBCMT:_file.obj
 0001:00015953       __unlock_file              10016953 f   LIBCMT:_file.obj
 0001:0001598d       __unlock_file2             1001698d f   LIBCMT:_file.obj
 0001:000159ba       __fclose_nolock            100169ba f   LIBCMT:fclose.obj
 0001:00015a26       _fclose                    10016a26 f   LIBCMT:fclose.obj
 0001:00015a9d       __fsopen                   10016a9d f   LIBCMT:fopen.obj
 0001:00015b61       _fopen                     10016b61 f   LIBCMT:fopen.obj
 0001:00015b76       _fopen_s                   10016b76 f   LIBCMT:fopen.obj
 0001:00015bbb       __fprintf_l                10016bbb f   LIBCMT:fprintf.obj
 0001:00015bd5       __fprintf_p                10016bd5 f   LIBCMT:fprintf.obj
 0001:00015bee       __fprintf_p_l              10016bee f   LIBCMT:fprintf.obj
 0001:00015c08       __fprintf_s_l              10016c08 f   LIBCMT:fprintf.obj
 0001:00015c22       _fprintf                   10016c22 f   LIBCMT:fprintf.obj
 0001:00015d34       _fprintf_s                 10016d34 f   LIBCMT:fprintf.obj
 0001:00015d4d       __fread_nolock             10016d4d f   LIBCMT:fread.obj
 0001:00015d68       __fread_nolock_s           10016d68 f   LIBCMT:fread.obj
 0001:00015f2d       _fread                     10016f2d f   LIBCMT:fread.obj
 0001:00015f48       _fread_s                   10016f48 f   LIBCMT:fread.obj
 0001:00015fd9       __fwrite_nolock            10016fd9 f   LIBCMT:fwrite.obj
 0001:00016132       _fwrite                    10017132 f   LIBCMT:fwrite.obj
 0001:000161b4       __unlink                   100171b4 f   LIBCMT:unlink.obj
 0001:000161bd       _remove                    100171bd f   LIBCMT:unlink.obj
 0001:000161ff       _rewind                    100171ff f   LIBCMT:rewind.obj
 0001:000162be       __scprintf                 100172be f   LIBCMT:sprintf.obj
 0001:000162d1       __scprintf_l               100172d1 f   LIBCMT:sprintf.obj
 0001:000162e8       __scprintf_p               100172e8 f   LIBCMT:sprintf.obj
 0001:000162fb       __scprintf_p_l             100172fb f   LIBCMT:sprintf.obj
 0001:00016312       __snprintf_s               10017312 f   LIBCMT:sprintf.obj
 0001:00016331       __snprintf_s_l             10017331 f   LIBCMT:sprintf.obj
 0001:00016351       __sprintf_l                10017351 f   LIBCMT:sprintf.obj
 0001:0001636b       __sprintf_p                1001736b f   LIBCMT:sprintf.obj
 0001:00016387       __sprintf_p_l              10017387 f   LIBCMT:sprintf.obj
 0001:000163a4       __sprintf_s_l              100173a4 f   LIBCMT:sprintf.obj
 0001:000163c1       _sprintf                   100173c1 f   LIBCMT:sprintf.obj
 0001:00016445       _sprintf_s                 10017445 f   LIBCMT:sprintf.obj
 0001:00016461       _ldexp                     10017461 f   LIBCMT:ldexp.obj
 0001:0001664d       @__security_check_cookie@4 1001764d f   LIBCMT:secchk.obj
 0001:00016660       __ftoui3                   10017660 f   LIBCMT:ftol3.obj
 0001:0001666f       __ftoul3                   1001766f f   LIBCMT:ftol3.obj
 0001:0001667e       __ftol3                    1001767e f   LIBCMT:ftol3.obj
 0001:0001668b       __ftol3_NaN                1001768b f   LIBCMT:ftol3.obj
 0001:000166a3       __ftol3_work               100176a3 f   LIBCMT:ftol3.obj
 0001:00016729       __ftol3_common             10017729 f   LIBCMT:ftol3.obj
 0001:000167eb       __ftol3_arg_error          100177eb f   LIBCMT:ftol3.obj
 0001:000167fd       __ftol3_except             100177fd f   LIBCMT:ftol3.obj
 0001:0001683f       __dtoui3                   1001783f f   LIBCMT:ftol3.obj
 0001:0001684e       __dtoul3                   1001784e f   LIBCMT:ftol3.obj
 0001:0001685d       __dtol3                    1001785d f   LIBCMT:ftol3.obj
 0001:0001686a       __dtol3_NaN                1001786a f   LIBCMT:ftol3.obj
 0001:00016887       __dtol3_work               10017887 f   LIBCMT:ftol3.obj
 0001:0001696c       __ultod3                   1001796c f   LIBCMT:ftol3.obj
 0001:000169fd       __ltod3                    100179fd f   LIBCMT:ftol3.obj
 0001:00016a30       _memcpy                    10017a30 f   LIBCMT:memcpy.obj
 0001:00017074       ___isa_available_init      10018074 f   LIBCMT:cpu_disp.obj
 0001:000171ed       __invoke_watson_if_error   100181ed f i LIBCMT:wassert.obj
 0001:0001720d       __wassert                  1001820d f   LIBCMT:wassert.obj
 0001:000178b1       __CRT_INIT@12              100188b1 f   LIBCMT:dllcrt0.obj
 0001:00017a23       __DllMainCRTStartup@12     10018a23 f   LIBCMT:dllcrt0.obj
 0001:00017b54       ___DllXcptFilter           10018b54 f   LIBCMT:dllcrt0.obj
 0001:00017b79       ?_query_new_handler@@YAP6AHI@ZXZ 10018b79 f   LIBCMT:handler.obj
 0001:00017b86       ?_set_new_handler@@YAP6AHI@ZH@Z 10018b86 f   LIBCMT:handler.obj
 0001:00017b8f       ?_set_new_handler@@YAP6AHI@ZP6AHI@Z@Z 10018b8f f   LIBCMT:handler.obj
 0001:00017bc4       __callnewh                 10018bc4 f   LIBCMT:handler.obj
 0001:00017bea       __initp_heap_handler       10018bea f   LIBCMT:handler.obj
 0001:00017bf7       __FF_MSGBANNER             10018bf7 f   LIBCMT:crt0msg.obj
 0001:00017c30       __GET_RTERRMSG             10018c30 f   LIBCMT:crt0msg.obj
 0001:00017c54       __NMSG_WRITE               10018c54 f   LIBCMT:crt0msg.obj
 0001:00017e11       ___doserrno                10018e11 f   LIBCMT:dosmap.obj
 0001:00017e24       __dosmaperr                10018e24 f   LIBCMT:dosmap.obj
 0001:00017e45       __errno                    10018e45 f   LIBCMT:dosmap.obj
 0001:00017e58       __get_doserrno             10018e58 f   LIBCMT:dosmap.obj
 0001:00017e7b       __get_errno                10018e7b f   LIBCMT:dosmap.obj
 0001:00017e9e       __get_errno_from_oserr     10018e9e f   LIBCMT:dosmap.obj
 0001:00017edf       __set_doserrno             10018edf f   LIBCMT:dosmap.obj
 0001:00017efe       __set_errno                10018efe f   LIBCMT:dosmap.obj
 0001:00017f1d       __get_heap_handle          10018f1d f   LIBCMT:heapinit.obj
 0001:00017f23       __heap_init                10018f23 f   LIBCMT:heapinit.obj
 0001:00017f38       __heap_term                10018f38 f   LIBCMT:heapinit.obj
 0001:00017f40       ?_invalid_parameter@@YAXPBG00II@Z 10018f40 f   LIBCMT:invarg.obj
 0001:00017f45       ?_invoke_watson@@YAXPBG00II@Z 10018f45 f   LIBCMT:invarg.obj
 0001:00017f5d       __call_reportfault         10018f5d f   LIBCMT:invarg.obj
 0001:00018082       __get_invalid_parameter_handler 10019082 f   LIBCMT:invarg.obj
 0001:0001808f       __initp_misc_invarg        1001908f f   LIBCMT:invarg.obj
 0001:0001809c       __invalid_parameter        1001909c f   LIBCMT:invarg.obj
 0001:000180c7       __invalid_parameter_noinfo 100190c7 f   LIBCMT:invarg.obj
 0001:000180d7       __invalid_parameter_noinfo_noreturn 100190d7 f   LIBCMT:invarg.obj
 0001:000180f2       __invoke_watson            100190f2 f   LIBCMT:invarg.obj
 0001:0001811d       __set_invalid_parameter_handler 1001911d f   LIBCMT:invarg.obj
 0001:00018142       __vprintf_l                10019142 f   LIBCMT:vprintf.obj
 0001:0001815d       __vprintf_p                1001915d f   LIBCMT:vprintf.obj
 0001:00018177       __vprintf_p_l              10019177 f   LIBCMT:vprintf.obj
 0001:00018192       __vprintf_s_l              10019192 f   LIBCMT:vprintf.obj
 0001:000181ad       _vprintf                   100191ad f   LIBCMT:vprintf.obj
 0001:000181c7       _vprintf_helper            100191c7 f   LIBCMT:vprintf.obj
 0001:00018254       _vprintf_s                 10019254 f   LIBCMT:vprintf.obj
 0001:0001826e       __ftbuf                    1001926e f   LIBCMT:_sftbuf.obj
 0001:0001829f       __stbuf                    1001929f f   LIBCMT:_sftbuf.obj
 0001:00018345       ??0_LocaleUpdate@@QAE@PAUlocaleinfo_struct@@@Z 10019345 f i LIBCMT:output.obj
 0001:000183cd       ??1_LocaleUpdate@@QAE@XZ   100193cd f i LIBCMT:output.obj
 0001:000183db       ?GetLocaleT@_LocaleUpdate@@QAEPAUlocaleinfo_struct@@XZ 100193db f i LIBCMT:output.obj
 0001:000183de       __output_l                 100193de f   LIBCMT:output.obj
 0001:00018f5e       _get_int64_arg             10019f5e f i LIBCMT:output.obj
 0001:00018f71       _get_int_arg               10019f71 f i LIBCMT:output.obj
 0001:00018f81       _get_short_arg             10019f81 f i LIBCMT:output.obj
 0001:00019080       __SEH_prolog4              1001a080 f   LIBCMT:sehprolg4.obj
 0001:000190c5       __SEH_epilog4              1001a0c5 f   LIBCMT:sehprolg4.obj
 0001:00019120       __except_handler4          1001a120 f   LIBCMT:chandler4.obj
 0001:000192b4       ___libm_error_support      1001a2b4 f   LIBCMT:libm_error.obj
 0001:0001959c       ___libm_setusermatherr     1001a59c f   LIBCMT:libm_error.obj
 0001:000195c8       __sse2_mathfcns_init       1001a5c8 f   LIBCMT:mathfcns.obj
 0001:000195d7       __set_SSE2_enable          1001a5d7 f   LIBCMT:mathfcns.obj
 0001:000195f6       __ceil_default             1001a5f6 f   LIBCMT:ceil.obj
 0001:000196cd       __VEC_memset               1001a6cd f   LIBCMT:p4_memset.obj
 0001:00019795       ?strrchr@@YAPADPADH@Z      1001a795 f i LIBCMT:cvt.obj
 0001:0001979e       __cfltcvt                  1001a79e f   LIBCMT:cvt.obj
 0001:000197bf       __cfltcvt_l                1001a7bf f   LIBCMT:cvt.obj
 0001:00019845       __cftoa                    1001a845 f   LIBCMT:cvt.obj
 0001:00019863       __cftoa_l                  1001a863 f   LIBCMT:cvt.obj
 0001:00019bbf       __cftoe                    1001abbf f   LIBCMT:cvt.obj
 0001:00019d2e       __cftoe_l                  1001ad2e f   LIBCMT:cvt.obj
 0001:00019dfc       __cftof                    1001adfc f   LIBCMT:cvt.obj
 0001:00019f03       __cftof_l                  1001af03 f   LIBCMT:cvt.obj
 0001:00019fc4       __cftog                    1001afc4 f   LIBCMT:cvt.obj
 0001:00019fe2       __cftog_l                  1001afe2 f   LIBCMT:cvt.obj
 0001:0001a0e1       __cropzeros                1001b0e1 f   LIBCMT:cvt.obj
 0001:0001a0f2       __cropzeros_l              1001b0f2 f   LIBCMT:cvt.obj
 0001:0001a172       __fassign                  1001b172 f   LIBCMT:cvt.obj
 0001:0001a18a       __fassign_l                1001b18a f   LIBCMT:cvt.obj
 0001:0001a1cc       __forcdecpt                1001b1cc f   LIBCMT:cvt.obj
 0001:0001a1dd       __forcdecpt_l              1001b1dd f   LIBCMT:cvt.obj
 0001:0001a251       __positive                 1001b251 f   LIBCMT:cvt.obj
 0001:0001a293       __setdefaultprecision      1001b293 f   LIBCMT:fp8.obj
 0001:0001a2ba       __initp_misc_cfltcvt_tab   1001b2ba f   LIBCMT:cmiscdat.obj
 0001:0001a2d9       __crt_debugger_hook        1001b2d9 f   LIBCMT:dbghook.obj
 0001:0001a30e       ___crtCloseThreadpoolTimer 1001b30e f   LIBCMT:winapisupp.obj
 0001:0001a325       ___crtCloseThreadpoolWait  1001b325 f   LIBCMT:winapisupp.obj
 0001:0001a33c       ___crtCreateEventExW       1001b33c f   LIBCMT:winapisupp.obj
 0001:0001a377       ___crtCreateSemaphoreExW   1001b377 f   LIBCMT:winapisupp.obj
 0001:0001a3b1       ___crtCreateSymbolicLinkW  1001b3b1 f   LIBCMT:winapisupp.obj
 0001:0001a3da       ___crtCreateThreadpoolTimer 1001b3da f   LIBCMT:winapisupp.obj
 0001:0001a3fb       ___crtCreateThreadpoolWait 1001b3fb f   LIBCMT:winapisupp.obj
 0001:0001a41c       ___crtFlsAlloc             1001b41c f   LIBCMT:winapisupp.obj
 0001:0001a43a       ___crtFlsFree              1001b43a f   LIBCMT:winapisupp.obj
 0001:0001a459       ___crtFlsGetValue          1001b459 f   LIBCMT:winapisupp.obj
 0001:0001a478       ___crtFlsSetValue          1001b478 f   LIBCMT:winapisupp.obj
 0001:0001a49a       ___crtFlushProcessWriteBuffers 1001b49a f   LIBCMT:winapisupp.obj
 0001:0001a4aa       ___crtFreeLibraryWhenCallbackReturns 1001b4aa f   LIBCMT:winapisupp.obj
 0001:0001a4c4       ___crtGetCurrentProcessorNumber 1001b4c4 f   LIBCMT:winapisupp.obj
 0001:0001a4d6       ___crtGetFileInformationByHandleEx 1001b4d6 f   LIBCMT:winapisupp.obj
 0001:0001a502       ___crtGetLogicalProcessorInformation 1001b502 f   LIBCMT:winapisupp.obj
 0001:0001a528       ___crtGetShowWindowMode    1001b528 f   LIBCMT:winapisupp.obj
 0001:0001a54b       ___crtGetTickCount64       1001b54b f   LIBCMT:winapisupp.obj
 0001:0001a563       ___crtInitializeCriticalSectionEx 1001b563 f   LIBCMT:winapisupp.obj
 0001:0001a591       ___crtIsPackagedApp        1001b591 f   LIBCMT:winapisupp.obj
 0001:0001a5d1       ___crtLoadWinApiPointers   1001b5d1 f   LIBCMT:winapisupp.obj
 0001:0001a85c       ___crtSetFileInformationByHandle 1001b85c f   LIBCMT:winapisupp.obj
 0001:0001a888       ___crtSetThreadStackGuarantee 1001b888 f   LIBCMT:winapisupp.obj
 0001:0001a8a3       ___crtSetThreadpoolTimer   1001b8a3 f   LIBCMT:winapisupp.obj
 0001:0001a8c3       ___crtSetThreadpoolWait    1001b8c3 f   LIBCMT:winapisupp.obj
 0001:0001a8e0       ___crtSetUnhandledExceptionFilter 1001b8e0 f   LIBCMT:winapisupp.obj
 0001:0001a8ee       ___crtSleep                1001b8ee f   LIBCMT:winapisupp.obj
 0001:0001a8fc       ___crtTerminateProcess     1001b8fc f   LIBCMT:winapisupp.obj
 0001:0001a911       ___crtUnhandledException   1001b911 f   LIBCMT:winapisupp.obj
 0001:0001a927       ___crtWaitForThreadpoolTimerCallbacks 1001b927 f   LIBCMT:winapisupp.obj
 0001:0001a941       __RTC_Initialize           1001b941 f   LIBCMT:initsect.obj
 0001:0001a961       __RTC_Terminate            1001b961 f   LIBCMT:initsect.obj
 0001:0001a981       __lock                     1001b981 f   LIBCMT:mlock.obj
 0001:0001a9b5       __lockerr_exit             1001b9b5 f   LIBCMT:mlock.obj
 0001:0001a9d5       __mtdeletelocks            1001b9d5 f   LIBCMT:mlock.obj
 0001:0001aa29       __mtinitlocknum            1001ba29 f   LIBCMT:mlock.obj
 0001:0001aad2       __mtinitlocks              1001bad2 f   LIBCMT:mlock.obj
 0001:0001ab0b       __unlock                   1001bb0b f   LIBCMT:mlock.obj
 0001:0001ab20       __FindPESection            1001bb20 f   LIBCMT:pesect.obj
 0001:0001ab70       __IsNonwritableInCurrentImage 1001bb70 f   LIBCMT:pesect.obj
 0001:0001ac30       __ValidateImageBase        1001bc30 f   LIBCMT:pesect.obj
 0001:0001ac61       ___onexitinit              1001bc61 f   LIBCMT:onexit.obj
 0001:0001ac90       __onexit                   1001bc90 f   LIBCMT:onexit.obj
 0001:0001ad8c       _atexit                    1001bd8c f   LIBCMT:onexit.obj
 0001:0001ada1       __calloc_crt               1001bda1 f   LIBCMT:crtheap.obj
 0001:0001ade9       __malloc_crt               1001bde9 f   LIBCMT:crtheap.obj
 0001:0001ae30       __realloc_crt              1001be30 f   LIBCMT:crtheap.obj
 0001:0001ae7a       __recalloc_crt             1001be7a f   LIBCMT:crtheap.obj
 0001:0001aec8       __set_malloc_crt_max_wait  1001bec8 f   LIBCMT:crtheap.obj
 0001:0001aedb       _wait_a_bit                1001bedb f i LIBCMT:crtheap.obj
 0001:0001aeff       ?_inconsistency@@YAXXZ     1001beff f   LIBCMT:hooks.obj
 0001:0001af37       ?terminate@@YAXXZ          1001bf37 f   LIBCMT:hooks.obj
 0001:0001af6b       ?unexpected@@YAXXZ         1001bf6b f   LIBCMT:hooks.obj
 0001:0001af7e       __initp_eh_hooks           1001bf7e f   LIBCMT:hooks.obj
 0001:0001af8f       ___getlocaleinfo           1001bf8f f   LIBCMT:inithelp.obj
 0001:0001b168       __initp_misc_purevirt      1001c168 f   LIBCMT:inithelp.obj
 0001:0001b175       ___fpecode                 1001c175 f   LIBCMT:winsig.obj
 0001:0001b17e       ___get_sigabrt             1001c17e f   LIBCMT:winsig.obj
 0001:0001b18b       ___pxcptinfoptrs           1001c18b f   LIBCMT:winsig.obj
 0001:0001b194       __initp_misc_winsig        1001c194 f   LIBCMT:winsig.obj
 0001:0001b255       _raise                     1001c255 f   LIBCMT:winsig.obj
 0001:0001b44a       _signal                    1001c44a f   LIBCMT:winsig.obj
 0001:0001b6a1       __initp_misc_rand_s        1001c6a1 f   LIBCMT:rand_s.obj
 0001:0001b6ae       _rand_s                    1001c6ae f   LIBCMT:rand_s.obj
 0001:0001b7b4       ___initmbctable            1001c7b4 f   LIBCMT:mbctype.obj
 0001:0001ba6b       ___updatetmbcinfo          1001ca6b f   LIBCMT:mbctype.obj
 0001:0001bb11       __getmbcp                  1001cb11 f   LIBCMT:mbctype.obj
 0001:0001bb42       __setmbcp                  1001cb42 f   LIBCMT:mbctype.obj
 0001:0001bcea       __setmbcp_nolock           1001ccea f   LIBCMT:mbctype.obj
 0001:0001bed5       __calloc_impl              1001ced5 f   LIBCMT:calloc_impl.obj
 0001:0001bf4f       __fcloseall                1001cf4f f   LIBCMT:closeall.obj
 0001:0001bfec       __fflush_nolock            1001cfec f   LIBCMT:fflush.obj
 0001:0001c032       __flush                    1001d032 f   LIBCMT:fflush.obj
 0001:0001c096       __flushall                 1001d096 f   LIBCMT:fflush.obj
 0001:0001c09f       _fflush                    1001d09f f   LIBCMT:fflush.obj
 0001:0001c1dc       __fileno                   1001d1dc f   LIBCMT:fileno.obj
 0001:0001c200       __close                    1001d200 f   LIBCMT:close.obj
 0001:0001c2db       __close_nolock             1001d2db f   LIBCMT:close.obj
 0001:0001c375       __freebuf                  1001d375 f   LIBCMT:_freebuf.obj
 0001:0001c3a5       __getstream                1001d3a5 f   LIBCMT:stream.obj
 0001:0001c4c4       __openfile                 1001d4c4 f   LIBCMT:_open.obj
 0001:0001c740       __local_unwind4            1001d740 f   LIBCMT:exsup4.obj
 0001:0001c816       __seh_longjmp_unwind4@4    1001d816 f   LIBCMT:exsup4.obj
 0001:0001c832       @_EH4_CallFilterFunc@8     1001d832 f   LIBCMT:exsup4.obj
 0001:0001c849       @_EH4_TransferToHandler@8  1001d849 f   LIBCMT:exsup4.obj
 0001:0001c862       @_EH4_GlobalUnwind2@8      1001d862 f   LIBCMT:exsup4.obj
 0001:0001c87b       @_EH4_LocalUnwind@16       1001d87b f   LIBCMT:exsup4.obj
 0001:0001c892       __vfprintf_l               1001d892 f   LIBCMT:vfprintf.obj
 0001:0001c8b0       __vfprintf_p               1001d8b0 f   LIBCMT:vfprintf.obj
 0001:0001c8cd       __vfprintf_p_l             1001d8cd f   LIBCMT:vfprintf.obj
 0001:0001c8eb       __vfprintf_s_l             1001d8eb f   LIBCMT:vfprintf.obj
 0001:0001c909       _vfprintf                  1001d909 f   LIBCMT:vfprintf.obj
 0001:0001c926       _vfprintf_helper           1001d926 f   LIBCMT:vfprintf.obj
 0001:0001ca37       _vfprintf_s                1001da37 f   LIBCMT:vfprintf.obj
 0001:0001ca54       __ioinit                   1001da54 f   LIBCMT:ioinit.obj
 0001:0001cd08       __ioterm                   1001dd08 f   LIBCMT:ioinit.obj
 0001:0001cd5a       __filbuf                   1001dd5a f   LIBCMT:_filbuf.obj
 0001:0001ce7b       _memcpy_s                  1001de7b f   LIBCMT:memcpy_s.obj
 0001:0001cefa       __read                     1001defa f   LIBCMT:read.obj
 0001:0001d00e       __read_nolock              1001e00e f   LIBCMT:read.obj
 0001:0001d79f       __flsbuf                   1001e79f f   LIBCMT:_flsbuf.obj
 0001:0001d8ee       __write                    1001e8ee f   LIBCMT:write.obj
 0001:0001d9dd       __write_nolock             1001e9dd f   LIBCMT:write.obj
 0001:0001e242       __wremove                  1001f242 f   LIBCMT:wunlink.obj
 0001:0001e270       __wunlink                  1001f270 f   LIBCMT:wunlink.obj
 0001:0001e279       __lseek                    1001f279 f   LIBCMT:lseek.obj
 0001:0001e368       __lseek_nolock             1001f368 f   LIBCMT:lseek.obj
 0001:0001e40f       __vscprintf                1001f40f f   LIBCMT:vsprintf.obj
 0001:0001e429       __vscprintf_helper         1001f429 f   LIBCMT:vsprintf.obj
 0001:0001e485       __vscprintf_l              1001f485 f   LIBCMT:vsprintf.obj
 0001:0001e4a0       __vscprintf_p              1001f4a0 f   LIBCMT:vsprintf.obj
 0001:0001e4ba       __vscprintf_p_l            1001f4ba f   LIBCMT:vsprintf.obj
 0001:0001e4d5       __vsprintf_l               1001f4d5 f   LIBCMT:vsprintf.obj
 0001:0001e559       _vsprintf                  1001f559 f   LIBCMT:vsprintf.obj
 0001:0001e571       __vsnprintf_c              1001f571 f   LIBCMT:vsnprnc.obj
 0001:0001e598       __vsnprintf_c_l            1001f598 f   LIBCMT:vsnprnc.obj
 0001:0001e5c0       __vsnprintf_helper         1001f5c0 f   LIBCMT:vsnprnc.obj
 0001:0001e68a       __vsnprintf_s              1001f68a f   LIBCMT:vsnprnc.obj
 0001:0001e6a8       __vsnprintf_s_l            1001f6a8 f   LIBCMT:vsnprnc.obj
 0001:0001e7a8       __vsprintf_p               1001f7a8 f   LIBCMT:vsnprnc.obj
 0001:0001e7cf       __vsprintf_p_l             1001f7cf f   LIBCMT:vsnprnc.obj
 0001:0001e7f7       __vsprintf_s_l             1001f7f7 f   LIBCMT:vsnprnc.obj
 0001:0001e86c       _vsprintf_s                1001f86c f   LIBCMT:vsnprnc.obj
 0001:0001e887       __chgsign                  1001f887 f   LIBCMT:ieeemisc.obj
 0001:0001e8b4       __chgsignf                 1001f8b4 f   LIBCMT:ieeemisc.obj
 0001:0001e8d5       __copysign                 1001f8d5 f   LIBCMT:ieeemisc.obj
 0001:0001e8fd       __copysignf                1001f8fd f   LIBCMT:ieeemisc.obj
 0001:0001e919       __finite                   1001f919 f   LIBCMT:ieeemisc.obj
 0001:0001e931       __fpclass                  1001f931 f   LIBCMT:ieeemisc.obj
 0001:0001e9cd       __isnan                    1001f9cd f   LIBCMT:ieeemisc.obj
 0001:0001ea00       __logb                     1001fa00 f   LIBCMT:ieeemisc.obj
 0001:0001eae1       __nextafter                1001fae1 f   LIBCMT:ieeemisc.obj
 0001:0001ed81       __scalb                    1001fd81 f   LIBCMT:ieeemisc.obj
 0001:0001ed99       __add_exp                  1001fd99 f   LIBCMT:util.obj
 0001:0001edc8       __decomp                   1001fdc8 f   LIBCMT:util.obj
 0001:0001ee9a       __get_exp                  1001fe9a f   LIBCMT:util.obj
 0001:0001eeb3       __set_bexp                 1001feb3 f   LIBCMT:util.obj
 0001:0001eedc       __set_exp                  1001fedc f   LIBCMT:util.obj
 0001:0001ef0b       __sptype                   1001ff0b f   LIBCMT:util.obj
 0001:0001ef66       __errcode                  1001ff66 f   LIBCMT:fpexcept.obj
 0001:0001ef98       __except1                  1001ff98 f   LIBCMT:fpexcept.obj
 0001:0001f060       __except2                  10020060 f   LIBCMT:fpexcept.obj
 0001:0001f160       __handle_exc               10020160 f   LIBCMT:fpexcept.obj
 0001:0001f33e       __handle_qnan1             1002033e f   LIBCMT:fpexcept.obj
 0001:0001f38e       __handle_qnan2             1002038e f   LIBCMT:fpexcept.obj
 0001:0001f3ee       __raise_exc                100203ee f   LIBCMT:fpexcept.obj
 0001:0001f40f       __raise_exc_ex             1002040f f   LIBCMT:fpexcept.obj
 0001:0001f6f4       __raise_excf               100206f4 f   LIBCMT:fpexcept.obj
 0001:0001f715       __set_errno_from_matherr   10020715 f   LIBCMT:fpexcept.obj
 0001:0001f742       __umatherr                 10020742 f   LIBCMT:fpexcept.obj
 0001:0001f7e2       ___clrfp_sse2              100207e2 f   LIBCMT:fpctrl.obj
 0001:0001f803       ___ctrlfp_sse2             10020803 f   LIBCMT:fpctrl.obj
 0001:0001f83c       ___fclrf_sse2              1002083c f   LIBCMT:fpctrl.obj
 0001:0001f859       ___get_fpsr_sse2           10020859 f   LIBCMT:fpctrl.obj
 0001:0001f875       ___set_fpsr_sse2           10020875 f   LIBCMT:fpctrl.obj
 0001:0001f8eb       ___set_statfp_sse2         100208eb f   LIBCMT:fpctrl.obj
 0001:0001f904       ___statfp_sse2             10020904 f   LIBCMT:fpctrl.obj
 0001:0001f919       __clrfp                    10020919 f   LIBCMT:fpctrl.obj
 0001:0001f92a       __ctrlfp                   1002092a f   LIBCMT:fpctrl.obj
 0001:0001f955       __set_statfp               10020955 f   LIBCMT:fpctrl.obj
 0001:0001f9ad       __statfp                   100209ad f   LIBCMT:fpctrl.obj
 0001:0001f9bd       _wcscat_s                  100209bd f   LIBCMT:wcscat_s.obj
 0001:0001fa29       _wcscpy_s                  10020a29 f   LIBCMT:wcscpy_s.obj
 0001:0001fa85       _wcslen                    10020a85 f   LIBCMT:wcslen.obj
 0001:0001fa9e       _wcsncat_s                 10020a9e f   LIBCMT:wcsncat_s.obj
 0001:0001fb6c       __set_abort_behavior       10020b6c f   LIBCMT:abort.obj
 0001:0001fb8b       _abort                     10020b8b f   LIBCMT:abort.obj
 0001:0001fbce       ___set_app_type            10020bce f   LIBCMT:errmode.obj
 0001:0001fbdb       __set_error_mode           10020bdb f   LIBCMT:errmode.obj
 0001:0001fd37       __i64tow_s                 10020d37 f   LIBCMT:xtows.obj
 0001:0001fd68       __itow_s                   10020d68 f   LIBCMT:xtows.obj
 0001:0001fd91       __ltow_s                   10020d91 f   LIBCMT:xtows.obj
 0001:0001fdbb       __ui64tow_s                10020dbb f   LIBCMT:xtows.obj
 0001:0001fdd6       __ultow_s                  10020dd6 f   LIBCMT:xtows.obj
 0001:0001fee1       _setvbuf                   10020ee1 f   LIBCMT:setvbuf.obj
 0001:0001ffe7       __fwprintf_l               10020fe7 f   LIBCMT:fwprintf.obj
 0001:00020001       __fwprintf_p               10021001 f   LIBCMT:fwprintf.obj
 0001:0002001a       __fwprintf_p_l             1002101a f   LIBCMT:fwprintf.obj
 0001:00020034       __fwprintf_s_l             10021034 f   LIBCMT:fwprintf.obj
 0001:0002004e       _fwprintf                  1002104e f   LIBCMT:fwprintf.obj
 0001:000200e2       _fwprintf_s                100210e2 f   LIBCMT:fwprintf.obj
 0001:000200fb       __vsnwprintf_s             100210fb f   LIBCMT:vswprnc.obj
 0001:00020119       __vsnwprintf_s_l           10021119 f   LIBCMT:vswprnc.obj
 0001:0002021d       __vswprintf_c              1002121d f   LIBCMT:vswprnc.obj
 0001:00020244       __vswprintf_c_l            10021244 f   LIBCMT:vswprnc.obj
 0001:0002026c       __vswprintf_helper         1002126c f   LIBCMT:vswprnc.obj
 0001:00020367       __vswprintf_p              10021367 f   LIBCMT:vswprnc.obj
 0001:0002038e       __vswprintf_p_l            1002138e f   LIBCMT:vswprnc.obj
 0001:000203b6       __vswprintf_s_l            100213b6 f   LIBCMT:vswprnc.obj
 0001:0002042d       _vswprintf_s               1002142d f   LIBCMT:vswprnc.obj
 0001:00020448       ___crtMessageBoxW          10021448 f   LIBCMT:crtmboxw.obj
 0001:0002062e       ___crtMessageBoxWaitThreadW@4 1002162e f   LIBCMT:crtmboxw.obj
 0001:0002064c       __XcptFilter               1002164c f   LIBCMT:winxfltr.obj
 0001:000207a7       ___CppXcptFilter           100217a7 f   LIBCMT:winxfltr.obj
 0001:000207f9       ___get_flsindex            100217f9 f   LIBCMT:tidtable.obj
 0001:000207ff       ___threadhandle            100217ff f   LIBCMT:tidtable.obj
 0001:00020805       ___threadid                10021805 f   LIBCMT:tidtable.obj
 0001:0002080b       __freefls@4                1002180b f   LIBCMT:tidtable.obj
 0001:00020940       __freeptd                  10021940 f   LIBCMT:tidtable.obj
 0001:00020976       __getptd                   10021976 f   LIBCMT:tidtable.obj
 0001:0002098e       __getptd_noexit            1002198e f   LIBCMT:tidtable.obj
 0001:000209fd       __initptd                  100219fd f   LIBCMT:tidtable.obj
 0001:00020ab0       __mtinit                   10021ab0 f   LIBCMT:tidtable.obj
 0001:00020b26       __mtterm                   10021b26 f   LIBCMT:tidtable.obj
 0001:00020b43       __set_pgmptr               10021b43 f i LIBCMT:stdargv.obj
 0001:00020b50       __setargv                  10021b50 f   LIBCMT:stdargv.obj
 0001:00020d7f       __setenvp                  10021d7f f   LIBCMT:stdenvp.obj
 0001:00020e60       ___security_init_cookie    10021e60 f   LIBCMT:gs_support.obj
 0001:00020efc       ___crtGetEnvironmentStringsA 10021efc f   LIBCMT:a_env.obj
 0001:00020f90       _strlen                    10021f90 f   LIBCMT:strlen.obj
 0001:0002101b       _wcsncpy_s                 1002201b f   LIBCMT:wcsncpy_s.obj
 0001:000210d9       __output_s_l               100220d9 f   LIBCMT:outputs.obj
 0001:00021d61       __output_p_l               10022d61 f   LIBCMT:outputp.obj
 0001:00023099       __validate_param_reuseA    10024099 f   LIBCMT:outputp.obj
 0001:000231cf       _get_crtdouble_arg         100241cf f i LIBCMT:outputp.obj
 0001:000232ce       __isatty                   100242ce f   LIBCMT:isatty.obj
 0001:00023322       ___addlocaleref            10024322 f   LIBCMT:localref.obj
 0001:000233b7       ___freetlocinfo            100243b7 f   LIBCMT:localref.obj
 0001:00023511       ___removelocaleref         10024511 f   LIBCMT:localref.obj
 0001:000235b1       ___updatetlocinfo          100245b1 f   LIBCMT:localref.obj
 0001:00023631       __updatetlocinfoEx_nolock  10024631 f   LIBCMT:localref.obj
 0001:0002367c       ___iswcsym                 1002467c f i LIBCMT:_wctype.obj
 0001:000236a0       ___iswcsymf                100246a0 f i LIBCMT:_wctype.obj
 0001:000236c4       __isleadbyte_l             100246c4 f i LIBCMT:_wctype.obj
 0001:000236fe       __iswalnum_l               100246fe f i LIBCMT:_wctype.obj
 0001:00023712       __iswalpha_l               10024712 f i LIBCMT:_wctype.obj
 0001:00023726       __iswblank_l               10024726 f i LIBCMT:_wctype.obj
 0001:00023741       __iswcntrl_l               10024741 f i LIBCMT:_wctype.obj
 0001:00023752       __iswcsym_l                10024752 f i LIBCMT:_wctype.obj
 0001:00023776       __iswcsymf_l               10024776 f i LIBCMT:_wctype.obj
 0001:0002379a       __iswdigit_l               1002479a f i LIBCMT:_wctype.obj
 0001:000237ab       __iswgraph_l               100247ab f i LIBCMT:_wctype.obj
 0001:000237bf       __iswlower_l               100247bf f i LIBCMT:_wctype.obj
 0001:000237d0       __iswprint_l               100247d0 f i LIBCMT:_wctype.obj
 0001:000237e4       __iswpunct_l               100247e4 f i LIBCMT:_wctype.obj
 0001:000237f5       __iswspace_l               100247f5 f i LIBCMT:_wctype.obj
 0001:00023806       __iswupper_l               10024806 f i LIBCMT:_wctype.obj
 0001:00023817       __iswxdigit_l              10024817 f i LIBCMT:_wctype.obj
 0001:0002382b       _isleadbyte                1002482b f i LIBCMT:_wctype.obj
 0001:0002383c       _iswalnum                  1002483c f i LIBCMT:_wctype.obj
 0001:00023850       _iswalpha                  10024850 f i LIBCMT:_wctype.obj
 0001:00023864       _iswascii                  10024864 f i LIBCMT:_wctype.obj
 0001:00023876       _iswblank                  10024876 f i LIBCMT:_wctype.obj
 0001:00023891       _iswcntrl                  10024891 f i LIBCMT:_wctype.obj
 0001:000238a2       _iswdigit                  100248a2 f i LIBCMT:_wctype.obj
 0001:000238b3       _iswgraph                  100248b3 f i LIBCMT:_wctype.obj
 0001:000238c7       _iswlower                  100248c7 f i LIBCMT:_wctype.obj
 0001:000238d8       _iswprint                  100248d8 f i LIBCMT:_wctype.obj
 0001:000238ec       _iswpunct                  100248ec f i LIBCMT:_wctype.obj
 0001:000238fd       _iswspace                  100248fd f i LIBCMT:_wctype.obj
 0001:0002390e       _iswupper                  1002490e f i LIBCMT:_wctype.obj
 0001:0002391f       _iswxdigit                 1002491f f i LIBCMT:_wctype.obj
 0001:00023933       __wctomb_l                 10024933 f   LIBCMT:wctomb.obj
 0001:00023982       __wctomb_s_l               10024982 f   LIBCMT:wctomb.obj
 0001:00023aa6       _wctomb                    10024aa6 f   LIBCMT:wctomb.obj
 0001:00023ad9       _wctomb_s                  10024ad9 f   LIBCMT:wctomb.obj
 0001:00023b00       __aulldvrm                 10024b00 f   LIBCMT:ulldvrm.obj
 0001:00023b95       __matherr                  10024b95 f   LIBCMT:matherr.obj
 0001:00023b98       __frnd                     10024b98 f   LIBCMT:frnd.obj
 0001:00023bac       ___isascii                 10024bac f i LIBCMT:_ctype.obj
 0001:00023bbc       ___iscsym                  10024bbc f i LIBCMT:_ctype.obj
 0001:00023bdc       ___iscsymf                 10024bdc f i LIBCMT:_ctype.obj
 0001:00023bf9       ___toascii                 10024bf9 f i LIBCMT:_ctype.obj
 0001:00023c04       __isalnum_l                10024c04 f i LIBCMT:_ctype.obj
 0001:00023c5c       __isalpha_l                10024c5c f i LIBCMT:_ctype.obj
 0001:00023cb4       __isblank_l                10024cb4 f i LIBCMT:_ctype.obj
 0001:00023d0e       __iscntrl_l                10024d0e f i LIBCMT:_ctype.obj
 0001:00023d60       __iscsym_l                 10024d60 f i LIBCMT:_ctype.obj
 0001:00023d81       __iscsymf_l                10024d81 f i LIBCMT:_ctype.obj
 0001:00023da2       __isdigit_l                10024da2 f i LIBCMT:_ctype.obj
 0001:00023df4       __isgraph_l                10024df4 f i LIBCMT:_ctype.obj
 0001:00023e4c       __islower_l                10024e4c f i LIBCMT:_ctype.obj
 0001:00023e9e       __isprint_l                10024e9e f i LIBCMT:_ctype.obj
 0001:00023ef6       __ispunct_l                10024ef6 f i LIBCMT:_ctype.obj
 0001:00023f48       __isspace_l                10024f48 f i LIBCMT:_ctype.obj
 0001:00023f9a       __isupper_l                10024f9a f i LIBCMT:_ctype.obj
 0001:00023fec       __isxdigit_l               10024fec f i LIBCMT:_ctype.obj
 0001:00024044       _isalnum                   10025044 f i LIBCMT:_ctype.obj
 0001:00024071       _isalpha                   10025071 f i LIBCMT:_ctype.obj
 0001:0002409e       _isblank                   1002509e f i LIBCMT:_ctype.obj
 0001:000240d3       _iscntrl                   100250d3 f i LIBCMT:_ctype.obj
 0001:000240fe       _isdigit                   100250fe f i LIBCMT:_ctype.obj
 0001:00024129       _isgraph                   10025129 f i LIBCMT:_ctype.obj
 0001:00024156       _islower                   10025156 f i LIBCMT:_ctype.obj
 0001:00024181       _isprint                   10025181 f i LIBCMT:_ctype.obj
 0001:000241ae       _ispunct                   100251ae f i LIBCMT:_ctype.obj
 0001:000241d9       _isspace                   100251d9 f i LIBCMT:_ctype.obj
 0001:00024204       _isupper                   10025204 f i LIBCMT:_ctype.obj
 0001:0002422f       _isxdigit                  1002522f f i LIBCMT:_ctype.obj
 0001:0002425c       __tolower                  1002525c f   LIBCMT:tolower.obj
 0001:00024267       __tolower_l                10025267 f   LIBCMT:tolower.obj
 0001:000243aa       _tolower                   100253aa f   LIBCMT:tolower.obj
 0001:000243d6       _strcpy_s                  100253d6 f   LIBCMT:strcpy_s.obj
 0001:00024430       _strrchr                   10025430 f   LIBCMT:strrchr.obj
 0001:00024567       __fptostr                  10025567 f   LIBCMT:_fptostr.obj
 0001:00024617       ___crt_atoflt_l            10025617 f   LIBCMT:atodbl.obj
 0001:000246bb       __atodbl                   100256bb f   LIBCMT:atodbl.obj
 0001:000246d0       __atodbl_l                 100256d0 f   LIBCMT:atodbl.obj
 0001:0002475e       __atoflt                   1002575e f   LIBCMT:atodbl.obj
 0001:00024773       __atoflt_l                 10025773 f   LIBCMT:atodbl.obj
 0001:0002478b       __atoldbl                  1002578b f   LIBCMT:atodbl.obj
 0001:000247a0       __atoldbl_l                100257a0 f   LIBCMT:atodbl.obj
 0001:0002482f       ___dtold                   1002582f f   LIBCMT:cfout.obj
 0001:000248f7       __fltout2                  100258f7 f   LIBCMT:cfout.obj
 0001:00024990       __alldvrm                  10025990 f   LIBCMT:lldvrm.obj
 0001:00024a70       __aullshr                  10025a70 f   LIBCMT:ullshr.obj
 0001:00024a8f       __get_output_format        10025a8f f   LIBCMT:outputformat.obj
 0001:00024a95       __set_output_format        10025a95 f   LIBCMT:outputformat.obj
 0001:00024ac7       __controlfp_s              10025ac7 f   LIBCMT:contrlfp.obj
 0001:00024b24       __fptrap                   10025b24 f   LIBCMT:crt0fp.obj
 0001:00024b2d       __msize                    10025b2d f   LIBCMT:msize.obj
 0001:00024b5e       __recalloc                 10025b5e f   LIBCMT:recalloc.obj
 0001:00024bc7       _strncpy_s                 10025bc7 f   LIBCMT:strncpy_s.obj
 0001:00024d4f       __MallocaIsSizeInRange     10025d4f f i LIBCMT:a_loc.obj
 0001:00024d60       __MarkAllocaS              10025d60 f i LIBCMT:a_loc.obj
 0001:00024d74       ___crtGetLocaleInfoA       10025d74 f   LIBCMT:a_loc.obj
 0001:00024dae       __freea                    10025dae f i LIBCMT:a_loc.obj
 0001:00024dcc       _GetTableIndexFromLcid     10025dcc f   LIBCMT:winapinls.obj
 0001:00024e01       _GetTableIndexFromLocaleName 10025e01 f   LIBCMT:winapinls.obj
 0001:00024e4f       ___crtCompareStringEx      10025e4f f   LIBCMT:winapinls.obj
 0001:00024e9b       ___crtDownlevelLCIDToLocaleName 10025e9b f   LIBCMT:winapinls.obj
 0001:00024f17       ___crtDownlevelLocaleNameToLCID 10025f17 f   LIBCMT:winapinls.obj
 0001:00024f55       ___crtEnumSystemLocalesEx  10025f55 f   LIBCMT:winapinls.obj
 0001:00024f92       ___crtGetDateFormatEx      10025f92 f   LIBCMT:winapinls.obj
 0001:00024fdb       ___crtGetLocaleInfoEx      10025fdb f   LIBCMT:winapinls.obj
 0001:0002500a       ___crtGetTimeFormatEx      1002600a f   LIBCMT:winapinls.obj
 0001:0002503f       ___crtGetUserDefaultLocaleName 1002603f f   LIBCMT:winapinls.obj
 0001:0002506a       ___crtIsValidLocaleName    1002606a f   LIBCMT:winapinls.obj
 0001:00025095       ___crtLCMapStringEx        10026095 f   LIBCMT:winapinls.obj
 0001:000250e1       ___wcsnicmp_ascii          100260e1 f   LIBCMT:winapinls.obj
 0001:00025373       ___crtLCMapStringA         10026373 f   LIBCMT:a_map.obj
 0001:000254b1       ___crtGetStringTypeA       100264b1 f   LIBCMT:a_str.obj
 0001:000254f1       __commit                   100264f1 f   LIBCMT:commit.obj
 0001:000255da       ___lock_fhandle            100265da f   LIBCMT:osfinfo.obj
 0001:00025668       __alloc_osfhnd             10026668 f   LIBCMT:osfinfo.obj
 0001:00025811       __free_osfhnd              10026811 f   LIBCMT:osfinfo.obj
 0001:00025897       __get_osfhandle            10026897 f   LIBCMT:osfinfo.obj
 0001:000258fe       __open_osfhandle           100268fe f   LIBCMT:osfinfo.obj
 0001:00025a14       __set_osfhnd               10026a14 f   LIBCMT:osfinfo.obj
 0001:00025a96       __unlock_fhandle           10026a96 f   LIBCMT:osfinfo.obj
 0001:00025abc       __open                     10026abc f   LIBCMT:open.obj
 0001:00025b6c       __sopen                    10026b6c f   LIBCMT:open.obj
 0001:00025b9f       __sopen_helper             10026b9f f   LIBCMT:open.obj
 0001:00025c68       __sopen_nolock             10026c68 f   LIBCMT:open.obj
 0001:00025cb6       __sopen_s                  10026cb6 f   LIBCMT:open.obj
 0001:00025cd4       __mbsnbcmp                 10026cd4 f   LIBCMT:mbsnbcmp.obj
 0001:00025cec       __mbsnbcmp_l               10026cec f   LIBCMT:mbsnbcmp.obj
 0001:00025e03       __mbsnbicmp                10026e03 f   LIBCMT:mbsnbicm.obj
 0001:00025e1b       __mbsnbicmp_l              10026e1b f   LIBCMT:mbsnbicm.obj
 0001:00025fe0       __global_unwind2           10026fe0 f   LIBCMT:exsup.obj
 0001:00026045       __local_unwind2            10027045 f   LIBCMT:exsup.obj
 0001:000260c9       __abnormal_termination     100270c9 f   LIBCMT:exsup.obj
 0001:000260ec       __NLG_Notify1              100270ec f   LIBCMT:exsup.obj
 0001:000260f5       __NLG_Notify               100270f5 f   LIBCMT:exsup.obj
 0001:0002610c       __NLG_Dispatch2            1002710c     LIBCMT:exsup.obj
 0001:0002610c       __NLG_Dispatch             1002710c     LIBCMT:exsup.obj
 0001:00026114       __NLG_Call                 10027114 f   LIBCMT:exsup.obj
 0001:00026116       __NLG_Return2              10027116     LIBCMT:exsup.obj
 0001:00026117       __getbuf                   10027117 f   LIBCMT:_getbuf.obj
 0001:0002615d       __lseeki64                 1002715d f   LIBCMT:lseeki64.obj
 0001:00026259       __lseeki64_nolock          10027259 f   LIBCMT:lseeki64.obj
 0001:000262cc       __mbtowc_l                 100272cc f   LIBCMT:mbtowc.obj
 0001:000263c1       _mbtowc                    100273c1 f   LIBCMT:mbtowc.obj
 0001:000263d9       __putwch                   100273d9 f   LIBCMT:putwch.obj
 0001:00026425       __putwch_nolock            10027425 f   LIBCMT:putwch.obj
 0001:00026470       __chkstk                   10027470 f   LIBCMT:chkstk.obj
 0001:00026470       __alloca_probe             10027470 f   LIBCMT:chkstk.obj
 0001:0002649b       __vfwprintf_l              1002749b f   LIBCMT:vfwprint.obj
 0001:000264b9       __vfwprintf_p              100274b9 f   LIBCMT:vfwprint.obj
 0001:000264d6       __vfwprintf_p_l            100274d6 f   LIBCMT:vfwprint.obj
 0001:000264f4       __vfwprintf_s_l            100274f4 f   LIBCMT:vfwprint.obj
 0001:00026512       _vfwprintf                 10027512 f   LIBCMT:vfwprint.obj
 0001:0002652f       _vfwprintf_helper          1002752f f   LIBCMT:vfwprint.obj
 0001:000265c2       _vfwprintf_s               100275c2 f   LIBCMT:vfwprint.obj
 0001:000265df       __woutput_l                100275df f   LIBCMT:woutput.obj
 0001:000272be       __woutput_s_l              100282be f   LIBCMT:woutputs.obj
 0001:00027fd5       __validate_param_reuseW    10028fd5 f   LIBCMT:woutputp.obj
 0001:0002814d       __woutput_p_l              1002914d f   LIBCMT:woutputp.obj
 0001:00029576       __ismbbalnum               1002a576 f   LIBCMT:ismbbyte.obj
 0001:0002958f       __ismbbalnum_l             1002a58f f   LIBCMT:ismbbyte.obj
 0001:000295a9       __ismbbalpha               1002a5a9 f   LIBCMT:ismbbyte.obj
 0001:000295c2       __ismbbalpha_l             1002a5c2 f   LIBCMT:ismbbyte.obj
 0001:000295dc       __ismbbblank               1002a5dc f   LIBCMT:ismbbyte.obj
 0001:000295fd       __ismbbblank_l             1002a5fd f   LIBCMT:ismbbyte.obj
 0001:0002961f       __ismbbgraph               1002a61f f   LIBCMT:ismbbyte.obj
 0001:00029638       __ismbbgraph_l             1002a638 f   LIBCMT:ismbbyte.obj
 0001:00029652       __ismbbkalnum              1002a652 f   LIBCMT:ismbbyte.obj
 0001:00029668       __ismbbkalnum_l            1002a668 f   LIBCMT:ismbbyte.obj
 0001:0002967f       __ismbbkana                1002a67f f   LIBCMT:ismbbyte.obj
 0001:00029690       __ismbbkana_l              1002a690 f   LIBCMT:ismbbyte.obj
 0001:000296dc       __ismbbkprint              1002a6dc f   LIBCMT:ismbbyte.obj
 0001:000296f2       __ismbbkprint_l            1002a6f2 f   LIBCMT:ismbbyte.obj
 0001:00029709       __ismbbkpunct              1002a709 f   LIBCMT:ismbbyte.obj
 0001:0002971f       __ismbbkpunct_l            1002a71f f   LIBCMT:ismbbyte.obj
 0001:00029736       __ismbblead                1002a736 f   LIBCMT:ismbbyte.obj
 0001:0002974c       __ismbblead_l              1002a74c f   LIBCMT:ismbbyte.obj
 0001:00029763       __ismbbprint               1002a763 f   LIBCMT:ismbbyte.obj
 0001:0002977c       __ismbbprint_l             1002a77c f   LIBCMT:ismbbyte.obj
 0001:00029796       __ismbbpunct               1002a796 f   LIBCMT:ismbbyte.obj
 0001:000297ac       __ismbbpunct_l             1002a7ac f   LIBCMT:ismbbyte.obj
 0001:000297c3       __ismbbtrail               1002a7c3 f   LIBCMT:ismbbyte.obj
 0001:000297d9       __ismbbtrail_l             1002a7d9 f   LIBCMT:ismbbyte.obj
 0001:00029a16       __strtol_l                 1002aa16 f   LIBCMT:strtol.obj
 0001:00029a31       __strtoul_l                1002aa31 f   LIBCMT:strtol.obj
 0001:00029a4c       _strtol                    1002aa4c f   LIBCMT:strtol.obj
 0001:00029a76       _strtoul                   1002aa76 f   LIBCMT:strtol.obj
 0001:00029aa0       ___free_lconv_mon          1002aaa0 f   LIBCMT:initmon.obj
 0001:00029b9c       ___init_monetary           1002ab9c f   LIBCMT:initmon.obj
 0001:00029f75       ___free_lconv_num          1002af75 f   LIBCMT:initnum.obj
 0001:00029fdc       ___init_numeric            1002afdc f   LIBCMT:initnum.obj
 0001:0002a21a       ___free_lc_time            1002b21a f   LIBCMT:inittime.obj
 0001:0002a59a       ___init_time               1002b59a f   LIBCMT:inittime.obj
 0001:0002ae09       _localeconv                1002be09 f   LIBCMT:lconv.obj
 0001:0002ae2f       __iswctype_l               1002be2f f   LIBCMT:iswctype.obj
 0001:0002ae41       _is_wctype                 1002be41 f   LIBCMT:iswctype.obj
 0001:0002ae4a       _iswctype                  1002be4a f   LIBCMT:iswctype.obj
 0001:0002aea0       ____lc_codepage_func       1002bea0 f   LIBCMT:initctyp.obj
 0001:0002aec6       ____lc_collate_cp_func     1002bec6 f   LIBCMT:initctyp.obj
 0001:0002aeec       ____lc_locale_name_func    1002beec f   LIBCMT:initctyp.obj
 0001:0002af14       ____mb_cur_max_func        1002bf14 f   LIBCMT:initctyp.obj
 0001:0002af3a       ____mb_cur_max_l_func      1002bf3a f   LIBCMT:initctyp.obj
 0001:0002af51       ___init_ctype              1002bf51 f   LIBCMT:initctyp.obj
 0001:0002b2e9       ___pctype_func             1002c2e9 f   LIBCMT:ctype.obj
 0001:0002b312       ___pwctype_func            1002c312 f   LIBCMT:ctype.obj
 0001:0002b318       __isctype                  1002c318 f   LIBCMT:isctype.obj
 0001:0002b347       __isctype_l                1002c347 f   LIBCMT:isctype.obj
 0001:0002b3f8       ___init_dummy              1002c3f8 f   LIBCMT:wsetloca.obj
 0001:0002b3fb       __locterm                  1002c3fb f   LIBCMT:wsetloca.obj
 0001:0002b44d       ____setlc_active_func      1002c44d f   LIBCMT:wsetloca.obj
 0001:0002b453       ____unguarded_readlc_active_add_func 1002c453 f   LIBCMT:wsetloca.obj
 0001:0002b459       ___copy_locale_name        1002c459 f   LIBCMT:wsetloca.obj
 0001:0002b4bd       ___create_locale           1002c4bd f   LIBCMT:wsetloca.obj
 0001:0002b4c6       ___free_locale             1002c4c6 f   LIBCMT:wsetloca.obj
 0001:0002b4cb       ___get_current_locale      1002c4cb f   LIBCMT:wsetloca.obj
 0001:0002b4d0       ___lc_lctowcs              1002c4d0 f   LIBCMT:wsetloca.obj
 0001:0002b53e       ___lc_wcstolc              1002c53e f   LIBCMT:wsetloca.obj
 0001:0002b66a       __configthreadlocale       1002c66a f   LIBCMT:wsetloca.obj
 0001:0002b6f0       __create_locale            1002c6f0 f   LIBCMT:wsetloca.obj
 0001:0002b752       __expandlocale             1002c752 f   LIBCMT:wsetloca.obj
 0001:0002ba49       __free_locale              1002ca49 f   LIBCMT:wsetloca.obj
 0001:0002bb00       __get_current_locale       1002cb00 f   LIBCMT:wsetloca.obj
 0001:0002bbaf       __wcreate_locale           1002cbaf f   LIBCMT:wsetloca.obj
 0001:0002bc86       __wcscats                  1002cc86 f   LIBCMT:wsetloca.obj
 0001:0002bcc5       __wsetlocale               1002ccc5 f   LIBCMT:wsetloca.obj
 0001:0002c607       __CopyMan                  1002d607 f i LIBCMT:intrncvt.obj
 0001:0002c624       __FillZeroMan              1002d624 f i LIBCMT:intrncvt.obj
 0001:0002c633       __IncMan                   1002d633 f i LIBCMT:intrncvt.obj
 0001:0002c695       __IsZeroMan                1002d695 f i LIBCMT:intrncvt.obj
 0001:0002c6b2       __RoundMan                 1002d6b2 f i LIBCMT:intrncvt.obj
 0001:0002c7b3       __ShrMan                   1002d7b3 f i LIBCMT:intrncvt.obj
 0001:0002c841       __ZeroTail                 1002d841 f i LIBCMT:intrncvt.obj
 0001:0002c889       ___addl                    1002d889 f i LIBCMT:intrncvt.obj
 0001:0002c8ad       __ld12cvt                  1002d8ad f i LIBCMT:intrncvt.obj
 0001:0002ce18       __ld12tod                  1002de18 f   LIBCMT:intrncvt.obj
 0001:0002d38a       __ld12tof                  1002e38a f   LIBCMT:intrncvt.obj
 0001:0002d8fc       __ld12told                 1002e8fc f   LIBCMT:intrncvt.obj
 0001:0002d9cb       ___STRINGTOLD_L            1002e9cb f   LIBCMT:strgtold.obj
 0001:0002da26       ___ld12mul                 1002ea26 f i LIBCMT:strgtold.obj
 0001:0002dcf2       ___multtenpow12            1002ecf2 f i LIBCMT:strgtold.obj
 0001:0002e045       ___shl_12                  1002f045 f i LIBCMT:strgtold.obj
 0001:0002e076       ___shr_12                  1002f076 f i LIBCMT:strgtold.obj
 0001:0002e0a6       ___strgtold12_l            1002f0a6 f   LIBCMT:strgtold.obj
 0001:0002e84e       _$I10_OUTPUT               1002f84e f   LIBCMT:x10fout.obj
 0001:0002f222       ___add_12                  10030222 f i LIBCMT:x10fout.obj
 0001:0002f3ce       ___control87_2             100303ce f   LIBCMT:ieee87.obj
 0001:0002fa42       __clearfp                  10030a42 f   LIBCMT:ieee87.obj
 0001:0002fb22       __control87                10030b22 f i LIBCMT:ieee87.obj
 0001:0002fe24       __controlfp                10030e24 f   LIBCMT:ieee87.obj
 0001:0003012f       __fpreset                  1003112f f   LIBCMT:ieee87.obj
 0001:000301fc       __set_controlfp            100311fc f   LIBCMT:ieee87.obj
 0001:0003026f       __statusfp                 1003126f f   LIBCMT:ieee87.obj
 0001:00030309       __statusfp2                10031309 f   LIBCMT:ieee87.obj
 0001:00030370       __alloca_probe_16          10031370 f   LIBCMT:alloca16.obj
 0001:00030386       __alloca_probe_8           10031386     LIBCMT:alloca16.obj
 0001:0003039c       _wcsnlen                   1003139c f   LIBCMT:wcslen_s.obj
 0001:00030443       __wopen                    10031443 f   LIBCMT:wopen.obj
 0001:000304f3       __wsopen                   100314f3 f   LIBCMT:wopen.obj
 0001:00030526       __wsopen_helper            10031526 f   LIBCMT:wopen.obj
 0001:000305ef       __wsopen_nolock            100315ef f   LIBCMT:wopen.obj
 0001:00030d42       __wsopen_s                 10031d42 f   LIBCMT:wopen.obj
 0001:00030d60       _strncmp                   10031d60 f   LIBCMT:strncmp.obj
 0001:00030dd8       __strnicmp                 10031dd8 f   LIBCMT:strnicmp.obj
 0001:00030e43       __strnicmp_l               10031e43 f   LIBCMT:strnicmp.obj
 0001:00030ef4       ___termconout              10031ef4 f   LIBCMT:initcon.obj
 0001:00030f0b       ___initconout              10031f0b f   LIBCMT:initcon.obj
 0001:00030f2a       __fputwc_nolock            10031f2a f   LIBCMT:fputwc.obj
 0001:000310b0       _fputwc                    100320b0 f   LIBCMT:fputwc.obj
 0001:00031127       _putwc                     10032127 f   LIBCMT:fputwc.obj
 0001:00031311       __wcstol_l                 10032311 f   LIBCMT:wcstol.obj
 0001:00031329       __wcstoul_l                10032329 f   LIBCMT:wcstol.obj
 0001:00031341       _wcstol                    10032341 f   LIBCMT:wcstol.obj
 0001:00031359       _wcstoul                   10032359 f   LIBCMT:wcstol.obj
 0001:00031371       ___init_collate            10032371 f   LIBCMT:initcoll.obj
 0001:00031491       _memcmp                    10032491 f   LIBCMT:memcmp.obj
 0001:000343a5       _wcscmp                    100353a5 f   LIBCMT:wcscmp.obj
 0001:000343e3       _wcscspn                   100353e3 f   LIBCMT:wcscspn.obj
 0001:0003442e       _wcsncmp                   1003542e f   LIBCMT:wcsncmp.obj
 0001:00034464       _wcspbrk                   10035464 f   LIBCMT:wcspbrk.obj
 0001:00034a68       ___get_qualified_locale    10035a68 f   LIBCMT:getqloc.obj
 0001:000352d8       ___get_qualified_locale_downlevel 100362d8 f   LIBCMT:getqloc_downlevel.obj
 0001:000354f4       ___mtold12                 100364f4 f   LIBCMT:mantold.obj
 0001:000356d4       __chsize                   100366d4 f   LIBCMT:chsize.obj
 0001:000356ee       __chsize_nolock            100366ee f   LIBCMT:chsize.obj
 0001:000358a4       __chsize_s                 100368a4 f   LIBCMT:chsize.obj
 0001:00035992       __get_fmode                10036992 f   LIBCMT:setmode.obj
 0001:000359bc       __set_fmode                100369bc f   LIBCMT:setmode.obj
 0001:000359f7       __setmode                  100369f7 f   LIBCMT:setmode.obj
 0001:00035afc       __setmode_nolock           10036afc f   LIBCMT:setmode.obj
 0001:00035bd0       ___ascii_strnicmp          10036bd0 f   LIBCMT:_strnicm.obj
 0001:00035c31       __flswbuf                  10036c31 f   LIBCMT:_flswbuf.obj
 0001:00035d93       __wchartodigit             10036d93 f   LIBCMT:wchtodig.obj
 0001:00035f32       __wtoi                     10036f32 f   LIBCMT:wtox.obj
 0001:00035f3b       __wtoi64                   10036f3b f   LIBCMT:wtox.obj
 0001:00035f4f       __wtoi64_l                 10036f4f f   LIBCMT:wtox.obj
 0001:00035f66       __wtoi_l                   10036f66 f   LIBCMT:wtox.obj
 0001:00035f6f       __wtol                     10036f6f f   LIBCMT:wtox.obj
 0001:00035f83       __wtol_l                   10036f83 f   LIBCMT:wtox.obj
 0001:00035f9a       __wtoll                    10036f9a f   LIBCMT:wtox.obj
 0001:00035fae       __wtoll_l                  10036fae f   LIBCMT:wtox.obj
 0001:00035fc5       _wcschr                    10036fc5 f   LIBCMT:wcschr.obj
 0001:00036073       __wcsicmp                  10037073 f   LIBCMT:wcsicmp.obj
 0001:00036106       __wcsicmp_l                10037106 f   LIBCMT:wcsicmp.obj
 0001:000361e1       __wcsnicmp                 100371e1 f   LIBCMT:wcsnicmp.obj
 0001:00036297       __wcsnicmp_l               10037297 f   LIBCMT:wcsnicmp.obj
 0001:00036660       __wcstof_l                 10037660 f   LIBCMT:wcstoq.obj
 0001:00036713       __wcstoi64                 10037713 f   LIBCMT:wcstoq.obj
 0001:0003673d       __wcstoi64_l               1003773d f   LIBCMT:wcstoq.obj
 0001:00036758       __wcstoimax_l              10037758 f   LIBCMT:wcstoq.obj
 0001:00036761       __wcstold_l                10037761 f   LIBCMT:wcstoq.obj
 0001:0003676a       __wcstoll_l                1003776a f   LIBCMT:wcstoq.obj
 0001:00036773       __wcstoui64                10037773 f   LIBCMT:wcstoq.obj
 0001:0003679d       __wcstoui64_l              1003779d f   LIBCMT:wcstoq.obj
 0001:000367b8       __wcstoull_l               100377b8 f   LIBCMT:wcstoq.obj
 0001:000367c1       __wcstoumax_l              100377c1 f   LIBCMT:wcstoq.obj
 0001:000367ca       _wcstof                    100377ca f   LIBCMT:wcstoq.obj
 0001:000367df       _wcstoimax                 100377df f   LIBCMT:wcstoq.obj
 0001:000367e8       _wcstold                   100377e8 f   LIBCMT:wcstoq.obj
 0001:000367f1       _wcstoll                   100377f1 f   LIBCMT:wcstoq.obj
 0001:000367fa       _wcstoull                  100377fa f   LIBCMT:wcstoq.obj
 0001:00036803       _wcstoumax                 10037803 f   LIBCMT:wcstoq.obj
 0001:0003680c       __towlower_l               1003780c f   LIBCMT:towlower.obj
 0001:000368bd       _towlower                  100378bd f   LIBCMT:towlower.obj
 0001:000368ce       __wcstod_l                 100378ce f   LIBCMT:wcstod.obj
 0001:000369c9       _wcstod                    100379c9 f   LIBCMT:wcstod.obj
 0001:000369e0       __allmul                   100379e0 f   LIBCMT:llmul.obj
 0001:00036a14       ___crtLCMapStringW         10037a14 f   LIBCMT:w_map.obj
 0001:00036a43       __wfltin2                  10037a43 f   LIBCMT:wcfin.obj
 0001:00036af0       ___WSTRINGTOLD_L           10037af0 f   LIBCMT:wstrgtold.obj
 0001:00036b4b       ___wstrgtold12_l           10037b4b f   LIBCMT:wstrgtold.obj
 0001:0003739c       _GetModuleHandleA@4        1003839c f   kernel32:KERNEL32.dll
 0001:000373a2       _GetProcAddress@8          100383a2 f   kernel32:KERNEL32.dll
 0001:000373a8       _HeapAlloc@12              100383a8 f   kernel32:KERNEL32.dll
 0001:000373ae       _IsDebuggerPresent@0       100383ae f   kernel32:KERNEL32.dll
 0001:000373b4       _IsProcessorFeaturePresent@4 100383b4 f   kernel32:KERNEL32.dll
 0001:000373ba       _EncodePointer@4           100383ba f   kernel32:KERNEL32.dll
 0001:000373c0       _DecodePointer@4           100383c0 f   kernel32:KERNEL32.dll
 0001:000373c6       _GetLastError@0            100383c6 f   kernel32:KERNEL32.dll
 0001:000373cc       _ExitProcess@4             100383cc f   kernel32:KERNEL32.dll
 0001:000373d2       _GetModuleHandleExW@12     100383d2 f   kernel32:KERNEL32.dll
 0001:000373d8       _AreFileApisANSI@0         100383d8 f   kernel32:KERNEL32.dll
 0001:000373de       _MultiByteToWideChar@24    100383de f   kernel32:KERNEL32.dll
 0001:000373e4       _WideCharToMultiByte@32    100383e4 f   kernel32:KERNEL32.dll
 0001:000373ea       _HeapFree@12               100383ea f   kernel32:KERNEL32.dll
 0001:000373f0       _HeapReAlloc@16            100383f0 f   kernel32:KERNEL32.dll
 0001:000373f6       _EnterCriticalSection@4    100383f6 f   kernel32:KERNEL32.dll
 0001:000373fc       _LeaveCriticalSection@4    100383fc f   kernel32:KERNEL32.dll
 0001:00037402       _GetStdHandle@4            10038402 f   kernel32:KERNEL32.dll
 0001:00037408       _GetFileType@4             10038408 f   kernel32:KERNEL32.dll
 0001:0003740e       _GetModuleFileNameW@12     1003840e f   kernel32:KERNEL32.dll
 0001:00037414       _WriteConsoleW@20          10038414 f   kernel32:KERNEL32.dll
 0001:0003741a       _GetCommandLineA@0         1003841a f   kernel32:KERNEL32.dll
 0001:00037420       _GetCurrentThreadId@0      10038420 f   kernel32:KERNEL32.dll
 0001:00037426       _WriteFile@20              10038426 f   kernel32:KERNEL32.dll
 0001:0003742c       _GetProcessHeap@0          1003842c f   kernel32:KERNEL32.dll
 0001:00037432       _UnhandledExceptionFilter@4 10038432 f   kernel32:KERNEL32.dll
 0001:00037438       _SetUnhandledExceptionFilter@4 10038438 f   kernel32:KERNEL32.dll
 0001:0003743e       _SetLastError@4            1003843e f   kernel32:KERNEL32.dll
 0001:00037444       _InitializeCriticalSectionAndSpinCount@8 10038444 f   kernel32:KERNEL32.dll
 0001:0003744a       _CreateEventW@16           1003844a f   kernel32:KERNEL32.dll
 0001:00037450       _Sleep@4                   10038450 f   kernel32:KERNEL32.dll
 0001:00037456       _GetCurrentProcess@0       10038456 f   kernel32:KERNEL32.dll
 0001:0003745c       _TerminateProcess@8        1003845c f   kernel32:KERNEL32.dll
 0001:00037462       _TlsAlloc@0                10038462 f   kernel32:KERNEL32.dll
 0001:00037468       _TlsGetValue@4             10038468 f   kernel32:KERNEL32.dll
 0001:0003746e       _TlsSetValue@8             1003846e f   kernel32:KERNEL32.dll
 0001:00037474       _TlsFree@4                 10038474 f   kernel32:KERNEL32.dll
 0001:0003747a       _GetStartupInfoW@4         1003847a f   kernel32:KERNEL32.dll
 0001:00037480       _GetTickCount@0            10038480 f   kernel32:KERNEL32.dll
 0001:00037486       _GetModuleHandleW@4        10038486 f   kernel32:KERNEL32.dll
 0001:0003748c       _CreateSemaphoreW@16       1003848c f   kernel32:KERNEL32.dll
 0001:00037492       _DeleteCriticalSection@4   10038492 f   kernel32:KERNEL32.dll
 0001:00037498       _FatalAppExitA@8           10038498 f   kernel32:KERNEL32.dll
 0001:0003749e       _SetConsoleCtrlHandler@8   1003849e f   kernel32:KERNEL32.dll
 0001:000374a4       _FreeLibrary@4             100384a4 f   kernel32:KERNEL32.dll
 0001:000374aa       _LoadLibraryExW@12         100384aa f   kernel32:KERNEL32.dll
 0001:000374b0       _IsValidCodePage@4         100384b0 f   kernel32:KERNEL32.dll
 0001:000374b6       _GetACP@0                  100384b6 f   kernel32:KERNEL32.dll
 0001:000374bc       _GetOEMCP@0                100384bc f   kernel32:KERNEL32.dll
 0001:000374c2       _GetCPInfo@8               100384c2 f   kernel32:KERNEL32.dll
 0001:000374c8       _CloseHandle@4             100384c8 f   kernel32:KERNEL32.dll
 0001:000374ce       _RtlUnwind@16              100384ce f   kernel32:KERNEL32.dll
 0001:000374d4       _ReadFile@20               100384d4 f   kernel32:KERNEL32.dll
 0001:000374da       _GetConsoleMode@8          100384da f   kernel32:KERNEL32.dll
 0001:000374e0       _ReadConsoleW@20           100384e0 f   kernel32:KERNEL32.dll
 0001:000374e6       _GetConsoleCP@0            100384e6 f   kernel32:KERNEL32.dll
 0001:000374ec       _DeleteFileW@4             100384ec f   kernel32:KERNEL32.dll
 0001:000374f2       _SetFilePointerEx@20       100384f2 f   kernel32:KERNEL32.dll
 0001:000374f8       _RaiseException@16         100384f8 f   kernel32:KERNEL32.dll
 0001:000374fe       _OutputDebugStringW@4      100384fe f   kernel32:KERNEL32.dll
 0001:00037504       _GetCurrentThread@0        10038504 f   kernel32:KERNEL32.dll
 0001:0003750a       _GetModuleFileNameA@12     1003850a f   kernel32:KERNEL32.dll
 0001:00037510       _QueryPerformanceCounter@4 10038510 f   kernel32:KERNEL32.dll
 0001:00037516       _GetCurrentProcessId@0     10038516 f   kernel32:KERNEL32.dll
 0001:0003751c       _GetSystemTimeAsFileTime@4 1003851c f   kernel32:KERNEL32.dll
 0001:00037522       _GetEnvironmentStringsW@0  10038522 f   kernel32:KERNEL32.dll
 0001:00037528       _FreeEnvironmentStringsW@4 10038528 f   kernel32:KERNEL32.dll
 0001:0003752e       _HeapSize@12               1003852e f   kernel32:KERNEL32.dll
 0001:00037534       _GetDateFormatW@24         10038534 f   kernel32:KERNEL32.dll
 0001:0003753a       _GetTimeFormatW@24         1003853a f   kernel32:KERNEL32.dll
 0001:00037540       _CompareStringW@24         10038540 f   kernel32:KERNEL32.dll
 0001:00037546       _LCMapStringW@24           10038546 f   kernel32:KERNEL32.dll
 0001:0003754c       _GetLocaleInfoW@16         1003854c f   kernel32:KERNEL32.dll
 0001:00037552       _IsValidLocale@8           10038552 f   kernel32:KERNEL32.dll
 0001:00037558       _GetUserDefaultLCID@0      10038558 f   kernel32:KERNEL32.dll
 0001:0003755e       _EnumSystemLocalesW@8      1003855e f   kernel32:KERNEL32.dll
 0001:00037564       _GetStringTypeW@16         10038564 f   kernel32:KERNEL32.dll
 0001:0003756a       _FlushFileBuffers@4        1003856a f   kernel32:KERNEL32.dll
 0001:00037570       _SetStdHandle@8            10038570 f   kernel32:KERNEL32.dll
 0001:00037576       _CreateFileW@28            10038576 f   kernel32:KERNEL32.dll
 0001:0003757c       _SetEndOfFile@4            1003857c f   kernel32:KERNEL32.dll
 0002:00000000       ___xc_a                    10043000     LIBCMT:crt0init.obj
 0002:00000104       ___xc_z                    10043104     LIBCMT:crt0init.obj
 0002:00000208       ___xi_a                    10043208     LIBCMT:crt0init.obj
 0002:00000424       ___xi_z                    10043424     LIBCMT:crt0init.obj
 0002:00000528       ___xp_a                    10043528     LIBCMT:crt0init.obj
 0002:0000083c       ___xp_z                    1004383c     LIBCMT:crt0init.obj
 0002:00000940       ___xt_a                    10043940     LIBCMT:crt0init.obj
 0002:00000a44       ___xt_z                    10043a44     LIBCMT:crt0init.obj
 0002:00000b88       _FingerStrokeAssistance_M  10043b88     FingerStrokeAssistance.obj
 0002:00000b8c       ??_C@_00CNPNBAHC@?$AA@     10043b8c     FingerStrokeAssistance.obj
 0002:00000b90       ??_C@_0BM@BHPPCGOM@FingerStrokeAssistance?1Out1?$AA@ 10043b90     FingerStrokeAssistance.obj
 0002:00000bb4       ??_C@_0BI@PEBACBDB@Error?5creating?5scope?53?6?$AA@ 10043bb4     FingerStrokeAssistance.obj
 0002:00000bd0       ??_C@_0O@KPAEFEKK@signals?1Gain2?$AA@ 10043bd0     FingerStrokeAssistance.obj
 0002:00000be0       ??_C@_0DB@GGNMPEDP@Robot?1account?5for?5handedness1?1MA@ 10043be0     FingerStrokeAssistance.obj
 0002:00000c1c       ??_C@_0O@LNGALFC@Robot?1Gain?1s1?$AA@ 10043c1c     FingerStrokeAssistance.obj
 0002:00000c2c       ??_C@_0BG@DKHKBHDL@MATLAB?5Function?1p8?1s1?$AA@ 10043c2c     FingerStrokeAssistance.obj
 0002:00000c48       ??_C@_0N@CGBNOIGO@Robot?1Sum?1s1?$AA@ 10043c48     FingerStrokeAssistance.obj
 0002:00000c58       ??_C@_0BA@MKGFJNCI@f_ref1?3?$CF15?46f?5N?$AA@ 10043c58     FingerStrokeAssistance.obj
 0002:00000c6c       ??_C@_0P@JDGPLDCK@enc_raw?3?$CF15?46f?$AA@ 10043c6c     FingerStrokeAssistance.obj
 0002:00000c80       ??_C@_0BA@ELCINL@enc_norm?3?$CF15?46f?$AA@ 10043c80     FingerStrokeAssistance.obj
 0002:00000c94       ??_C@_0BB@FMBPFFLE@pos_ref_1?3?$CF15?46f?$AA@ 10043c94     FingerStrokeAssistance.obj
 0002:00000ca8       ??_C@_0BC@DJAOFMOF@pos_meas_1?3?$CF15?46f?$AA@ 10043ca8     FingerStrokeAssistance.obj
 0002:00000cc0       ??_C@_0BI@PFNCELAG@Error?5creating?5scope?52?6?$AA@ 10043cc0     FingerStrokeAssistance.obj
 0002:00000cdc       ??_C@_0BG@BLHIHKBK@Robot?1MATLAB?5Function?$AA@ 10043cdc     FingerStrokeAssistance.obj
 0002:00000cf8       ??_C@_0BH@MPAPDKAB@Robot?1PCI?96221?5AD1?1p12?$AA@ 10043cf8     FingerStrokeAssistance.obj
 0002:00000d14       ??_C@_0BH@DLCEIGLC@Robot?1MATLAB?5Function1?$AA@ 10043d14     FingerStrokeAssistance.obj
 0002:00000d30       ??_C@_0BM@PNODPMIP@Calibrated_GripForce?3?$CF15?46f?$AA@ 10043d30     FingerStrokeAssistance.obj
 0002:00000d54       ??_C@_0BF@LFMOHJPF@Raw_GripForce?3?$CF15?46f?$AA@ 10043d54     FingerStrokeAssistance.obj
 0002:00000d70       ??_C@_0BL@EFDNDKKM@Calibrated_Pressure?3?$CF15?46f?$AA@ 10043d70     FingerStrokeAssistance.obj
 0002:00000d90       ??_C@_0BJ@EOMICGPB@Position_Linkage1?3?$CF15?46f?$AA@ 10043d90     FingerStrokeAssistance.obj
 0002:00000db0       ??_C@_0BI@PAJNFNID@Error?5creating?5scope?55?6?$AA@ 10043db0     FingerStrokeAssistance.obj
 0002:00000dcc       ??_C@_0BI@PHJEPFFP@Error?5creating?5scope?51?6?$AA@ 10043dcc     FingerStrokeAssistance.obj
 0002:00000de8       ??_C@_0BD@KDGDPNDI@MATLAB?5Function?1p1?$AA@ 10043de8     FingerStrokeAssistance.obj
 0002:00000e00       ??_C@_0BA@KHHDAHD@signals?1Gain?1s1?$AA@ 10043e00     FingerStrokeAssistance.obj
 0002:00000e14       ??_C@_0BA@CBFKGDLA@signals?1Gain?1s2?$AA@ 10043e14     FingerStrokeAssistance.obj
 0002:00000e28       ??_C@_0N@NEDGIMDD@state?3?$CF15?46f?$AA@ 10043e28     FingerStrokeAssistance.obj
 0002:00000e38       ??_C@_0BH@DNEEKCDA@f_ref_limited_1?3?$CF15?46f?$AA@ 10043e38     FingerStrokeAssistance.obj
 0002:00000e54       ??_C@_0BH@EMJJOPF@f_ref_limited_2?3?$CF15?46f?$AA@ 10043e54     FingerStrokeAssistance.obj
 0002:00000e70       ??_C@_0BI@PCNLODNK@Error?5creating?5scope?56?6?$AA@ 10043e70     FingerStrokeAssistance.obj
 0002:00000e8c       ??_C@_0BH@GNHOCBDE@Robot?1MATLAB?5Function7?$AA@ 10043e8c     FingerStrokeAssistance.obj
 0002:00000ea8       ??_C@_0BH@OKOGDNPL@Robot?1MATLAB?5Function8?$AA@ 10043ea8     FingerStrokeAssistance.obj
 0002:00000ec4       ??_C@_0BH@HEGFBAHF@Robot?1MATLAB?5Function6?$AA@ 10043ec4     FingerStrokeAssistance.obj
 0002:00000ee0       ??_C@_0BI@PBFPDHLE@Error?5creating?5scope?54?6?$AA@ 10043ee0     FingerStrokeAssistance.obj
 0002:00000efc       ??_C@_0N@OFFFIF@Raw_X?3?$CF15?46f?$AA@ 10043efc     FingerStrokeAssistance.obj
 0002:00000f0c       ??_C@_0N@BHJOEBMG@Raw_Y?3?$CF15?46f?$AA@ 10043f0c     FingerStrokeAssistance.obj
 0002:00000f1c       ??_C@_0N@COBDHNAD@Raw_Z?3?$CF15?46f?$AA@ 10043f1c     FingerStrokeAssistance.obj
 0002:00000f2c       ??_C@_0BC@OJJPBDHH@FixedStepDiscrete?$AA@ 10043f2c     FingerStrokeAssistance.obj
 0002:00000f44       ??_C@_04EPKDLPPB@tout?$AA@ 10043f44     FingerStrokeAssistance.obj
 0002:00000f4c       ??_C@_03HBFGMJOD@rt_?$AA@  10043f4c     FingerStrokeAssistance.obj
 0002:00000f50       ??_C@_04LHDDHLEA@yout?$AA@ 10043f50     FingerStrokeAssistance.obj
 0002:00000f58       ??_C@_0N@JAOEPLNP@PCI?96221?5AD1?$AA@ 10043f58     FingerStrokeAssistance.obj
 0002:00000f68       ??_C@_0CK@LAFKNGLI@FingerStrokeAssistance?1Robot?1PCI@ 10043f68     FingerStrokeAssistance.obj
 0002:00000f9c       ??_C@_0O@IFKELIIB@PCI?56221?5ENC?5?$AA@ 10043f9c     FingerStrokeAssistance.obj
 0002:00000fac       ??_C@_0CL@FGFCPCFH@FingerStrokeAssistance?1Robot?1PCI@ 10043fac     FingerStrokeAssistance.obj
 0002:00000fe0       ??_C@_0P@FMGHBALM@PCI?56221?5ENC?51?$AA@ 10043fe0     FingerStrokeAssistance.obj
 0002:00000ff4       ??_C@_0CM@DDAEJBBH@FingerStrokeAssistance?1Robot?1PCI@ 10043ff4     FingerStrokeAssistance.obj
 0002:00001028       ??_C@_0M@HBIEHIJL@PCI?96221?5DA?$AA@ 10044028     FingerStrokeAssistance.obj
 0002:00001038       ??_C@_0CJ@KACMKMOO@FingerStrokeAssistance?1Robot?1PCI@ 10044038     FingerStrokeAssistance.obj
 0002:00001070       __real@0000000000000000    10044070     FingerStrokeAssistance.obj
 0002:00001080       __real@3f50624dd2f1a9fc    10044080     FingerStrokeAssistance.obj
 0002:00001090       __real@3f947ae147ae147b    10044090     FingerStrokeAssistance.obj
 0002:000010a0       __real@3f9eb851eb851eb8    100440a0     FingerStrokeAssistance.obj
 0002:000010b0       __real@3fb999999999999a    100440b0     FingerStrokeAssistance.obj
 0002:000010c0       __real@3fe0000000000000    100440c0     FingerStrokeAssistance.obj
 0002:000010d0       __real@3fe999999999999a    100440d0     FingerStrokeAssistance.obj
 0002:000010e0       __real@3ff0000000000000    100440e0     FingerStrokeAssistance.obj
 0002:000010f0       __real@3ff4834834834836    100440f0     FingerStrokeAssistance.obj
 0002:00001100       __real@4000000000000000    10044100     FingerStrokeAssistance.obj
 0002:00001110       __real@400370a3d70a3d71    10044110     FingerStrokeAssistance.obj
 0002:00001120       __real@4003b851eb851eb8    10044120     FingerStrokeAssistance.obj
 0002:00001130       __real@4004000000000000    10044130     FingerStrokeAssistance.obj
 0002:00001140       __real@400470a3d70a3d70    10044140     FingerStrokeAssistance.obj
 0002:00001150       __real@4008000000000000    10044150     FingerStrokeAssistance.obj
 0002:00001160       __real@40089d89d89d89d5    10044160     FingerStrokeAssistance.obj
 0002:00001170       __real@400a3ac10c9714f8    10044170     FingerStrokeAssistance.obj
 0002:00001180       __real@400c11f7047dc11b    10044180     FingerStrokeAssistance.obj
 0002:00001190       __real@400e000000000000    10044190     FingerStrokeAssistance.obj
 0002:000011a0       __real@4010000000000000    100441a0     FingerStrokeAssistance.obj
 0002:000011b0       __real@4014000000000000    100441b0     FingerStrokeAssistance.obj
 0002:000011c0       __real@4018000000000000    100441c0     FingerStrokeAssistance.obj
 0002:000011d0       __real@40239d013b88a70c    100441d0     FingerStrokeAssistance.obj
 0002:000011e0       __real@4024000000000000    100441e0     FingerStrokeAssistance.obj
 0002:000011f0       __real@402e000000000000    100441f0     FingerStrokeAssistance.obj
 0002:00001200       __real@4049000000000000    10044200     FingerStrokeAssistance.obj
 0002:00001210       __real@41f0000000000000    10044210     FingerStrokeAssistance.obj
 0002:00001220       __real@4330000000000000    10044220     FingerStrokeAssistance.obj
 0002:00001230       __real@8000000000000000    10044230     FingerStrokeAssistance.obj
 0002:00001240       __real@bfe0000000000000    10044240     FingerStrokeAssistance.obj
 0002:00001250       __real@bff0000000000000    10044250     FingerStrokeAssistance.obj
 0002:00001260       __real@c004000000000000    10044260     FingerStrokeAssistance.obj
 0002:00001270       __real@c014000000000000    10044270     FingerStrokeAssistance.obj
 0002:00001280       __xmm@00000000000000003f50624dd2f1a9fc 10044280     FingerStrokeAssistance.obj
 0002:000012a0       __xmm@00000000000000003ff0000000000000 100442a0     FingerStrokeAssistance.obj
 0002:000012c0       __xmm@0000010e00000091000000a400000001 100442c0     FingerStrokeAssistance.obj
 0002:000012e0       __xmm@3ff00000000000000000000000000000 100442e0     FingerStrokeAssistance.obj
 0002:00001300       __xmm@3ff00000000000003ff0000000000000 10044300     FingerStrokeAssistance.obj
 0002:00001320       __xmm@41f00000000000000000000000000000 10044320     FingerStrokeAssistance.obj
 0002:00001340       __xmm@7fffffffffffffff7fffffffffffffff 10044340     FingerStrokeAssistance.obj
 0002:00001360       __xmm@80000000000000008000000000000000 10044360     FingerStrokeAssistance.obj
 0002:00003508       ??_C@_0BD@IIEOKOPL@MATLAB?5Function?1p2?$AA@ 10046508     FingerStrokeAssistance_capi.obj
 0002:00003520       ??_C@_0BD@JBFFJPLK@MATLAB?5Function?1p3?$AA@ 10046520     FingerStrokeAssistance_capi.obj
 0002:00003538       ??_C@_0BD@NOBEAJHN@MATLAB?5Function?1p4?$AA@ 10046538     FingerStrokeAssistance_capi.obj
 0002:00003550       ??_C@_0BD@MHAPDIDM@MATLAB?5Function?1p5?$AA@ 10046550     FingerStrokeAssistance_capi.obj
 0002:00003568       ??_C@_0BD@OMCCGLPP@MATLAB?5Function?1p6?$AA@ 10046568     FingerStrokeAssistance_capi.obj
 0002:00003580       ??_C@_0BD@PFDJFKLO@MATLAB?5Function?1p7?$AA@ 10046580     FingerStrokeAssistance_capi.obj
 0002:00003598       ??_C@_0BD@HCKBEGHB@MATLAB?5Function?1p8?$AA@ 10046598     FingerStrokeAssistance_capi.obj
 0002:000035b0       ??_C@_0BD@GLLKHHDA@MATLAB?5Function?1p9?$AA@ 100465b0     FingerStrokeAssistance_capi.obj
 0002:000035c8       ??_C@_0BE@PHOHONJA@MATLAB?5Function?1p10?$AA@ 100465c8     FingerStrokeAssistance_capi.obj
 0002:000035e0       ??_C@_0BF@GGMNNFDC@Data?5Type?5Conversion?$AA@ 100465e0     FingerStrokeAssistance_capi.obj
 0002:000035fc       ??_C@_0BG@OOMJLOH@Data?5Type?5Conversion1?$AA@ 100465fc     FingerStrokeAssistance_capi.obj
 0002:00003618       ??_C@_0BG@CFMBMICE@Data?5Type?5Conversion2?$AA@ 10046618     FingerStrokeAssistance_capi.obj
 0002:00003634       ??_C@_0O@KLKAEEDE@Manual?5Switch?$AA@ 10046634     FingerStrokeAssistance_capi.obj
 0002:00003644       ??_C@_0L@EGNLABOL@Unit?5Delay?$AA@ 10046644     FingerStrokeAssistance_capi.obj
 0002:00003654       ??_C@_0M@PBMDOHED@Unit?5Delay1?$AA@ 10046654     FingerStrokeAssistance_capi.obj
 0002:00003664       ??_C@_0M@NKOOLEIA@Unit?5Delay2?$AA@ 10046664     FingerStrokeAssistance_capi.obj
 0002:00003674       ??_C@_0M@MDPFIFMB@Unit?5Delay3?$AA@ 10046674     FingerStrokeAssistance_capi.obj
 0002:00003684       ??_C@_0CD@GLAMPGEM@HL?5Controller?1Data?5Type?5Conversi@ 10046684     FingerStrokeAssistance_capi.obj
 0002:000036b0       ??_C@_0CH@PENCCFNF@HL?5Controller?1Discrete?9Time?5Inte@ 100466b0     FingerStrokeAssistance_capi.obj
 0002:000036e0       ??_C@_0BG@JLDBOJPN@HL?5Controller?1Damping?$AA@ 100466e0     FingerStrokeAssistance_capi.obj
 0002:000036fc       ??_C@_0BE@OJENBPFA@HL?5Controller?1Gain1?$AA@ 100466fc     FingerStrokeAssistance_capi.obj
 0002:00003714       ??_C@_0BE@JOHLLJDM@HL?5Controller?1Delay?$AA@ 10046714     FingerStrokeAssistance_capi.obj
 0002:0000372c       ??_C@_0BF@OJKMAAIM@HL?5Controller?1Delay1?$AA@ 1004672c     FingerStrokeAssistance_capi.obj
 0002:00003748       ??_C@_0BP@PNFNPGMG@HL?5Controller?1Discrete?5Filter1?$AA@ 10046748     FingerStrokeAssistance_capi.obj
 0002:00003770       ??_C@_0BJ@ELDEKLE@LL?5Force?5Controller?1Gain?$AA@ 10046770     FingerStrokeAssistance_capi.obj
 0002:00003790       ??_C@_0BL@CCMCIEEP@LL?5Position?5Controller?1Sum?$AA@ 10046790     FingerStrokeAssistance_capi.obj
 0002:000037b0       ??_C@_0BM@CABMJJDH@LL?5Position?5Controller?1Sum1?$AA@ 100467b0     FingerStrokeAssistance_capi.obj
 0002:000037d4       ??_C@_0BH@BAAJNFHB@Robot?1MATLAB?5Function2?$AA@ 100467d4     FingerStrokeAssistance_capi.obj
 0002:000037f0       ??_C@_0BH@JBCOEDA@Robot?1MATLAB?5Function3?$AA@ 100467f0     FingerStrokeAssistance_capi.obj
 0002:0000380c       ??_C@_0BH@EGFDHCPH@Robot?1MATLAB?5Function4?$AA@ 1004680c     FingerStrokeAssistance_capi.obj
 0002:00003828       ??_C@_0BH@FPEIEDLG@Robot?1MATLAB?5Function5?$AA@ 10046828     FingerStrokeAssistance_capi.obj
 0002:00003844       ??_C@_0L@NEPEIPFM@Robot?1Gain?$AA@ 10046844     FingerStrokeAssistance_capi.obj
 0002:00003854       ??_C@_0M@KEFEOOOC@Robot?1Gain1?$AA@ 10046854     FingerStrokeAssistance_capi.obj
 0002:00003864       ??_C@_0BE@OMELOOBD@Robot?1PCI?56221?5ENC?5?$AA@ 10046864     FingerStrokeAssistance_capi.obj
 0002:0000387c       ??_C@_0BF@ECAPANIC@Robot?1PCI?56221?5ENC?51?$AA@ 1004687c     FingerStrokeAssistance_capi.obj
 0002:00003898       ??_C@_0BG@HNHIMJLG@Robot?1PCI?96221?5AD1?1p1?$AA@ 10046898     FingerStrokeAssistance_capi.obj
 0002:000038b4       ??_C@_0BG@FGFFJKHF@Robot?1PCI?96221?5AD1?1p2?$AA@ 100468b4     FingerStrokeAssistance_capi.obj
 0002:000038d0       ??_C@_0BG@EPEOKLDE@Robot?1PCI?96221?5AD1?1p3?$AA@ 100468d0     FingerStrokeAssistance_capi.obj
 0002:000038ec       ??_C@_0BG@PDNPD@Robot?1PCI?96221?5AD1?1p4?$AA@ 100468ec     FingerStrokeAssistance_capi.obj
 0002:00003908       ??_C@_0BG@BJBEAMLC@Robot?1PCI?96221?5AD1?1p5?$AA@ 10046908     FingerStrokeAssistance_capi.obj
 0002:00003924       ??_C@_0BG@DCDJFPHB@Robot?1PCI?96221?5AD1?1p6?$AA@ 10046924     FingerStrokeAssistance_capi.obj
 0002:00003940       ??_C@_0BG@CLCCGODA@Robot?1PCI?96221?5AD1?1p7?$AA@ 10046940     FingerStrokeAssistance_capi.obj
 0002:0000395c       ??_C@_0BG@KMLKHCPP@Robot?1PCI?96221?5AD1?1p8?$AA@ 1004695c     FingerStrokeAssistance_capi.obj
 0002:00003978       ??_C@_0BG@LFKBEDLO@Robot?1PCI?96221?5AD1?1p9?$AA@ 10046978     FingerStrokeAssistance_capi.obj
 0002:00003994       ??_C@_0BH@PNDJFIID@Robot?1PCI?96221?5AD1?1p10?$AA@ 10046994     FingerStrokeAssistance_capi.obj
 0002:000039b0       ??_C@_0BH@OECCGJMC@Robot?1PCI?96221?5AD1?1p11?$AA@ 100469b0     FingerStrokeAssistance_capi.obj
 0002:000039cc       ??_C@_09EFINPMFM@Robot?1Sum?$AA@ 100469cc     FingerStrokeAssistance_capi.obj
 0002:000039d8       ??_C@_0BH@LHMPPFDF@Robot?1Discrete?5Filter1?$AA@ 100469d8     FingerStrokeAssistance_capi.obj
 0002:000039f4       ??_C@_0BB@ONCKFKHP@Robot?1Unit?5Delay?$AA@ 100469f4     FingerStrokeAssistance_capi.obj
 0002:00003a08       ??_C@_0BC@GAKEBEF@Robot?1Unit?5Delay1?$AA@ 10046a08     FingerStrokeAssistance_capi.obj
 0002:00003a20       ??_C@_0BP@HDIBGFHC@Subsystem?1Data?5Type?5Conversion?$AA@ 10046a20     FingerStrokeAssistance_capi.obj
 0002:00003a48       ??_C@_0CD@IGDCNCLO@Subsystem?1Discrete?9Time?5Integrat@ 10046a48     FingerStrokeAssistance_capi.obj
 0002:00003a74       ??_C@_0BG@DAMAHEPC@Subsystem?1Unit?5Delay1?$AA@ 10046a74     FingerStrokeAssistance_capi.obj
 0002:00003a90       ??_C@_0BG@BLONCHDB@Subsystem?1Unit?5Delay2?$AA@ 10046a90     FingerStrokeAssistance_capi.obj
 0002:00003aac       ??_C@_0CA@EBCNJBOK@Subsystem1?1Data?5Type?5Conversion?$AA@ 10046aac     FingerStrokeAssistance_capi.obj
 0002:00003ad4       ??_C@_0CE@IGGOGCJM@Subsystem1?1Discrete?9Time?5Integra@ 10046ad4     FingerStrokeAssistance_capi.obj
 0002:00003b00       ??_C@_0BH@OCBAAL@Subsystem1?1Unit?5Delay1?$AA@ 10046b00     FingerStrokeAssistance_capi.obj
 0002:00003b1c       ??_C@_0BH@CLMPEDMI@Subsystem1?1Unit?5Delay2?$AA@ 10046b1c     FingerStrokeAssistance_capi.obj
 0002:00003b38       ??_C@_0BJ@LDIJMIN@parameters?1parChangeRate?$AA@ 10046b38     FingerStrokeAssistance_capi.obj
 0002:00003b58       ??_C@_0BG@MANKCMPG@parameters?1parFThresh?$AA@ 10046b58     FingerStrokeAssistance_capi.obj
 0002:00003b74       ??_C@_0BH@GKLAKHLL@parameters?1parFixedDur?$AA@ 10046b74     FingerStrokeAssistance_capi.obj
 0002:00003b90       ??_C@_0BL@EGOKLGEF@parameters?1parForceTrigger?$AA@ 10046b90     FingerStrokeAssistance_capi.obj
 0002:00003bb0       ??_C@_0BC@FKHIPIEO@parameters?1parKd1?$AA@ 10046bb0     FingerStrokeAssistance_capi.obj
 0002:00003bc8       ??_C@_0BC@HBFFKLIN@parameters?1parKd2?$AA@ 10046bc8     FingerStrokeAssistance_capi.obj
 0002:00003be0       ??_C@_0BD@BKPLMOHI@parameters?1parKdV1?$AA@ 10046be0     FingerStrokeAssistance_capi.obj
 0002:00003bf8       ??_C@_0BD@DBNGJNLL@parameters?1parKdV2?$AA@ 10046bf8     FingerStrokeAssistance_capi.obj
 0002:00003c10       ??_C@_0BC@EBFHPDOC@parameters?1parKp1?$AA@ 10046c10     FingerStrokeAssistance_capi.obj
 0002:00003c28       ??_C@_0BC@GKHKKACB@parameters?1parKp2?$AA@ 10046c28     FingerStrokeAssistance_capi.obj
 0002:00003c40       ??_C@_0BH@PENPCGFM@parameters?1parLeftMode?$AA@ 10046c40     FingerStrokeAssistance_capi.obj
 0002:00003c5c       ??_C@_0BF@GLMDNGIG@parameters?1parMarker?$AA@ 10046c5c     FingerStrokeAssistance_capi.obj
 0002:00003c78       ??_C@_0BJ@BNLOJEEL@parameters?1parMaxTrajDur?$AA@ 10046c78     FingerStrokeAssistance_capi.obj
 0002:00003c98       ??_C@_0BE@GHPCIJPH@parameters?1parPStop?$AA@ 10046c98     FingerStrokeAssistance_capi.obj
 0002:00003cb0       ??_C@_0BH@GJMCKDGC@parameters?1parTrajMode?$AA@ 10046cb0     FingerStrokeAssistance_capi.obj
 0002:00003ccc       ??_C@_0BG@LMGBBNNN@parameters?1parVThresh?$AA@ 10046ccc     FingerStrokeAssistance_capi.obj
 0002:00003ce8       ??_C@_0BI@PBEPHEEP@parameters?1parWiggleAmp?$AA@ 10046ce8     FingerStrokeAssistance_capi.obj
 0002:00003d04       ??_C@_0BN@BNDFGDOE@parameters?1Rounding?5Function?$AA@ 10046d04     FingerStrokeAssistance_capi.obj
 0002:00003d28       ??_C@_0BG@KKGOACNA@parameters?1Saturation?$AA@ 10046d28     FingerStrokeAssistance_capi.obj
 0002:00003d44       ??_C@_0BH@EACELLGE@parameters?1Saturation1?$AA@ 10046d44     FingerStrokeAssistance_capi.obj
 0002:00003d60       ??_C@_0BH@GLAJOIKH@parameters?1Saturation2?$AA@ 10046d60     FingerStrokeAssistance_capi.obj
 0002:00003d7c       ??_C@_0N@MGJILHCJ@signals?1Gain?$AA@ 10046d7c     FingerStrokeAssistance_capi.obj
 0002:00003d8c       ??_C@_0DG@IOBGNGCJ@HL?5Controller?1Detect?5Change?1FixP@ 10046d8c     FingerStrokeAssistance_capi.obj
 0002:00003dcc       ??_C@_0CJ@CLPCMDPG@HL?5Controller?1Detect?5Change?1Dela@ 10046dcc     FingerStrokeAssistance_capi.obj
 0002:00003e00       ??_C@_06CFNEEADJ@U?$CIk?91?$CJ?$AA@ 10046e00     FingerStrokeAssistance_capi.obj
 0002:00003e08       ??_C@_0DG@KEKODAM@LL?5Position?5Controller?1Discrete?5@ 10046e08     FingerStrokeAssistance_capi.obj
 0002:00003e48       ??_C@_0DK@FEAOEOMF@LL?5Position?5Controller?1Discrete?5@ 10046e48     FingerStrokeAssistance_capi.obj
 0002:00003e90       ??_C@_0DP@BEAACIAJ@LL?5Position?5Controller?1Discrete?5@ 10046e90     FingerStrokeAssistance_capi.obj
 0002:00003ee0       ??_C@_0EC@JPHJHLOK@LL?5Position?5Controller?1Discrete?5@ 10046ee0     FingerStrokeAssistance_capi.obj
 0002:00003f30       ??_C@_0DN@OCDKGAHF@LL?5Position?5Controller?1Discrete?5@ 10046f30     FingerStrokeAssistance_capi.obj
 0002:00003f80       ??_C@_0EB@MFGGOBNC@LL?5Position?5Controller?1Discrete?5@ 10046f80     FingerStrokeAssistance_capi.obj
 0002:00003fd0       ??_C@_0DD@GAMJPEHE@LL?5Position?5Controller?1Discrete?5@ 10046fd0     FingerStrokeAssistance_capi.obj
 0002:00004010       ??_C@_0DE@MDBNPGNA@LL?5Position?5Controller?1Discrete?5@ 10047010     FingerStrokeAssistance_capi.obj
 0002:00004050       ??_C@_0DH@KBAOACOF@LL?5Position?5Controller?1Saturatio@ 10047050     FingerStrokeAssistance_capi.obj
 0002:00004094       ??_C@_0DG@OJDANGHJ@LL?5Position?5Controller?1Saturatio@ 10047094     FingerStrokeAssistance_capi.obj
 0002:000040d4       ??_C@_0DC@BEODJEFG@LL?5Position?5Controller?1Saturatio@ 100470d4     FingerStrokeAssistance_capi.obj
 0002:00004110       ??_C@_0DD@GPGMEDCE@LL?5Position?5Controller?1Saturatio@ 10047110     FingerStrokeAssistance_capi.obj
 0002:00004150       ??_C@_0DH@NNGPCHDO@LL?5Position?5Controller?1Saturatio@ 10047150     FingerStrokeAssistance_capi.obj
 0002:00004194       ??_C@_0DG@FEPKLKLH@LL?5Position?5Controller?1Saturatio@ 10047194     FingerStrokeAssistance_capi.obj
 0002:000041d4       ??_C@_0DC@CNGOKIJD@LL?5Position?5Controller?1Saturatio@ 100471d4     FingerStrokeAssistance_capi.obj
 0002:00004210       ??_C@_0DD@IEFLPICH@LL?5Position?5Controller?1Saturatio@ 10047210     FingerStrokeAssistance_capi.obj
 0002:00004250       ??_C@_0BP@DAEPAEBF@Robot?1Discrete?5Derivative?1Diff?$AA@ 10047250     FingerStrokeAssistance_capi.obj
 0002:00004278       ??_C@_0CA@DLBHKHPN@Robot?1Discrete?5Derivative?1TSamp?$AA@ 10047278     FingerStrokeAssistance_capi.obj
 0002:000042a0       ??_C@_0BN@GNNONLLN@Robot?1Discrete?5Derivative?1UD?$AA@ 100472a0     FingerStrokeAssistance_capi.obj
 0002:000042c4       ??_C@_0CF@JOKCEMIH@Robot?1Saturation?5Dynamic?1LowerRe@ 100472c4     FingerStrokeAssistance_capi.obj
 0002:000042f0       ??_C@_0CE@PAHIGJNP@Robot?1Saturation?5Dynamic?1UpperRe@ 100472f0     FingerStrokeAssistance_capi.obj
 0002:0000431c       ??_C@_0CA@NDOLBHN@Robot?1Saturation?5Dynamic?1Switch?$AA@ 1004731c     FingerStrokeAssistance_capi.obj
 0002:00004344       ??_C@_0CB@MDMJGHEB@Robot?1Saturation?5Dynamic?1Switch2@ 10047344     FingerStrokeAssistance_capi.obj
 0002:0000436c       ??_C@_0BO@KMPBMPBM@Robot?1Triggered?5Subsystem?1In1?$AA@ 1004736c     FingerStrokeAssistance_capi.obj
 0002:00004390       ??_C@_0BP@KHFLLFDO@Robot?1Triggered?5Subsystem1?1In1?$AA@ 10047390     FingerStrokeAssistance_capi.obj
 0002:000043b8       ??_C@_0DA@IHGHECDK@Robot?1account?5for?5handedness?1MAT@ 100473b8     FingerStrokeAssistance_capi.obj
 0002:000043f4       ??_C@_0DA@KMEKBBPJ@Robot?1account?5for?5handedness?1MAT@ 100473f4     FingerStrokeAssistance_capi.obj
 0002:00004430       ??_C@_0DB@ENPBKHPM@Robot?1account?5for?5handedness1?1MA@ 10047430     FingerStrokeAssistance_capi.obj
 0002:0000446c       ??_C@_0CM@LEIBMJGE@Robot?1filtered?5force?5output?1Low?5@ 1004746c     FingerStrokeAssistance_capi.obj
 0002:000044a0       ??_C@_0CN@IMDGCDDK@Robot?1filtered?5force?5output?1Low?5@ 100474a0     FingerStrokeAssistance_capi.obj
 0002:000044d8       ??_C@_0CD@NAELEMPL@Robot?1filtered?5force?5output?1Memo@ 100474d8     FingerStrokeAssistance_capi.obj
 0002:00004504       ??_C@_0CE@OMOCGHGK@Robot?1filtered?5force?5output?1Memo@ 10047504     FingerStrokeAssistance_capi.obj
 0002:00004530       ??_C@_0DC@HIOFCDHB@Subsystem?1Detect?5Change?1FixPt?5Re@ 10047530     FingerStrokeAssistance_capi.obj
 0002:0000456c       ??_C@_0CF@IOCCGEMF@Subsystem?1Detect?5Change?1Delay?5In@ 1004756c     FingerStrokeAssistance_capi.obj
 0002:00004598       ??_C@_0DD@ODDDIJKC@Subsystem1?1Detect?5Change?1FixPt?5R@ 10047598     FingerStrokeAssistance_capi.obj
 0002:000045d8       ??_C@_0CG@OCPBJBDF@Subsystem1?1Detect?5Change?1Delay?5I@ 100475d8     FingerStrokeAssistance_capi.obj
 0002:00004608       ??_C@_0CH@KJDMLLPO@parameters?1gain?5transition?1gainr@ 10047608     FingerStrokeAssistance_capi.obj
 0002:00004638       ??_C@_0CH@ICBBOIDN@parameters?1gain?5transition?1gainr@ 10047638     FingerStrokeAssistance_capi.obj
 0002:00004668       ??_C@_0CC@BDCPHDEE@parameters?1gain?5transition?1Memor@ 10047668     FingerStrokeAssistance_capi.obj
 0002:00004690       ??_C@_0CI@PJCJMMGB@parameters?1gain?5transition1?1gain@ 10047690     FingerStrokeAssistance_capi.obj
 0002:000046c0       ??_C@_0CI@NCAEJPKC@parameters?1gain?5transition1?1gain@ 100476c0     FingerStrokeAssistance_capi.obj
 0002:000046f0       ??_C@_0CD@LNHEJADF@parameters?1gain?5transition1?1Memo@ 100476f0     FingerStrokeAssistance_capi.obj
 0002:0000471c       ??_C@_0CI@IFEIOJLK@parameters?1gain?5transition2?1gain@ 1004771c     FingerStrokeAssistance_capi.obj
 0002:0000474c       ??_C@_0CI@KOGFLKHJ@parameters?1gain?5transition2?1gain@ 1004774c     FingerStrokeAssistance_capi.obj
 0002:0000477c       ??_C@_0CD@IEPJKMPA@parameters?1gain?5transition2?1Memo@ 1004777c     FingerStrokeAssistance_capi.obj
 0002:000047a8       ??_C@_0CI@BIEHAIMM@parameters?1gain?5transition3?1gain@ 100477a8     FingerStrokeAssistance_capi.obj
 0002:000047d8       ??_C@_0CI@DDGKFLAP@parameters?1gain?5transition3?1gain@ 100477d8     FingerStrokeAssistance_capi.obj
 0002:00004808       ??_C@_0CD@JDICLILD@parameters?1gain?5transition3?1Memo@ 10047808     FingerStrokeAssistance_capi.obj
 0002:00004834       ??_C@_0CI@HNIKKCAM@parameters?1gain?5transition4?1gain@ 10047834     FingerStrokeAssistance_capi.obj
 0002:00004864       ??_C@_0CI@FGKHPBMP@parameters?1gain?5transition4?1gain@ 10047864     FingerStrokeAssistance_capi.obj
 0002:00004894       ??_C@_0CD@PHODNFHK@parameters?1gain?5transition4?1Memo@ 10047894     FingerStrokeAssistance_capi.obj
 0002:000048c0       ??_C@_0CI@OAIFEDHK@parameters?1gain?5transition5?1gain@ 100478c0     FingerStrokeAssistance_capi.obj
 0002:000048f0       ??_C@_0CI@MLKIBALJ@parameters?1gain?5transition5?1gain@ 100478f0     FingerStrokeAssistance_capi.obj
 0002:00004920       ??_C@_0CD@OAJIMBDJ@parameters?1gain?5transition5?1Memo@ 10047920     FingerStrokeAssistance_capi.obj
 0002:0000494c       ??_C@_08CHMPKCOC@Constant?$AA@ 1004794c     FingerStrokeAssistance_capi.obj
 0002:00004958       ??_C@_05LPIJGKJ@Value?$AA@ 10047958     FingerStrokeAssistance_capi.obj
 0002:00004960       ??_C@_09IIHOELEE@Constant1?$AA@ 10047960     FingerStrokeAssistance_capi.obj
 0002:0000496c       ??_C@_0L@KOHPMNDB@Constant10?$AA@ 1004796c     FingerStrokeAssistance_capi.obj
 0002:0000497c       ??_C@_09KDFDBIIH@Constant2?$AA@ 1004797c     FingerStrokeAssistance_capi.obj
 0002:00004988       ??_C@_09LKEICJMG@Constant3?$AA@ 10047988     FingerStrokeAssistance_capi.obj
 0002:00004994       ??_C@_09PFAJLPAB@Constant4?$AA@ 10047994     FingerStrokeAssistance_capi.obj
 0002:000049a0       ??_C@_09OMBCIOEA@Constant5?$AA@ 100479a0     FingerStrokeAssistance_capi.obj
 0002:000049ac       ??_C@_09MHDPNNID@Constant6?$AA@ 100479ac     FingerStrokeAssistance_capi.obj
 0002:000049b8       ??_C@_09NOCEOMMC@Constant7?$AA@ 100479b8     FingerStrokeAssistance_capi.obj
 0002:000049c4       ??_C@_09FJLMPAAN@Constant8?$AA@ 100479c4     FingerStrokeAssistance_capi.obj
 0002:000049d0       ??_C@_09EAKHMBEM@Constant9?$AA@ 100479d0     FingerStrokeAssistance_capi.obj
 0002:000049dc       ??_C@_0P@HMEAEHIM@CurrentSetting?$AA@ 100479dc     FingerStrokeAssistance_capi.obj
 0002:000049f0       ??_C@_0BB@CFEOEMDC@InitialCondition?$AA@ 100479f0     FingerStrokeAssistance_capi.obj
 0002:00004a04       ??_C@_0BM@NNJFPEF@HL?5Controller?1Detect?5Change?$AA@ 10047a04     FingerStrokeAssistance_capi.obj
 0002:00004a28       ??_C@_05NAMIGJNB@vinit?$AA@ 10047a28     FingerStrokeAssistance_capi.obj
 0002:00004a30       ??_C@_07KKMCCDCH@gainval?$AA@ 10047a30     FingerStrokeAssistance_capi.obj
 0002:00004a3c       ??_C@_0BF@GLIOIDJM@UpperSaturationLimit?$AA@ 10047a3c     FingerStrokeAssistance_capi.obj
 0002:00004a58       ??_C@_0BF@EMCFELNH@LowerSaturationLimit?$AA@ 10047a58     FingerStrokeAssistance_capi.obj
 0002:00004a74       ??_C@_04OMOMKKFL@Gain?$AA@ 10047a74     FingerStrokeAssistance_capi.obj
 0002:00004a7c       ??_C@_0M@KNNCJG@DelayLength?$AA@ 10047a7c     FingerStrokeAssistance_capi.obj
 0002:00004a8c       ??_C@_09OMDFKCLN@Numerator?$AA@ 10047a8c     FingerStrokeAssistance_capi.obj
 0002:00004a98       ??_C@_0M@KDILNJPK@Denominator?$AA@ 10047a98     FingerStrokeAssistance_capi.obj
 0002:00004aa8       ??_C@_0O@KHJPNGBD@InitialStates?$AA@ 10047aa8     FingerStrokeAssistance_capi.obj
 0002:00004ab8       ??_C@_0CP@MNGHIGCN@LL?5Position?5Controller?1Discrete?5@ 10047ab8     FingerStrokeAssistance_capi.obj
 0002:00004af0       ??_C@_01EJNLAFE@P?$AA@     10047af0     FingerStrokeAssistance_capi.obj
 0002:00004af4       ??_C@_01JPJNBJEM@I?$AA@    10047af4     FingerStrokeAssistance_capi.obj
 0002:00004af8       ??_C@_01CKDDGHAB@D?$AA@    10047af8     FingerStrokeAssistance_capi.obj
 0002:00004afc       ??_C@_01NANMIPIL@N?$AA@    10047afc     FingerStrokeAssistance_capi.obj
 0002:00004b00       ??_C@_0CA@PGDGGMCL@LL?5Position?5Controller?1Constant?$AA@ 10047b00     FingerStrokeAssistance_capi.obj
 0002:00004b28       ??_C@_0BB@BPKEPNND@ON?1?1OFF?1Constant?$AA@ 10047b28     FingerStrokeAssistance_capi.obj
 0002:00004b3c       ??_C@_0CL@DEPGBLOP@One?5Finger?5Mode?1?1?5Two?5Finger?5Mod@ 10047b3c     FingerStrokeAssistance_capi.obj
 0002:00004b70       ??_C@_0CL@IJMAEGGM@Position?5Control?5?1?1?5Force?5Contro@ 10047b70     FingerStrokeAssistance_capi.obj
 0002:00004ba4       ??_C@_0BK@MMODBLJF@Robot?1Discrete?5Derivative?$AA@ 10047ba4     FingerStrokeAssistance_capi.obj
 0002:00004bc4       ??_C@_0BC@DNAKAAEE@ICPrevScaledInput?$AA@ 10047bc4     FingerStrokeAssistance_capi.obj
 0002:00004bdc       ??_C@_02KKFPAPOP@P1?$AA@   10047bdc     FingerStrokeAssistance_capi.obj
 0002:00004be0       ??_C@_02IBHCFMCM@P2?$AA@   10047be0     FingerStrokeAssistance_capi.obj
 0002:00004be4       ??_C@_02JIGJGNGN@P3?$AA@   10047be4     FingerStrokeAssistance_capi.obj
 0002:00004be8       ??_C@_02NHCIPLKK@P4?$AA@   10047be8     FingerStrokeAssistance_capi.obj
 0002:00004bec       ??_C@_02MODDMKOL@P5?$AA@   10047bec     FingerStrokeAssistance_capi.obj
 0002:00004bf0       ??_C@_02OFBOJJCI@P6?$AA@   10047bf0     FingerStrokeAssistance_capi.obj
 0002:00004bf4       ??_C@_02PMAFKIGJ@P7?$AA@   10047bf4     FingerStrokeAssistance_capi.obj
 0002:00004bf8       ??_C@_02HLJNLEKG@P8?$AA@   10047bf8     FingerStrokeAssistance_capi.obj
 0002:00004bfc       ??_C@_02GCIGIFOH@P9?$AA@   10047bfc     FingerStrokeAssistance_capi.obj
 0002:00004c00       ??_C@_03OPFJJGBF@P10?$AA@  10047c00     FingerStrokeAssistance_capi.obj
 0002:00004c04       ??_C@_0BD@HJHAJHEM@Robot?1PCI?96221?5AD1?$AA@ 10047c04     FingerStrokeAssistance_capi.obj
 0002:00004c1c       ??_C@_0BC@IGENNOJN@Robot?1PCI?96221?5DA?$AA@ 10047c1c     FingerStrokeAssistance_capi.obj
 0002:00004c34       ??_C@_0BI@CCIOLKMP@Subsystem?1Detect?5Change?$AA@ 10047c34     FingerStrokeAssistance_capi.obj
 0002:00004c50       ??_C@_0BJ@KNCPHFFI@Subsystem1?1Detect?5Change?$AA@ 10047c50     FingerStrokeAssistance_capi.obj
 0002:00004c70       ??_C@_0CD@NBHNHEJB@parameters?1paremeters_?5must_be_o@ 10047c70     FingerStrokeAssistance_capi.obj
 0002:00004c9c       ??_C@_0L@FBCGKKEN@UpperLimit?$AA@ 10047c9c     FingerStrokeAssistance_capi.obj
 0002:00004cac       ??_C@_0L@DGFJOHKP@LowerLimit?$AA@ 10047cac     FingerStrokeAssistance_capi.obj
 0002:00004cbc       ??_C@_04GKLBNPCL@WtEt?$AA@ 10047cbc     FingerStrokeAssistance_capi.obj
 0002:00004cc4       ??_C@_0BP@KMPJMACH@Robot?1Triggered?5Subsystem?1Out1?$AA@ 10047cc4     FingerStrokeAssistance_capi.obj
 0002:00004cec       ??_C@_0O@LILIEJBO@InitialOutput?$AA@ 10047cec     FingerStrokeAssistance_capi.obj
 0002:00004cfc       ??_C@_0CA@HJJCCLLJ@Robot?1Triggered?5Subsystem1?1Out1?$AA@ 10047cfc     FingerStrokeAssistance_capi.obj
 0002:00004d24       ??_C@_02LNFHGPBG@X0?$AA@   10047d24     FingerStrokeAssistance_capi.obj
 0002:00004d28       ??_C@_04OELFCIM@Alow?$AA@  10047d28     FingerStrokeAssistance_capi.obj
 0002:00004d30       ??_C@_04EJOLCIFM@Blow?$AA@ 10047d30     FingerStrokeAssistance_capi.obj
 0002:00004d38       ??_C@_04HEILABOM@Clow?$AA@ 10047d38     FingerStrokeAssistance_capi.obj
 0002:00004d40       ??_C@_04MGKLNNPM@Dlow?$AA@ 10047d40     FingerStrokeAssistance_capi.obj
 0002:00004d48       ??_C@_05FKGIECOB@x0low?$AA@ 10047d48     FingerStrokeAssistance_capi.obj
 0002:00004d50       ??_C@_06BNJCAIGJ@double?$AA@ 10047d50     FingerStrokeAssistance_capi.obj
 0002:00004d58       ??_C@_06CNMIJIPB@real_T?$AA@ 10047d58     FingerStrokeAssistance_capi.obj
 0002:00004d60       ??_C@_0O@PPAIJIHF@unsigned?5char?$AA@ 10047d60     FingerStrokeAssistance_capi.obj
 0002:00004d70       ??_C@_09JBMFCIMO@boolean_T?$AA@ 10047d70     FingerStrokeAssistance_capi.obj
 0002:00004d7c       ??_C@_07NCEHLPOC@uint8_T?$AA@ 10047d7c     FingerStrokeAssistance_capi.obj
 0002:00004d88       ??_C@_0N@OFHMGPAL@unsigned?5int?$AA@ 10047d88     FingerStrokeAssistance_capi.obj
 0002:00004d98       ??_C@_08CCMIKNJF@uint32_T?$AA@ 10047d98     FingerStrokeAssistance_capi.obj
 0002:00004da4       ??_C@_05KNFBNCOH@float?$AA@ 10047da4     FingerStrokeAssistance_capi.obj
 0002:00004dac       ??_C@_0CJ@GGPBKPNK@Could?5not?5start?5ToAsyncQueue?5app@ 10047dac     FingerStrokeAssistance_tgtconn.obj
 0002:00005640       ??_C@_0DJ@FHKINPLE@Unexpected?5itemKind?5?$DN?5DATA_ITEM?5@ 10048640     rt_logging.obj
 0002:00005684       ??_C@_0DA@IEHFPFCJ@Unexpected?5itemKind?$DN?$CFd?5in?5rt_Pro@ 10048684     rt_logging.obj
 0002:000056c0       ??_C@_0DA@IFLHJPBO@Unexpected?5itemKind?$DN?$CFd?5in?5rt_Pro@ 100486c0     rt_logging.obj
 0002:000056fc       ??_C@_0DA@IAPIIJJL@Unexpected?5itemKind?$DN?$CFd?5in?5rt_Pro@ 100486fc     rt_logging.obj
 0002:00005738       ??_C@_0BE@LCIGPJIG@MATLAB?55?40?5MAT?9file?$AA@ 10048738     rt_logging.obj
 0002:00005750       ??_C@_0FB@PCJEAJIB@?$CK?$CK?$CK?5Log?5variable?5?$CFs?5has?5wrapped?5@ 10048750     rt_logging.obj
 0002:000057b8       ??_C@_0MG@NKMLMOGF@?$CK?$CK?$CK?5To?5avoid?5wrapping?0?5explicitl@ 100487b8     rt_logging.obj
 0002:000058a8       ??_C@_0N@IPAEOLLP@_rtw_tmw?4tmw?$AA@ 100488a8     rt_logging.obj
 0002:000058b8       ??_C@_04HDOCAJNK@?$CFs?$CFs?$AA@ 100488b8     rt_logging.obj
 0002:000058c0       ??_C@_03ELIABIOC@w?$CLb?$AA@ 100488c0     rt_logging.obj
 0002:000058c4       ??_C@_0BF@JPILDDFA@?$CK?$CK?$CK?5Error?5opening?5?$CFs?$AA@ 100488c4     rt_logging.obj
 0002:000058e0       ??_C@_0BK@EEMDELA@unable?5to?5open?5data?5file?6?$AA@ 100488e0     rt_logging.obj
 0002:00005900       ??_C@_04CGFJFPFD@none?$AA@ 10048900     rt_logging.obj
 0002:00005908       ??_C@_0EE@LCGFPNON@?$CK?$CK?$CK?5Error?5creating?5signals?5struc@ 10048908     rt_logging.obj
 0002:0000595c       ??_C@_0CE@NHECEDMK@?$CK?$CK?$CK?5Error?5creating?5log?5variable?5@ 1004895c     rt_logging.obj
 0002:00005988       ??_C@_0DB@IOCGKAGH@?$CK?$CK?$CK?5Errors?5occurred?5when?5startin@ 10048988     rt_logging.obj
 0002:000059c4       ??_C@_0BO@BBLOGEBK@?$CK?$CK?$CK?5Memory?5allocation?5error?4?6?$AA@ 100489c4     rt_logging.obj
 0002:000059e8       ??_C@_0N@LGFBAGEL@?5?$CIreal?5part?$CJ?$AA@ 100489e8     rt_logging.obj
 0002:000059f8       ??_C@_0KH@CGNMHNFE@?5?5?5?5varName?5?5?5?5?5?5?5?5?5?5?$DN?5?$CFs?$CFs?6?5?5?5?5@ 100489f8     rt_logging.obj
 0002:00005ac0       ??_C@_0LE@OALKKEFM@?5?5?5?5varName?5?5?5?5?5?5?5?5?5?5?$DN?5?$CFs?5?$CIcompl@ 10048ac0     rt_logging.obj
 0002:00005b98       ??_C@_0KF@JDDLEOKO@?5?5?5?5varName?5?5?5?5?5?5?5?5?5?5?$DN?5?$CFs?6?5?5?5?5nR@ 10048b98     rt_logging.obj
 0002:00005c60       ??_C@_0DP@HPDMIOFM@?$CK?$CK?$CK?5Using?5a?5default?5buffer?5of?5si@ 10048c60     rt_logging.obj
 0002:00005cb0       ??_C@_0KE@JEFOLKNF@?6?$CK?$CK?$CK?5Memory?5required?5to?5log?5vari@ 10048cb0     rt_logging.obj
 0002:00005d78       ??_C@_0JP@DKLMHCBI@?$CK?$CK?$CK?5Details?3?6?5?5?5?5?5?5?5varName?5?5?5?5?5@ 10048d78     rt_logging.obj
 0002:00005e38       ??_C@_0CM@CAMILBED@?$CK?$CK?$CK?5Error?5allocating?5memory?5for?5@ 10048e38     rt_logging.obj
 0002:00005e6c       ??_C@_0DF@BBCNMOPM@?$CK?$CK?$CK?5Error?5allocating?5memory?5for?5@ 10048e6c     rt_logging.obj
 0002:00005eb0       ??_C@_0JP@DBCLPCCI@?$CK?$CK?$CK?5Details?3?6?5?5?5?5?5?5?5varName?5?5?5?5?5@ 10048eb0     rt_logging.obj
 0002:00005f70       ??_C@_0FK@DPGAOBGA@?$CK?$CK?$CK?5Error?5allocating?5memory?5for?5@ 10048f70     rt_logging.obj
 0002:00005fdc       ??_C@_0BI@GGDNPHLJ@?$CK?$CK?$CK?5Error?5writing?5to?5?$CFs?$AA@ 10048fdc     rt_logging.obj
 0002:00005ff8       ??_C@_0CB@IBGJGELG@?$CK?$CK?$CK?5Error?5writing?5?$CFs?5due?5to?3?5?$CFs?6@ 10048ff8     rt_logging.obj
 0002:00006020       ??_C@_0CN@FLMCHCPB@?$CK?$CK?$CK?5Error?5writing?5log?5variable?5?$CF@ 10049020     rt_logging.obj
 0002:00006058       ??_C@_0DH@GAJCNOJP@?$CK?$CK?$CK?5Error?5writing?5structure?5log?5@ 10049058     rt_logging.obj
 0002:0000609c       ??_C@_0BD@POEALECL@?$CK?$CK?5created?5?$CFs?5?$CK?$CK?6?6?$AA@ 1004909c     rt_logging.obj
 0002:000060b8       __real@4020000000000000    100490b8     rt_logging.obj
 0002:000060c8       __real@41dfffffffc00000    100490c8     rt_logging.obj
 0002:000060d8       __real@41efffffffe00000    100490d8     rt_logging.obj
 0002:000060e8       __real@bfbf9add3afd2773    100490e8     rt_logging.obj
 0002:000060f8       __real@c000000000000000    100490f8     rt_logging.obj
 0002:00006110       __xmm@20202020202020202020202020202020 10049110     rt_logging.obj
 0002:00006140       __real@3cb0000000000000    10049140     rt_matrx.obj
 0002:00006160       ??_C@_0BI@INNPNFJN@Memory?5Allocation?5Error?$AA@ 10049160     rtw_modelmap_utils.obj
 0002:00006180       ??_C@_1HC@OAPLBLFC@?$AAC?$AA?3?$AA?2?$AAP?$AAR?$AAO?$AAG?$AAR?$AAA?$AA?$HO?$AA1?$AA?2?$AAM?$AAA?$AAT?$AAL?$AAA?$AAB?$AA?2?$AAR?$AA2?$AA0?$AA1?$AA6?$AAa?$AA?2?$AAr?$AAt?$AAw?$AA?2?$AAc?$AA?2@ 10049180     rtw_modelmap_utils.obj
 0002:00006208       ??_C@_1CI@OEAJCJND@?$AAj?$AA?5?$AA?$DN?$AA?$DN?$AA?5?$AAe?$AAn?$AAc?$AAo?$AAd?$AAe?$AAd?$AAP?$AAa?$AAt?$AAh?$AAL?$AAe?$AAn?$AA?$AA@ 10049208     rtw_modelmap_utils.obj
 0002:00006238       ??_C@_1DC@NFAOIFKB@?$AAe?$AAn?$AAc?$AAo?$AAd?$AAe?$AAd?$AAP?$AAa?$AAt?$AAh?$AA?$FL?$AAj?$AA?9?$AA1?$AA?$FN?$AA?5?$AA?$DN?$AA?$DN?$AA?5?$AA?8?$AA?2?$AA0?$AA?8?$AA?$AA@ 10049238     rtw_modelmap_utils.obj
 0002:00006274       ??_C@_1DI@FLNJGPEE@?$AAs?$AAi?$AAg?$AAC?$AAo?$AAm?$AAp?$AAl?$AAe?$AAx?$AAi?$AAt?$AAy?$AA?$FL?$AA?$CK?$AAs?$AAi?$AAg?$AAI?$AAd?$AAx?$AA?$FN?$AA?5?$AA?$CB?$AA?$DN?$AA?5?$AA1?$AA?$AA@ 10049274     rtw_modelmap_utils.obj
 0002:000062b8       ??_C@_1KI@OFELMGBG@?$AA?$CI?$AA?$CI?$AA?$CI?$AAd?$AAa?$AAt?$AAa?$AAT?$AAy?$AAp?$AAe?$AAM?$AAa?$AAp?$AA?$CJ?$AA?$FL?$AA?$CI?$AA?$CI?$AA?$CI?$AAs?$AAt?$AAa?$AAt?$AAe?$AAs?$AA?$CJ?$AA?$FL?$AA?$CI?$AAi?$AA?$CJ?$AA?$FN?$AA?4@ 100492b8     rtw_modelmap_utils.obj
 0002:00006384       ??_C@_1DA@ILCMPHNE@?$AAf?$AAu?$AAl?$AAl?$AAP?$AAa?$AAt?$AAh?$AA?5?$AA?$CB?$AA?$DN?$AA?5?$AA?$CI?$AA?$CI?$AAv?$AAo?$AAi?$AAd?$AA?5?$AA?$CK?$AA?$CJ?$AA0?$AA?$CJ?$AA?$AA@ 10049384     rtw_modelmap_utils.obj
 0002:000063c0       ??_C@_1CI@OEPPFCCA@?$AAp?$AAa?$AAt?$AAh?$AA?5?$AA?$CB?$AA?$DN?$AA?5?$AA?$CI?$AA?$CI?$AAv?$AAo?$AAi?$AAd?$AA?5?$AA?$CK?$AA?$CJ?$AA0?$AA?$CJ?$AA?$AA@ 100493c0     rtw_modelmap_utils.obj
 0002:000063f0       ??_C@_1FK@GLJIMFHB@?$AA?$CI?$AA?$CI?$AAm?$AAm?$AAi?$AA?$CJ?$AA?9?$AA?$DO?$AAI?$AAn?$AAs?$AAt?$AAa?$AAn?$AAc?$AAe?$AAM?$AAa?$AAp?$AA?4?$AAf?$AAu?$AAl?$AAl?$AAP?$AAa?$AAt?$AAh?$AA?$CJ?$AA?5?$AA?$DN?$AA?$DN@ 100493f0     rtw_modelmap_utils.obj
 0002:0000645c       ??_C@_1DG@HPCJGNCE@?$AAm?$AAm?$AAi?$AAP?$AAa?$AAt?$AAh?$AA?$FL?$AAp?$AAa?$AAt?$AAh?$AAL?$AAe?$AAn?$AA?9?$AA1?$AA?$FN?$AA?5?$AA?$DN?$AA?$DN?$AA?5?$AA?8?$AA?2?$AA0?$AA?8?$AA?$AA@ 1004945c     rtw_modelmap_utils.obj
 0002:0000649c       ??_C@_1DM@DBAOGGOO@?$AAm?$AAm?$AAi?$AAP?$AAa?$AAt?$AAh?$AA?$FL?$AAm?$AAm?$AAi?$AAP?$AAa?$AAt?$AAh?$AAL?$AAe?$AAn?$AA?9?$AA1?$AA?$FN?$AA?5?$AA?$DN?$AA?$DN?$AA?5?$AA?8?$AA?2?$AA0?$AA?8?$AA?$AA@ 1004949c     rtw_modelmap_utils.obj
 0002:000064e4       ??_C@_1DC@LHIAKAFE@?$AAb?$AAl?$AAo?$AAc?$AAk?$AAP?$AAa?$AAt?$AAh?$AA?5?$AA?$CB?$AA?$DN?$AA?5?$AA?$CI?$AA?$CI?$AAv?$AAo?$AAi?$AAd?$AA?5?$AA?$CK?$AA?$CJ?$AA0?$AA?$CJ?$AA?$AA@ 100494e4     rtw_modelmap_utils.obj
 0002:00006520       ??_C@_1GI@KIEJKPGC@?$AAf?$AAu?$AAl?$AAl?$AAS?$AAt?$AAa?$AAt?$AAe?$AAB?$AAl?$AAo?$AAc?$AAk?$AAP?$AAa?$AAt?$AAh?$AA?$FL?$AAf?$AAu?$AAl?$AAl?$AAS?$AAt?$AAa?$AAt?$AAe?$AAB?$AAl?$AAo?$AAc@ 10049520     rtw_modelmap_utils.obj
 0002:000065a0       ??_C@_1EE@DNPIBJHC@?$AA?$CI?$AA?$CI?$AAd?$AAi?$AAm?$AAM?$AAa?$AAp?$AA?$CJ?$AA?$FL?$AA?$CI?$AAm?$AAa?$AAp?$AAI?$AAd?$AAx?$AA?$CJ?$AA?$FN?$AA?4?$AAn?$AAu?$AAm?$AAD?$AAi?$AAm?$AAs?$AA?$CJ?$AA?5?$AA?$DN?$AA?$DN?$AA?5@ 100495a0     rtw_modelmap_utils.obj
 0002:000065f4       ??_C@_06JFOKFOED@CSTATE?$AA@ 100495f4     rtw_modelmap_utils.obj
 0002:000065fc       ??_C@_06FAENGAMN@DSTATE?$AA@ 100495fc     rtw_modelmap_utils.obj
 0002:00006604       ??_C@_1BI@LEBJNOGG@?$AAc?$AAs?$AAv?$AAI?$AAd?$AAx?$AA?5?$AA?$DO?$AA?$DN?$AA?5?$AA0?$AA?$AA@ 10049604     rtw_modelmap_utils.obj
 0002:00006620       ??_C@_1BA@KDMGHCHP@?$AAT?$AAI?$AAD?$AA?$DN?$AA?$DN?$AA?9?$AA1?$AA?$AA@ 10049620     rtw_modelmap_utils.obj
 0002:00006634       ??_C@_1DM@DHGKBPCE@?$AAs?$AAi?$AAg?$AAP?$AAa?$AAt?$AAh?$AA?$FL?$AAs?$AAi?$AAg?$AAP?$AAa?$AAt?$AAh?$AAL?$AAe?$AAn?$AA?9?$AA1?$AA?$FN?$AA?5?$AA?$DN?$AA?$DN?$AA?5?$AA?8?$AA?2?$AA0?$AA?8?$AA?$AA@ 10049634     rtw_modelmap_utils.obj
 0002:0000667c       _serialfifoground          1004967c     xpc_datatype_ground.obj
 0002:00006688       _bcmsg1553ground           10049688     xpc_datatype_ground.obj
 0002:00006698       _bcstatground              10049698     xpc_datatype_ground.obj
 0002:000066b0       _bmmsg1553ground           100496b0     xpc_datatype_ground.obj
 0002:000066d0       _ptsetfilename             100496d0     xpctarget.obj
 0002:000066d4       _xmlfile                   100496d4     xpctarget.obj
 0002:000066dc       ??_C@_0BH@DNMKOCPI@FingerStrokeAssistance?$AA@ 100496dc     xpctarget.obj
 0002:000066f8       ??_C@_0L@CHBJKKFC@xpceSetVar?$AA@ 100496f8     xpctarget.obj
 0002:00006708       ??_C@_03ICACBPID@6?44?$AA@ 10049708     xpctarget.obj
 0002:00006710       __real@408f400000000000    10049710     xpctarget.obj
 0002:00006720       _FingerStrokeAssistance_BIOMAP 10049720     appmappingData.obj
 0002:00006df8       _FingerStrokeAssistance_LBLMAP 10049df8     appmappingData.obj
 0002:000074d0       _FingerStrokeAssistance_SIDMAP 1004a4d0     appmappingData.obj
 0002:00007ba8       _FingerStrokeAssistance_SBIO 1004aba8     appmappingData.obj
 0002:00007df0       _FingerStrokeAssistance_SLBL 1004adf0     appmappingData.obj
 0002:00008038       _FingerStrokeAssistance_PTIDSMAP 1004b038     appmappingData.obj
 0002:00008488       _FingerStrokeAssistance_PTNAMESMAP 1004b488     appmappingData.obj
 0002:000088d8       _FingerStrokeAssistance_SPTMAP 1004b8d8     appmappingData.obj
 0002:00008b00       _FingerStrokeAssistance_dtmap 1004bb00     appmappingData.obj
 0002:00008b30       _appInfo                   1004bb30     appmappingData.obj
 0002:000092c8       ??_C@_0ED@LKHIFFLC@Wrong?5number?5of?5input?5arguments?5@ 1004c2c8     adnipcim.obj
 0002:00009318       ??_C@_0CI@FOFDKLAN@NI?5?$CFs?3?5Can?8t?5allocate?5temporary?5@ 1004c318     adnipcim.obj
 0002:00009348       ??_C@_0CK@PIIIKEIH@NI?5M?5series?3?5Channel?5?$CFf?5out?5of?5r@ 1004c348     adnipcim.obj
 0002:0000937c       ??_C@_0CF@LKNEFAOG@NI?5M?5series?3?5Timeout?5waiting?5for@ 1004c37c     adnipcim.obj
 0002:000093a8       __real@417312d000000000    1004c3a8     adnipcim.obj
 0002:000093b4       ??_C@_0CC@FIFFDAB@?$CFd?5input?5args?5expected?0?5?$CFd?5passe@ 1004c3b4     encnipcim.obj
 0002:000093dc       ??_C@_0BN@JIEFLHEB@?$CFs?3?5Too?5many?5M?5series?5boards?$AA@ 1004c3dc     encnipcim.obj
 0002:00009400       ??_C@_0DB@HFHLNKLE@Channel?5?$CFd?5exceeds?5the?5max?5DA?5ch@ 1004c400     danipcim.obj
 0002:0000943c       ??_C@_0CL@GCJHHCMG@Output?5range?5?$CFd?5is?5not?5supported@ 1004c43c     danipcim.obj
 0002:00009470       ??_C@_0M@IMCLKBPP@NI?5PCI?96220?$AA@ 1004c470     xpcionim.obj
 0002:00009480       ??_C@_0M@JFDAJALO@NI?5PCI?96221?$AA@ 1004c480     xpcionim.obj
 0002:00009490       ??_C@_0P@NGCDCNKM@NI?5PCI?96221?137?$AA@ 1004c490     xpcionim.obj
 0002:000094a4       ??_C@_0M@OIEHGEPL@NI?5PCI?96224?$AA@ 1004c4a4     xpcionim.obj
 0002:000094b4       ??_C@_0M@PBFMFFLK@NI?5PCI?96225?$AA@ 1004c4b4     xpcionim.obj
 0002:000094c4       ??_C@_0M@FNOJBKLG@NI?5PCI?96229?$AA@ 1004c4c4     xpcionim.obj
 0002:000094d4       ??_C@_0M@INOJMLMI@NI?5PCI?96230?$AA@ 1004c4d4     xpcionim.obj
 0002:000094e4       ??_C@_0M@LPNPKJEK@NI?5PCI?96232?$AA@ 1004c4e4     xpcionim.obj
 0002:000094f4       ??_C@_0M@KGMEJIAL@NI?5PCI?96233?$AA@ 1004c4f4     xpcionim.obj
 0002:00009504       ??_C@_0M@NLLDGMEO@NI?5PCI?96236?$AA@ 1004c504     xpcionim.obj
 0002:00009514       ??_C@_0M@EFDAEBMA@NI?5PCI?96238?$AA@ 1004c514     xpcionim.obj
 0002:00009524       ??_C@_0M@FMCLHAIB@NI?5PCI?96239?$AA@ 1004c524     xpcionim.obj
 0002:00009534       ??_C@_0M@IJGELHHK@NI?5PCI?96250?$AA@ 1004c534     xpcionim.obj
 0002:00009544       ??_C@_0M@JAHPIGDL@NI?5PCI?96251?$AA@ 1004c544     xpcionim.obj
 0002:00009554       ??_C@_0M@ONAIHCHO@NI?5PCI?96254?$AA@ 1004c554     xpcionim.obj
 0002:00009564       ??_C@_0M@PEBDEDDP@NI?5PCI?96255?$AA@ 1004c564     xpcionim.obj
 0002:00009574       ??_C@_0M@FIKGAMDD@NI?5PCI?96259?$AA@ 1004c574     xpcionim.obj
 0002:00009584       ??_C@_0M@IBLMCECJ@NI?5PCI?96280?$AA@ 1004c584     xpcionim.obj
 0002:00009594       ??_C@_0M@JIKHBFGI@NI?5PCI?96281?$AA@ 1004c594     xpcionim.obj
 0002:000095a4       ??_C@_0M@OFNAOBCN@NI?5PCI?96284?$AA@ 1004c5a4     xpcionim.obj
 0002:000095b4       ??_C@_0M@FAHOJPGA@NI?5PCI?96289?$AA@ 1004c5b4     xpcionim.obj
 0002:000095c4       ??_C@_0CI@NFFNBHJA@?$CFs?5?$CIbus?5?$CFd?0?5slot?5?$CFd?$CJ?3?5board?5not?5@ 1004c5c4     xpcionim.obj
 0002:000095f4       ??_C@_0CD@MBDNCLAI@NI?5M?5series?3?5Unknown?5board?5type?5@ 1004c5f4     xpcionim.obj
 0002:00009620       ??_C@_0CC@DMFKNLL@VendorId?5?$DN?50x?$CFx?0?5DeviceId?5?$DN?50x?$CFx@ 1004c620     xpcruntime:xpcimports.obj
 0002:00009644       ??_C@_0DH@OHCBLNMG@Subsystem?5Device?5ID?5?$DN?50x?$CFx?6Subsy@ 1004c644     xpcruntime:xpcimports.obj
 0002:0000967c       ??_C@_0BD@MMMMEFCM@Class?5Code?5?$DN?50x?$CFx?6?$AA@ 1004c67c     xpcruntime:xpcimports.obj
 0002:00009690       ??_C@_0BE@OLDDDNHM@InterruptLine?5?$DN?5?$CFd?6?$AA@ 1004c690     xpcruntime:xpcimports.obj
 0002:000096a4       ??_C@_0BF@OLKLEKBD@bus?5?$DN?5?$CFd?0?5slot?5?$DN?5?$CFd?6?$AA@ 1004c6a4     xpcruntime:xpcimports.obj
 0002:000096bc       ??_C@_0CE@DGLLGDFH@?5?5?5?5Phys?5?5?5Virtual?5?5?5Length?5IO?1M@ 1004c6bc     xpcruntime:xpcimports.obj
 0002:000096e0       ??_C@_0BI@FEOPLEMG@?$CF08x?5?$CF08x?5?$CF08x?5?5?5?5?5?5?$CFc?6?$AA@ 1004c6e0     xpcruntime:xpcimports.obj
 0002:000096f8       ??_C@_0BB@BNNCEDPC@rl32eScopeExists?$AA@ 1004c6f8     xpcruntime:xpcimports.obj
 0002:0000970c       ??_C@_0BM@FJBFEGFG@rl32eScopeExists?5not?5found?6?$AA@ 1004c70c     xpcruntime:xpcimports.obj
 0002:00009728       ??_C@_0O@BNNGKJEA@rl32eDefScope?$AA@ 1004c728     xpcruntime:xpcimports.obj
 0002:00009738       ??_C@_0BJ@CDNOENKA@rl32eDefScope?5not?5found?6?$AA@ 1004c738     xpcruntime:xpcimports.obj
 0002:00009754       ??_C@_0P@CKNKILDP@rl32eAddSignal?$AA@ 1004c754     xpcruntime:xpcimports.obj
 0002:00009764       ??_C@_0BK@GMJAJBAI@rl32eAddSignal?5not?5found?6?$AA@ 1004c764     xpcruntime:xpcimports.obj
 0002:00009780       ??_C@_0BB@LDMIHGCE@rl32eGetSignalNo?$AA@ 1004c780     xpcruntime:xpcimports.obj
 0002:00009794       ??_C@_0BM@LGAMBAID@rl32eGetSignalNo?5not?5found?6?$AA@ 1004c794     xpcruntime:xpcimports.obj
 0002:000097b0       ??_C@_0O@CFDGALBP@rl32eSetScope?$AA@ 1004c7b0     xpcruntime:xpcimports.obj
 0002:000097c0       ??_C@_0BJ@JCLHHIN@rl32eSetScope?5not?5found?6?$AA@ 1004c7c0     xpcruntime:xpcimports.obj
 0002:000097dc       ??_C@_0P@IKMCBMHH@xpceFSScopeSet?$AA@ 1004c7dc     xpcruntime:xpcimports.obj
 0002:000097ec       ??_C@_0BK@JODJPNNH@xpceFSScopeSet?5not?5found?6?$AA@ 1004c7ec     xpcruntime:xpcimports.obj
 0002:00009808       ??_C@_0BE@DLACEEJM@rl32eSetTargetScope?$AA@ 1004c808     xpcruntime:xpcimports.obj
 0002:0000981c       ??_C@_0BP@JCHFMKPJ@rl32eSetTargetScope?5not?5found?6?$AA@ 1004c81c     xpcruntime:xpcimports.obj
 0002:0000983c       ??_C@_0BJ@LIDLNDHC@rl32eSetTargetScopeSigFt?$AA@ 1004c83c     xpcruntime:xpcimports.obj
 0002:00009858       ??_C@_0CE@JLGHCFHI@rl32eSetTargetScopeSigFt?5not?5fou@ 1004c858     xpcruntime:xpcimports.obj
 0002:0000987c       ??_C@_0BI@JAPOIDNG@rl32eRestartAcquisition?$AA@ 1004c87c     xpcruntime:xpcimports.obj
 0002:00009894       ??_C@_0CD@LLBEFFBO@rl32eRestartAcquisition?5not?5foun@ 1004c894     xpcruntime:xpcimports.obj
 0002:000098b8       ??_C@_0P@IEIIADJB@xpceScopeAcqOK?$AA@ 1004c8b8     xpcruntime:xpcimports.obj
 0002:000098c8       ??_C@_0BK@NJCKNFPN@xpceScopeAcqOK?5not?5found?6?$AA@ 1004c8c8     xpcruntime:xpcimports.obj
 0002:000098e4       ??_C@_0BA@IJINKAHF@xpceRegisterISR?$AA@ 1004c8e4     xpcruntime:xpcimports.obj
 0002:000098f4       ??_C@_0BL@NNDLOEJE@xpceRegisterISR?5not?5found?6?$AA@ 1004c8f4     xpcruntime:xpcimports.obj
 0002:00009910       ??_C@_0BC@NLBADGKF@xpceDeRegisterISR?$AA@ 1004c910     xpcruntime:xpcimports.obj
 0002:00009924       ??_C@_0BN@DCAIKFFD@xpceDeRegisterISR?5not?5found?6?$AA@ 1004c924     xpcruntime:xpcimports.obj
 0002:00009944       ??_C@_0P@CPGPNKEB@xpceFTReadTime?$AA@ 1004c944     xpcruntime:xpcimports.obj
 0002:00009954       ??_C@_0BK@NMABIODN@xpceFTReadTime?5not?5found?6?$AA@ 1004c954     xpcruntime:xpcimports.obj
 0002:00009970       ??_C@_09PHNHCHFH@xpceFTAdd?$AA@ 1004c970     xpcruntime:xpcimports.obj
 0002:0000997c       ??_C@_0BF@FJLEIILA@xpceFTAdd?5not?5found?6?$AA@ 1004c97c     xpcruntime:xpcimports.obj
 0002:00009994       ??_C@_0P@KEODBLHO@xpceFTSubtract?$AA@ 1004c994     xpcruntime:xpcimports.obj
 0002:000099a4       ??_C@_0BK@HONODOKP@xpceFTSubtract?5not?5found?6?$AA@ 1004c9a4     xpcruntime:xpcimports.obj
 0002:000099c0       ??_C@_07JPMEPILD@xpcInpB?$AA@ 1004c9c0     xpcruntime:xpcimports.obj
 0002:000099c8       ??_C@_0BD@PGABEJOL@xpcInpB?5not?5found?6?$AA@ 1004c9c8     xpcruntime:xpcimports.obj
 0002:000099dc       ??_C@_07KIHBBOKH@xpcInpW?$AA@ 1004c9dc     xpcruntime:xpcimports.obj
 0002:000099e4       ??_C@_0BD@FPCJFMCC@xpcInpW?5not?5found?6?$AA@ 1004c9e4     xpcruntime:xpcimports.obj
 0002:000099f8       ??_C@_08KDIAJBOP@xpcInpDW?$AA@ 1004c9f8     xpcruntime:xpcimports.obj
 0002:00009a04       ??_C@_0BE@PIELDNIL@xpcInpDW?5not?5found?6?$AA@ 1004ca04     xpcruntime:xpcimports.obj
 0002:00009a18       ??_C@_08PJFMOIGO@xpcOutpB?$AA@ 1004ca18     xpcruntime:xpcimports.obj
 0002:00009a24       ??_C@_0BE@HCKNCEKF@xpcOutpB?5not?5found?6?$AA@ 1004ca24     xpcruntime:xpcimports.obj
 0002:00009a38       ??_C@_08MOOJAOHK@xpcOutpW?$AA@ 1004ca38     xpcruntime:xpcimports.obj
 0002:00009a44       ??_C@_0BE@NLIFDBGM@xpcOutpW?5not?5found?6?$AA@ 1004ca44     xpcruntime:xpcimports.obj
 0002:00009a58       ??_C@_09FLIEKHJG@xpcOutpDW?$AA@ 1004ca58     xpcruntime:xpcimports.obj
 0002:00009a64       ??_C@_0BF@GJKLPNHB@xpcOutpDW?5not?5found?6?$AA@ 1004ca64     xpcruntime:xpcimports.obj
 0002:00009a7c       ??_C@_0BH@EHOLELHH@xpcReserveMemoryRegion?$AA@ 1004ca7c     xpcruntime:xpcimports.obj
 0002:00009a94       ??_C@_0CC@KAAAGPI@xpcReserveMemoryRegion?5not?5found@ 1004ca94     xpcruntime:xpcimports.obj
 0002:00009ab8       ??_C@_0BA@JGPMHGAF@rl32eShowPCIDev?$AA@ 1004cab8     xpcruntime:xpcimports.obj
 0002:00009ac8       ??_C@_0BL@DDFFLNHI@rl32eShowPCIDev?5not?5found?6?$AA@ 1004cac8     xpcruntime:xpcimports.obj
 0002:00009ae4       ??_C@_0BB@KBCOJPFB@rl32eShowPCIInfo?$AA@ 1004cae4     xpcruntime:xpcimports.obj
 0002:00009af8       ??_C@_0BM@IFDMAGLO@rl32eShowPCIInfo?5not?5found?6?$AA@ 1004caf8     xpcruntime:xpcimports.obj
 0002:00009b14       ??_C@_0BA@BGPAADB@rl32eGetPCIInfo?$AA@ 1004cb14     xpcruntime:xpcimports.obj
 0002:00009b24       ??_C@_0BL@IGOMLDCK@rl32eGetPCIInfo?5not?5found?6?$AA@ 1004cb24     xpcruntime:xpcimports.obj
 0002:00009b40       ??_C@_0BG@NJPFKFDP@rl32eGetPCIInfoAtSlot?$AA@ 1004cb40     xpcruntime:xpcimports.obj
 0002:00009b58       ??_C@_0CB@BBKIPMLA@rl32eGetPCIInfoAtSlot?5not?5found?6@ 1004cb58     xpcruntime:xpcimports.obj
 0002:00009b7c       ??_C@_0BH@OKBOPNFG@xpceAssignPCIInterrupt?$AA@ 1004cb7c     xpcruntime:xpcimports.obj
 0002:00009b94       ??_C@_0CC@CDNDNJBJ@xpceAssignPCIInterrupt?5not?5found@ 1004cb94     xpcruntime:xpcimports.obj
 0002:00009bb8       ??_C@_0BB@FCHHFAAH@rl32eInitCOMPort?$AA@ 1004cbb8     xpcruntime:xpcimports.obj
 0002:00009bcc       ??_C@_0BM@DDJGKAHB@rl32eInitCOMPort?5not?5found?6?$AA@ 1004cbcc     xpcruntime:xpcimports.obj
 0002:00009be8       ??_C@_0BC@CHEEFCP@rl32eCloseCOMPort?$AA@ 1004cbe8     xpcruntime:xpcimports.obj
 0002:00009bfc       ??_C@_0BN@KCOFELEM@rl32eCloseCOMPort?5not?5found?6?$AA@ 1004cbfc     xpcruntime:xpcimports.obj
 0002:00009c1c       ??_C@_0O@LLJGKFOG@rl32eSendChar?$AA@ 1004cc1c     xpcruntime:xpcimports.obj
 0002:00009c2c       ??_C@_0BJ@JCJKDACJ@rl32eSendChar?5not?5found?6?$AA@ 1004cc2c     xpcruntime:xpcimports.obj
 0002:00009c48       ??_C@_0BB@OMFKCOEK@rl32eReceiveChar?$AA@ 1004cc48     xpcruntime:xpcimports.obj
 0002:00009c5c       ??_C@_0BM@HGAIOAND@rl32eReceiveChar?5not?5found?6?$AA@ 1004cc5c     xpcruntime:xpcimports.obj
 0002:00009c78       ??_C@_0BI@PKEJFHMJ@rl32eReceiveBufferCount?$AA@ 1004cc78     xpcruntime:xpcimports.obj
 0002:00009c90       ??_C@_0CD@LNMOFLAH@rl32eReceiveBufferCount?5not?5foun@ 1004cc90     xpcruntime:xpcimports.obj
 0002:00009cb4       ??_C@_0BA@CFIJOJPK@rl32eLineStatus?$AA@ 1004ccb4     xpcruntime:xpcimports.obj
 0002:00009cc4       ??_C@_0BL@PLIDKKGI@rl32eLineStatus?5not?5found?6?$AA@ 1004ccc4     xpcruntime:xpcimports.obj
 0002:00009ce0       ??_C@_0P@MDMKIJF@rl32eSendBlock?$AA@ 1004cce0     xpcruntime:xpcimports.obj
 0002:00009cf0       ??_C@_0BK@KNBNFIKH@rl32eSendBlock?5not?5found?6?$AA@ 1004ccf0     xpcruntime:xpcimports.obj
 0002:00009d0c       ??_C@_0BD@PCKOKHO@xpceGetSignalValue?$AA@ 1004cd0c     xpcruntime:xpcimports.obj
 0002:00009d20       ??_C@_0BO@GCBDJHMB@xpceGetSignalValue?5not?5found?6?$AA@ 1004cd20     xpcruntime:xpcimports.obj
 0002:00009d40       ??_C@_0BB@BJONJAGA@xpceSetParameter?$AA@ 1004cd40     xpcruntime:xpcimports.obj
 0002:00009d54       ??_C@_0BM@BJIKDLHA@xpceSetParameter?5not?5found?6?$AA@ 1004cd54     xpcruntime:xpcimports.obj
 0002:00009d70       ??_C@_0BB@GNFDFMCM@xpceGetParameter?$AA@ 1004cd70     xpcruntime:xpcimports.obj
 0002:00009d84       ??_C@_0BM@POHNKBC@xpceGetParameter?5not?5found?6?$AA@ 1004cd84     xpcruntime:xpcimports.obj
 0002:00009da0       ??_C@_0BB@CEIJLFCD@xpceGetParamDims?$AA@ 1004cda0     xpcruntime:xpcimports.obj
 0002:00009db4       ??_C@_0BM@OABDBKAO@xpceGetParamDims?5not?5found?6?$AA@ 1004cdb4     xpcruntime:xpcimports.obj
 0002:00009dd0       ??_C@_0L@OCBLLHBM@xpceGetTET?$AA@ 1004cdd0     xpcruntime:xpcimports.obj
 0002:00009ddc       ??_C@_0BG@HNOFBOB@xpceGetTET?5not?5found?6?$AA@ 1004cddc     xpcruntime:xpcimports.obj
 0002:00009df4       ??_C@_0BA@FHMIOKFL@xpceUDPOpenSend?$AA@ 1004cdf4     xpcruntime:xpcimports.obj
 0002:00009e04       ??_C@_0BL@HNLPFEK@xpceUDPOpenSend?5not?5found?6?$AA@ 1004ce04     xpcruntime:xpcimports.obj
 0002:00009e20       ??_C@_0BD@BCELJJJL@xpceUDPOpenReceive?$AA@ 1004ce20     xpcruntime:xpcimports.obj
 0002:00009e34       ??_C@_0BO@IFKJBHKC@xpceUDPOpenReceive?5not?5found?6?$AA@ 1004ce34     xpcruntime:xpcimports.obj
 0002:00009e54       ??_C@_0M@OFPFLJGN@xpceUDPSend?$AA@ 1004ce54     xpcruntime:xpcimports.obj
 0002:00009e60       ??_C@_0BH@NOIKLPAB@xpceUDPSend?5not?5found?6?$AA@ 1004ce60     xpcruntime:xpcimports.obj
 0002:00009e78       ??_C@_0P@PLFDECIN@xpceUDPReceive?$AA@ 1004ce78     xpcruntime:xpcimports.obj
 0002:00009e88       ??_C@_0BK@OPJMLDLH@xpceUDPReceive?5not?5found?6?$AA@ 1004ce88     xpcruntime:xpcimports.obj
 0002:00009ea4       ??_C@_0N@IEHPMFME@xpceUDPClose?$AA@ 1004cea4     xpcruntime:xpcimports.obj
 0002:00009eb4       ??_C@_0BI@FHPFHECO@xpceUDPClose?5not?5found?6?$AA@ 1004ceb4     xpcruntime:xpcimports.obj
 0002:00009ecc       ??_C@_0P@OKGNGAGH@xpcIsModelInit?$AA@ 1004cecc     xpcruntime:xpcimports.obj
 0002:00009edc       ??_C@_0BK@DHEMLBIM@xpcIsModelInit?5not?5found?6?$AA@ 1004cedc     xpcruntime:xpcimports.obj
 0002:00009ef8       ??_C@_0BH@KJJLCAOJ@xpcAllocPhysicalMemory?$AA@ 1004cef8     xpcruntime:xpcimports.obj
 0002:00009f10       ??_C@_0CC@MOJPNHKL@xpcAllocPhysicalMemory?5not?5found@ 1004cf10     xpcruntime:xpcimports.obj
 0002:00009f34       ??_C@_0BG@CBNPGAEL@xpcFreePhysicalMemory?$AA@ 1004cf34     xpcruntime:xpcimports.obj
 0002:00009f4c       ??_C@_0CB@PKJEBPOG@xpcFreePhysicalMemory?5not?5found?6@ 1004cf4c     xpcruntime:xpcimports.obj
 0002:00009f70       ??_C@_0BC@JGKNLICL@xpcGetElapsedTime?$AA@ 1004cf70     xpcruntime:xpcimports.obj
 0002:00009f84       ??_C@_0BN@OEOAHCIO@xpcGetElapsedTime?5not?5found?6?$AA@ 1004cf84     xpcruntime:xpcimports.obj
 0002:00009fa4       ??_C@_0M@ICBLMODA@xpcBusyWait?$AA@ 1004cfa4     xpcruntime:xpcimports.obj
 0002:00009fb0       ??_C@_0BH@FBOPECBI@xpcBusyWait?5not?5found?6?$AA@ 1004cfb0     xpcruntime:xpcimports.obj
 0002:00009fc8       ??_C@_0N@LKKJEKKA@TBCreateSpin?$AA@ 1004cfc8     xpcruntime:xpcimports.obj
 0002:00009fd8       ??_C@_0BI@FHKMLKOE@TBCreateSpin?5not?5found?6?$AA@ 1004cfd8     xpcruntime:xpcimports.obj
 0002:00009ff0       ??_C@_0N@HOAJHNBD@TBDeleteSpin?$AA@ 1004cff0     xpcruntime:xpcimports.obj
 0002:0000a000       ??_C@_0BI@BKCPAAG@TBDeleteSpin?5not?5found?6?$AA@ 1004d000     xpcruntime:xpcimports.obj
 0002:0000a018       ??_C@_0P@DAHDDBJG@TBTakeSpinFast?$AA@ 1004d018     xpcruntime:xpcimports.obj
 0002:0000a028       ??_C@_0BK@NKAIBHGB@TBTakeSpinFast?5not?5found?6?$AA@ 1004d028     xpcruntime:xpcimports.obj
 0002:0000a044       ??_C@_0P@FKNAAELA@TBGiveSpinFast?$AA@ 1004d044     xpcruntime:xpcimports.obj
 0002:0000a054       ??_C@_0BK@KGPJBJND@TBGiveSpinFast?5not?5found?6?$AA@ 1004d054     xpcruntime:xpcimports.obj
 0002:0000a070       ??_C@_0BE@IIGBFDHK@xpceCreateSemaphore?$AA@ 1004d070     xpcruntime:xpcimports.obj
 0002:0000a084       ??_C@_0BP@KFBAFFKJ@xpceCreateSemaphore?5not?5found?6?$AA@ 1004d084     xpcruntime:xpcimports.obj
 0002:0000a0a4       ??_C@_0BC@IFNIONKJ@xpceWaitSemaphore?$AA@ 1004d0a4     xpcruntime:xpcimports.obj
 0002:0000a0b8       ??_C@_0BN@NMFAADIO@xpceWaitSemaphore?5not?5found?6?$AA@ 1004d0b8     xpcruntime:xpcimports.obj
 0002:0000a0d8       ??_C@_0BE@NNDIOBKE@xpceSignalSemaphore?$AA@ 1004d0d8     xpcruntime:xpcimports.obj
 0002:0000a0ec       ??_C@_0BP@LBANMHJP@xpceSignalSemaphore?5not?5found?6?$AA@ 1004d0ec     xpcruntime:xpcimports.obj
 0002:0000a10c       ??_C@_0BE@MEBEKOIM@xpceDeleteSemaphore?$AA@ 1004d10c     xpcruntime:xpcimports.obj
 0002:0000a120       ??_C@_0BP@OFNCKOJH@xpceDeleteSemaphore?5not?5found?6?$AA@ 1004d120     xpcruntime:xpcimports.obj
 0002:0000a140       ??_C@_0BD@MFNDMBOF@FindUsbVideoDevice?$AA@ 1004d140     xpcruntime:xpcimports.obj
 0002:0000a154       ??_C@_0BO@POKLDHMI@FindUsbVideoDevice?5not?5found?6?$AA@ 1004d154     xpcruntime:xpcimports.obj
 0002:0000a174       ??_C@_0BA@PLPAPNAB@GetVideoConfigs?$AA@ 1004d174     xpcruntime:xpcimports.obj
 0002:0000a184       ??_C@_0BL@DALDHKHC@GetVideoConfigs?5not?5found?6?$AA@ 1004d184     xpcruntime:xpcimports.obj
 0002:0000a1a0       ??_C@_0L@GBAEMHMH@StartVideo?$AA@ 1004d1a0     xpcruntime:xpcimports.obj
 0002:0000a1ac       ??_C@_0BG@HDCELEBP@StartVideo?5not?5found?6?$AA@ 1004d1ac     xpcruntime:xpcimports.obj
 0002:0000a1c4       ??_C@_0BA@FDNPOCLN@ReadFrameBuffer?$AA@ 1004d1c4     xpcruntime:xpcimports.obj
 0002:0000a1d4       ??_C@_0BL@JHGHPNBI@ReadFrameBuffer?5not?5found?6?$AA@ 1004d1d4     xpcruntime:xpcimports.obj
 0002:0000a1f0       ??_C@_09FAHCLKAG@StopVideo?$AA@ 1004d1f0     xpcruntime:xpcimports.obj
 0002:0000a1fc       ??_C@_0BF@NKGKKADL@StopVideo?5not?5found?6?$AA@ 1004d1fc     xpcruntime:xpcimports.obj
 0002:0000a214       ??_C@_0O@MCPKDLLL@ConvertUImage?$AA@ 1004d214     xpcruntime:xpcimports.obj
 0002:0000a224       ??_C@_0BJ@PHJKOAFL@ConvertUImage?5not?5found?6?$AA@ 1004d224     xpcruntime:xpcimports.obj
 0002:0000a240       ??_C@_0BD@NKCBPBJJ@CreateVideoDisplay?$AA@ 1004d240     xpcruntime:xpcimports.obj
 0002:0000a254       ??_C@_0BO@HPPLLNFP@CreateVideoDisplay?5not?5found?6?$AA@ 1004d254     xpcruntime:xpcimports.obj
 0002:0000a274       ??_C@_0BE@KJCKGPHA@DestroyVideoDisplay?$AA@ 1004d274     xpcruntime:xpcimports.obj
 0002:0000a288       ??_C@_0BP@FMGLJAIJ@DestroyVideoDisplay?5not?5found?6?$AA@ 1004d288     xpcruntime:xpcimports.obj
 0002:0000a2a8       ??_C@_0BC@HCMIMIDN@StartVideoDisplay?$AA@ 1004d2a8     xpcruntime:xpcimports.obj
 0002:0000a2bc       ??_C@_0BN@EFIEBGOO@StartVideoDisplay?5not?5found?6?$AA@ 1004d2bc     xpcruntime:xpcimports.obj
 0002:0000a2dc       ??_C@_0BB@JBBLMILG@StopVideoDisplay?$AA@ 1004d2dc     xpcruntime:xpcimports.obj
 0002:0000a2f0       ??_C@_0BM@DBJBPLEL@StopVideoDisplay?5not?5found?6?$AA@ 1004d2f0     xpcruntime:xpcimports.obj
 0002:0000a30c       ??_C@_0M@MFJEGMHC@StreamVideo?$AA@ 1004d30c     xpcruntime:xpcimports.obj
 0002:0000a318       ??_C@_0BH@OINCDMLA@StreamVideo?5not?5found?6?$AA@ 1004d318     xpcruntime:xpcimports.obj
 0002:0000a330       ??_C@_0N@IGGLCIGE@xpceaddEvent?$AA@ 1004d330     xpcruntime:xpcimports.obj
 0002:0000a340       ??_C@_0BI@NHJNFMKH@xpceaddEvent?5not?5found?6?$AA@ 1004d340     xpcruntime:xpcimports.obj
 0002:0000a358       ??_C@_0BB@LCMHHHFN@getMemoryService?$AA@ 1004d358     xpcruntime:xpcimports.obj
 0002:0000a36c       ??_C@_0BM@MPLCNIIE@getMemoryService?5not?5found?6?$AA@ 1004d36c     xpcruntime:xpcimports.obj
 0002:0000a388       ??_C@_0P@KIKONDKK@getCommService?$AA@ 1004d388     xpcruntime:xpcimports.obj
 0002:0000a398       ??_C@_0BK@NCECBKNM@getCommService?5not?5found?6?$AA@ 1004d398     xpcruntime:xpcimports.obj
 0002:0000a3b4       ??_C@_0P@GDLHFECE@getStatusFlags?$AA@ 1004d3b4     xpcruntime:xpcimports.obj
 0002:0000a3c4       ??_C@_0BK@NEKDLJHG@getStatusFlags?5not?5found?6?$AA@ 1004d3c4     xpcruntime:xpcimports.obj
 0002:0000a3e0       ??_C@_0BL@CDFCLKOL@startToAsyncQueueTgtAppSvc?$AA@ 1004d3e0     xpcruntime:xpcimports.obj
 0002:0000a3fc       ??_C@_0CG@JGOFFKEL@startToAsyncQueueTgtAppSvc?5not?5f@ 1004d3fc     xpcruntime:xpcimports.obj
 0002:0000a424       ??_C@_0BP@IJNGPPPE@terminateToAsyncQueueTgtAppSvc?$AA@ 1004d424     xpcruntime:xpcimports.obj
 0002:0000a444       ??_C@_0CK@NDEMAMKF@terminateToAsyncQueueTgtAppSvc?5n@ 1004d444     xpcruntime:xpcimports.obj
 0002:0000a470       ??_C@_0BK@IDACEHAO@sendToAsyncQueueTgtAppSvc?$AA@ 1004d470     xpcruntime:xpcimports.obj
 0002:0000a48c       ??_C@_0CF@PNCKPEHN@sendToAsyncQueueTgtAppSvc?5not?5fo@ 1004d48c     xpcruntime:xpcimports.obj
 0002:0000a4b4       ??_C@_0BN@HJOHIFOM@xpceGetIntTimerGranularityNS?$AA@ 1004d4b4     xpcruntime:xpcimports.obj
 0002:0000a4d4       ??_C@_0CI@OADDPMKB@xpceGetIntTimerGranularityNS?5not@ 1004d4d4     xpcruntime:xpcimports.obj
 0002:0000a4fc       ??_C@_0BG@CCHICKPN@slrteSetStepSizeDelta?$AA@ 1004d4fc     xpcruntime:xpcimports.obj
 0002:0000a514       ??_C@_0CB@MKHINEIJ@slrteSetStepSizeDelta?5not?5found?6@ 1004d514     xpcruntime:xpcimports.obj
 0002:0000a538       ??_C@_0BI@CLNBLDKJ@slrteGetCurrentStepSize?$AA@ 1004d538     xpcruntime:xpcimports.obj
 0002:0000a550       ??_C@_0CD@GIOJPGJA@slrteGetCurrentStepSize?5not?5foun@ 1004d550     xpcruntime:xpcimports.obj
 0002:0000a574       ??_C@_0BE@FCLCBOC@registerPTPTimeRead?$AA@ 1004d574     xpcruntime:xpcimports.obj
 0002:0000a588       ??_C@_0BP@LHPKAJIP@registerPTPTimeRead?5not?5found?6?$AA@ 1004d588     xpcruntime:xpcimports.obj
 0002:0000a5a8       ??_C@_0BG@KIGCDDJI@unRegisterPTPTimeRead?$AA@ 1004d5a8     xpcruntime:xpcimports.obj
 0002:0000a5c0       ??_C@_0CB@MLFFBFCM@unRegisterPTPTimeRead?5not?5found?6@ 1004d5c0     xpcruntime:xpcimports.obj
 0002:0000a5e4       ??_C@_0BB@IPMDDBHK@slTestInitialize?$AA@ 1004d5e4     xpcruntime:xpcimports.obj
 0002:0000a5f8       ??_C@_0BM@LAJFCCJH@slTestInitialize?5not?5found?6?$AA@ 1004d5f8     xpcruntime:xpcimports.obj
 0002:0000a614       ??_C@_0BF@OOMPMEBC@slTestLogAssessments?$AA@ 1004d614     xpcruntime:xpcimports.obj
 0002:0000a62c       ??_C@_0CA@FGJCEBAG@slTestLogAssessments?5not?5found?6?$AA@ 1004d62c     xpcruntime:xpcimports.obj
 0002:0000a64c       ??_C@_0BB@HJHKONHO@slTestEvalOnFail?$AA@ 1004d64c     xpcruntime:xpcimports.obj
 0002:0000a660       ??_C@_0BM@JIKCFFNJ@slTestEvalOnFail?5not?5found?6?$AA@ 1004d660     xpcruntime:xpcimports.obj
 0002:0000a67c       ??_C@_0BA@LBHLABFP@slTestTerminate?$AA@ 1004d67c     xpcruntime:xpcimports.obj
 0002:0000a68c       ??_C@_0BL@EMFGKAPA@slTestTerminate?5not?5found?6?$AA@ 1004d68c     xpcruntime:xpcimports.obj
 0002:0000a6a8       ??_C@_0BE@JPNPBBEO@slTestRegAssessment?$AA@ 1004d6a8     xpcruntime:xpcimports.obj
 0002:0000a6bc       ??_C@_0BP@FBDEJJJH@slTestRegAssessment?5not?5found?6?$AA@ 1004d6bc     xpcruntime:xpcimports.obj
 0002:0000e048       __FPinit                   10051048     LIBCMT:fpinit.obj
 0002:0000e054       ??_C@_1BI@BGOHAHKC@?$AAm?$AAs?$AAc?$AAo?$AAr?$AAe?$AAe?$AA?4?$AAd?$AAl?$AAl?$AA?$AA@ 10051054     LIBCMT:crt0dat.obj
 0002:0000e06c       ??_C@_0P@MIGLKIOC@CorExitProcess?$AA@ 1005106c     LIBCMT:crt0dat.obj
 0002:0000e104       ??_C@_17LGKOMLJ@?$AA?4?$AA?4?$AA?4?$AA?$AA@ 10051104     LIBCMT:wassert.obj
 0002:0000e10c       ??_C@_13LBAGMAIH@?$AA?6?$AA?$AA@ 1005110c     LIBCMT:wassert.obj
 0002:0000e110       ??_C@_15IABLJNFO@?$AA?6?$AA?6?$AA?$AA@ 10051110     LIBCMT:wassert.obj
 0002:0000e118       ??_C@_1CE@OJBNHDMO@?$AAA?$AAs?$AAs?$AAe?$AAr?$AAt?$AAi?$AAo?$AAn?$AA?5?$AAf?$AAa?$AAi?$AAl?$AAe?$AAd?$AA?$CB?$AA?$AA@ 10051118     LIBCMT:wassert.obj
 0002:0000e13c       ??_C@_1BE@PHKBBGE@?$AAP?$AAr?$AAo?$AAg?$AAr?$AAa?$AAm?$AA?3?$AA?5?$AA?$AA@ 1005113c     LIBCMT:wassert.obj
 0002:0000e150       ??_C@_1CO@EAEJAADC@?$AA?$DM?$AAp?$AAr?$AAo?$AAg?$AAr?$AAa?$AAm?$AA?5?$AAn?$AAa?$AAm?$AAe?$AA?5?$AAu?$AAn?$AAk?$AAn?$AAo?$AAw?$AAn?$AA?$DO?$AA?$AA@ 10051150     LIBCMT:wassert.obj
 0002:0000e180       ??_C@_1O@HEMHKNDC@?$AAF?$AAi?$AAl?$AAe?$AA?3?$AA?5?$AA?$AA@ 10051180     LIBCMT:wassert.obj
 0002:0000e190       ??_C@_1O@KCAFKHJE@?$AAL?$AAi?$AAn?$AAe?$AA?3?$AA?5?$AA?$AA@ 10051190     LIBCMT:wassert.obj
 0002:0000e1a0       ??_C@_1BK@PEDCIPMA@?$AAE?$AAx?$AAp?$AAr?$AAe?$AAs?$AAs?$AAi?$AAo?$AAn?$AA?3?$AA?5?$AA?$AA@ 100511a0     LIBCMT:wassert.obj
 0002:0000e1c0       ??_C@_1OA@EGMLFBHJ@?$AAF?$AAo?$AAr?$AA?5?$AAi?$AAn?$AAf?$AAo?$AAr?$AAm?$AAa?$AAt?$AAi?$AAo?$AAn?$AA?5?$AAo?$AAn?$AA?5?$AAh?$AAo?$AAw?$AA?5?$AAy?$AAo?$AAu?$AAr?$AA?5?$AAp?$AAr?$AAo?$AAg@ 100511c0     LIBCMT:wassert.obj
 0002:0000e2a0       ??_C@_1HK@POCJMFGK@?$AA?$CI?$AAP?$AAr?$AAe?$AAs?$AAs?$AA?5?$AAR?$AAe?$AAt?$AAr?$AAy?$AA?5?$AAt?$AAo?$AA?5?$AAd?$AAe?$AAb?$AAu?$AAg?$AA?5?$AAt?$AAh?$AAe?$AA?5?$AAa?$AAp?$AAp?$AAl?$AAi?$AAc@ 100512a0     LIBCMT:wassert.obj
 0002:0000e320       ??_C@_1EK@MBDPDCGA@?$AAM?$AAi?$AAc?$AAr?$AAo?$AAs?$AAo?$AAf?$AAt?$AA?5?$AAV?$AAi?$AAs?$AAu?$AAa?$AAl?$AA?5?$AAC?$AA?$CL?$AA?$CL?$AA?5?$AAR?$AAu?$AAn?$AAt?$AAi?$AAm?$AAe?$AA?5?$AAL?$AAi?$AAb@ 10051320     LIBCMT:wassert.obj
 0002:0000e36c       __pRawDllMain              1005136c     LIBCMT:dllcrt0.obj
 0002:0000e36c       __pDefaultRawDllMain       1005136c     LIBCMT:dllcrt0.obj
 0002:0000e370       ?ProcessDetach@NativeDll@<CrtImplementationDetails>@@0IB 10051370     LIBCMT:handler.obj
 0002:0000e374       ?ProcessAttach@NativeDll@<CrtImplementationDetails>@@0IB 10051374     LIBCMT:handler.obj
 0002:0000e378       ?ThreadAttach@NativeDll@<CrtImplementationDetails>@@0IB 10051378     LIBCMT:handler.obj
 0002:0000e37c       ?ThreadDetach@NativeDll@<CrtImplementationDetails>@@0IB 1005137c     LIBCMT:handler.obj
 0002:0000e380       ?ProcessVerifier@NativeDll@<CrtImplementationDetails>@@0IB 10051380     LIBCMT:handler.obj
 0002:0000e440       ??_C@_1FK@PGACCAFB@?$AAR?$AA6?$AA0?$AA0?$AA2?$AA?$AN?$AA?6?$AA?9?$AA?5?$AAf?$AAl?$AAo?$AAa?$AAt?$AAi?$AAn?$AAg?$AA?5?$AAp?$AAo?$AAi?$AAn?$AAt?$AA?5?$AAs?$AAu?$AAp?$AAp?$AAo?$AAr?$AAt?$AA?5@ 10051440     LIBCMT:crt0msg.obj
 0002:0000e4a0       ??_C@_1FE@LLNEDJMD@?$AAR?$AA6?$AA0?$AA0?$AA8?$AA?$AN?$AA?6?$AA?9?$AA?5?$AAn?$AAo?$AAt?$AA?5?$AAe?$AAn?$AAo?$AAu?$AAg?$AAh?$AA?5?$AAs?$AAp?$AAa?$AAc?$AAe?$AA?5?$AAf?$AAo?$AAr?$AA?5?$AAa?$AAr@ 100514a0     LIBCMT:crt0msg.obj
 0002:0000e4f8       ??_C@_1FI@HONFMGBI@?$AAR?$AA6?$AA0?$AA0?$AA9?$AA?$AN?$AA?6?$AA?9?$AA?5?$AAn?$AAo?$AAt?$AA?5?$AAe?$AAn?$AAo?$AAu?$AAg?$AAh?$AA?5?$AAs?$AAp?$AAa?$AAc?$AAe?$AA?5?$AAf?$AAo?$AAr?$AA?5?$AAe?$AAn@ 100514f8     LIBCMT:crt0msg.obj
 0002:0000e550       ??_C@_1EG@BEHAGFJD@?$AAR?$AA6?$AA0?$AA1?$AA0?$AA?$AN?$AA?6?$AA?9?$AA?5?$AAa?$AAb?$AAo?$AAr?$AAt?$AA?$CI?$AA?$CJ?$AA?5?$AAh?$AAa?$AAs?$AA?5?$AAb?$AAe?$AAe?$AAn?$AA?5?$AAc?$AAa?$AAl?$AAl?$AAe?$AAd@ 10051550     LIBCMT:crt0msg.obj
 0002:0000e598       ??_C@_1FI@LOGNIKDM@?$AAR?$AA6?$AA0?$AA1?$AA6?$AA?$AN?$AA?6?$AA?9?$AA?5?$AAn?$AAo?$AAt?$AA?5?$AAe?$AAn?$AAo?$AAu?$AAg?$AAh?$AA?5?$AAs?$AAp?$AAa?$AAc?$AAe?$AA?5?$AAf?$AAo?$AAr?$AA?5?$AAt?$AAh@ 10051598     LIBCMT:crt0msg.obj
 0002:0000e5f0       ??_C@_1FK@BEOGODMC@?$AAR?$AA6?$AA0?$AA1?$AA7?$AA?$AN?$AA?6?$AA?9?$AA?5?$AAu?$AAn?$AAe?$AAx?$AAp?$AAe?$AAc?$AAt?$AAe?$AAd?$AA?5?$AAm?$AAu?$AAl?$AAt?$AAi?$AAt?$AAh?$AAr?$AAe?$AAa?$AAd?$AA?5@ 100515f0     LIBCMT:crt0msg.obj
 0002:0000e650       ??_C@_1EC@JIBHAOPH@?$AAR?$AA6?$AA0?$AA1?$AA8?$AA?$AN?$AA?6?$AA?9?$AA?5?$AAu?$AAn?$AAe?$AAx?$AAp?$AAe?$AAc?$AAt?$AAe?$AAd?$AA?5?$AAh?$AAe?$AAa?$AAp?$AA?5?$AAe?$AAr?$AAr?$AAo?$AAr?$AA?$AN?$AA?6@ 10051650     LIBCMT:crt0msg.obj
 0002:0000e698       ??_C@_1FC@ECHBIFBC@?$AAR?$AA6?$AA0?$AA1?$AA9?$AA?$AN?$AA?6?$AA?9?$AA?5?$AAu?$AAn?$AAa?$AAb?$AAl?$AAe?$AA?5?$AAt?$AAo?$AA?5?$AAo?$AAp?$AAe?$AAn?$AA?5?$AAc?$AAo?$AAn?$AAs?$AAo?$AAl?$AAe?$AA?5@ 10051698     LIBCMT:crt0msg.obj
 0002:0000e6f0       ??_C@_1GK@FHCKBEFA@?$AAR?$AA6?$AA0?$AA2?$AA4?$AA?$AN?$AA?6?$AA?9?$AA?5?$AAn?$AAo?$AAt?$AA?5?$AAe?$AAn?$AAo?$AAu?$AAg?$AAh?$AA?5?$AAs?$AAp?$AAa?$AAc?$AAe?$AA?5?$AAf?$AAo?$AAr?$AA?5?$AA_?$AAo@ 100516f0     LIBCMT:crt0msg.obj
 0002:0000e760       ??_C@_1EM@MAADIHMB@?$AAR?$AA6?$AA0?$AA2?$AA5?$AA?$AN?$AA?6?$AA?9?$AA?5?$AAp?$AAu?$AAr?$AAe?$AA?5?$AAv?$AAi?$AAr?$AAt?$AAu?$AAa?$AAl?$AA?5?$AAf?$AAu?$AAn?$AAc?$AAt?$AAi?$AAo?$AAn?$AA?5?$AAc@ 10051760     LIBCMT:crt0msg.obj
 0002:0000e7b0       ??_C@_1GK@MCAAGJMO@?$AAR?$AA6?$AA0?$AA2?$AA6?$AA?$AN?$AA?6?$AA?9?$AA?5?$AAn?$AAo?$AAt?$AA?5?$AAe?$AAn?$AAo?$AAu?$AAg?$AAh?$AA?5?$AAs?$AAp?$AAa?$AAc?$AAe?$AA?5?$AAf?$AAo?$AAr?$AA?5?$AAs?$AAt@ 100517b0     LIBCMT:crt0msg.obj
 0002:0000e820       ??_C@_1GK@MFGOKLAG@?$AAR?$AA6?$AA0?$AA2?$AA7?$AA?$AN?$AA?6?$AA?9?$AA?5?$AAn?$AAo?$AAt?$AA?5?$AAe?$AAn?$AAo?$AAu?$AAg?$AAh?$AA?5?$AAs?$AAp?$AAa?$AAc?$AAe?$AA?5?$AAf?$AAo?$AAr?$AA?5?$AAl?$AAo@ 10051820     LIBCMT:crt0msg.obj
 0002:0000e890       ??_C@_1EK@HHFLMAOL@?$AAR?$AA6?$AA0?$AA2?$AA8?$AA?$AN?$AA?6?$AA?9?$AA?5?$AAu?$AAn?$AAa?$AAb?$AAl?$AAe?$AA?5?$AAt?$AAo?$AA?5?$AAi?$AAn?$AAi?$AAt?$AAi?$AAa?$AAl?$AAi?$AAz?$AAe?$AA?5?$AAh?$AAe@ 10051890     LIBCMT:crt0msg.obj
 0002:0000e8dc       ??_C@_1DO@BMFCDCD@?$AAR?$AA6?$AA0?$AA3?$AA0?$AA?$AN?$AA?6?$AA?9?$AA?5?$AAC?$AAR?$AAT?$AA?5?$AAn?$AAo?$AAt?$AA?5?$AAi?$AAn?$AAi?$AAt?$AAi?$AAa?$AAl?$AAi?$AAz?$AAe?$AAd?$AA?$AN?$AA?6?$AA?$AA@ 100518dc     LIBCMT:crt0msg.obj
 0002:0000e920       ??_C@_1MG@ENCOOIDF@?$AAR?$AA6?$AA0?$AA3?$AA1?$AA?$AN?$AA?6?$AA?9?$AA?5?$AAA?$AAt?$AAt?$AAe?$AAm?$AAp?$AAt?$AA?5?$AAt?$AAo?$AA?5?$AAi?$AAn?$AAi?$AAt?$AAi?$AAa?$AAl?$AAi?$AAz?$AAe?$AA?5?$AAt@ 10051920     LIBCMT:crt0msg.obj
 0002:0000e9e8       ??_C@_1GG@GOPILAJP@?$AAR?$AA6?$AA0?$AA3?$AA2?$AA?$AN?$AA?6?$AA?9?$AA?5?$AAn?$AAo?$AAt?$AA?5?$AAe?$AAn?$AAo?$AAu?$AAg?$AAh?$AA?5?$AAs?$AAp?$AAa?$AAc?$AAe?$AA?5?$AAf?$AAo?$AAr?$AA?5?$AAl?$AAo@ 100519e8     LIBCMT:crt0msg.obj
 0002:0000ea50       ??_C@_1BOO@KGEDBGAJ@?$AAR?$AA6?$AA0?$AA3?$AA3?$AA?$AN?$AA?6?$AA?9?$AA?5?$AAA?$AAt?$AAt?$AAe?$AAm?$AAp?$AAt?$AA?5?$AAt?$AAo?$AA?5?$AAu?$AAs?$AAe?$AA?5?$AAM?$AAS?$AAI?$AAL?$AA?5?$AAc?$AAo?$AAd@ 10051a50     LIBCMT:crt0msg.obj
 0002:0000ec40       ??_C@_1GG@MKFPEKFO@?$AAR?$AA6?$AA0?$AA3?$AA4?$AA?$AN?$AA?6?$AA?9?$AA?5?$AAi?$AAn?$AAc?$AAo?$AAn?$AAs?$AAi?$AAs?$AAt?$AAe?$AAn?$AAt?$AA?5?$AAo?$AAn?$AAe?$AAx?$AAi?$AAt?$AA?5?$AAb?$AAe?$AAg@ 10051c40     LIBCMT:crt0msg.obj
 0002:0000eca8       ??_C@_1BO@BFCDCGC@?$AAD?$AAO?$AAM?$AAA?$AAI?$AAN?$AA?5?$AAe?$AAr?$AAr?$AAo?$AAr?$AA?$AN?$AA?6?$AA?$AA@ 10051ca8     LIBCMT:crt0msg.obj
 0002:0000ecc8       ??_C@_1BK@KMOMNAAI@?$AAS?$AAI?$AAN?$AAG?$AA?5?$AAe?$AAr?$AAr?$AAo?$AAr?$AA?$AN?$AA?6?$AA?$AA@ 10051cc8     LIBCMT:crt0msg.obj
 0002:0000ece4       ??_C@_1BM@JBBEPPHI@?$AAT?$AAL?$AAO?$AAS?$AAS?$AA?5?$AAe?$AAr?$AAr?$AAo?$AAr?$AA?$AN?$AA?6?$AA?$AA@ 10051ce4     LIBCMT:crt0msg.obj
 0002:0000ed00       ??_C@_15JNBOKNOG@?$AA?$AN?$AA?6?$AA?$AA@ 10051d00     LIBCMT:crt0msg.obj
 0002:0000ed08       ??_C@_1BO@BKOMIGKJ@?$AAr?$AAu?$AAn?$AAt?$AAi?$AAm?$AAe?$AA?5?$AAe?$AAr?$AAr?$AAo?$AAr?$AA?5?$AA?$AA@ 10051d08     LIBCMT:crt0msg.obj
 0002:0000ed28       ??_C@_1DE@JNGNBFGO@?$AAR?$AAu?$AAn?$AAt?$AAi?$AAm?$AAe?$AA?5?$AAE?$AAr?$AAr?$AAo?$AAr?$AA?$CB?$AA?6?$AA?6?$AAP?$AAr?$AAo?$AAg?$AAr?$AAa?$AAm?$AA?3?$AA?5?$AA?$AA@ 10051d28     LIBCMT:crt0msg.obj
 0002:0000ed5c       ??_C@_06OJHGLDPL@?$CInull?$CJ?$AA@ 10051d5c     LIBCMT:output.obj
 0002:0000ed64       ??_C@_1O@CEDCILHN@?$AA?$CI?$AAn?$AAu?$AAl?$AAl?$AA?$CJ?$AA?$AA@ 10051d64     LIBCMT:output.obj
 0002:0000ed78       ___lookuptable             10051d78     LIBCMT:output.obj
 0002:0000ee40       ??_C@_03MGHMBJCF@log?$AA@  10051e40     LIBCMT:libm_error.obj
 0002:0000ee44       ??_C@_05HGHHAHAP@log10?$AA@ 10051e44     LIBCMT:libm_error.obj
 0002:0000ee4c       ??_C@_03KHJOGHMM@exp?$AA@  10051e4c     LIBCMT:libm_error.obj
 0002:0000ee50       ??_C@_03JGHBODFD@pow?$AA@  10051e50     LIBCMT:libm_error.obj
 0002:0000ee54       ??_C@_04FIHNOPOL@asin?$AA@ 10051e54     LIBCMT:libm_error.obj
 0002:0000ee5c       ??_C@_04PDIFKINK@acos?$AA@ 10051e5c     LIBCMT:libm_error.obj
 0002:0000ee64       ??_C@_05EOHGHCHD@exp10?$AA@ 10051e64     LIBCMT:libm_error.obj
 0002:0000ee6c       ??_C@_04MLLJIGOK@atan?$AA@ 10051e6c     LIBCMT:libm_error.obj
 0002:0000ee74       ??_C@_04GFPJNGEK@ceil?$AA@ 10051e74     LIBCMT:libm_error.obj
 0002:0000ee7c       ??_C@_05PBJFFIGL@floor?$AA@ 10051e7c     LIBCMT:libm_error.obj
 0002:0000ee84       ??_C@_04EHEDPDJG@modf?$AA@ 10051e84     LIBCMT:libm_error.obj
 0002:0000ee8c       ??_C@_03BLEJJJBH@sin?$AA@  10051e8c     LIBCMT:libm_error.obj
 0002:0000ee90       ??_C@_03LALBNOCG@cos?$AA@  10051e90     LIBCMT:libm_error.obj
 0002:0000ee94       ??_C@_03IIINPABG@tan?$AA@  10051e94     LIBCMT:libm_error.obj
 0002:0000ee98       ??_C@_04EIAKFFMI@sqrt?$AA@ 10051e98     LIBCMT:libm_error.obj
 0002:0000eea0       ??_C@_05KLBDPFGC@e?$CL000?$AA@ 10051ea0     LIBCMT:cvt.obj
 0002:0000eea8       ??_C@_1BK@MGMFAEKH@?$AAk?$AAe?$AAr?$AAn?$AAe?$AAl?$AA3?$AA2?$AA?4?$AAd?$AAl?$AAl?$AA?$AA@ 10051ea8     LIBCMT:winapisupp.obj
 0002:0000eec4       ??_C@_08KNHFBNJ@FlsAlloc?$AA@ 10051ec4     LIBCMT:winapisupp.obj
 0002:0000eed0       ??_C@_07PEJMOBNF@FlsFree?$AA@ 10051ed0     LIBCMT:winapisupp.obj
 0002:0000eed8       ??_C@_0M@GDNOONDI@FlsGetValue?$AA@ 10051ed8     LIBCMT:winapisupp.obj
 0002:0000eee4       ??_C@_0M@JCPCPOEF@FlsSetValue?$AA@ 10051ee4     LIBCMT:winapisupp.obj
 0002:0000eef0       ??_C@_0BM@HCFOFFN@InitializeCriticalSectionEx?$AA@ 10051ef0     LIBCMT:winapisupp.obj
 0002:0000ef0c       ??_C@_0P@DLHPPCNH@CreateEventExW?$AA@ 10051f0c     LIBCMT:winapisupp.obj
 0002:0000ef1c       ??_C@_0BD@KIEEOEEH@CreateSemaphoreExW?$AA@ 10051f1c     LIBCMT:winapisupp.obj
 0002:0000ef30       ??_C@_0BI@BKLFFAPO@SetThreadStackGuarantee?$AA@ 10051f30     LIBCMT:winapisupp.obj
 0002:0000ef48       ??_C@_0BG@OGFAJCKC@CreateThreadpoolTimer?$AA@ 10051f48     LIBCMT:winapisupp.obj
 0002:0000ef60       ??_C@_0BD@LPLEMMDI@SetThreadpoolTimer?$AA@ 10051f60     LIBCMT:winapisupp.obj
 0002:0000ef74       ??_C@_0CA@FMNJENH@WaitForThreadpoolTimerCallbacks?$AA@ 10051f74     LIBCMT:winapisupp.obj
 0002:0000ef94       ??_C@_0BF@DCFCCNOC@CloseThreadpoolTimer?$AA@ 10051f94     LIBCMT:winapisupp.obj
 0002:0000efac       ??_C@_0BF@FLABGKKM@CreateThreadpoolWait?$AA@ 10051fac     LIBCMT:winapisupp.obj
 0002:0000efc4       ??_C@_0BC@MGCOHNA@SetThreadpoolWait?$AA@ 10051fc4     LIBCMT:winapisupp.obj
 0002:0000efd8       ??_C@_0BE@OCIOMIMP@CloseThreadpoolWait?$AA@ 10051fd8     LIBCMT:winapisupp.obj
 0002:0000efec       ??_C@_0BJ@LKGHFHBO@FlushProcessWriteBuffers?$AA@ 10051fec     LIBCMT:winapisupp.obj
 0002:0000f008       ??_C@_0BP@KALKKPMO@FreeLibraryWhenCallbackReturns?$AA@ 10052008     LIBCMT:winapisupp.obj
 0002:0000f028       ??_C@_0BK@DFNBACLA@GetCurrentProcessorNumber?$AA@ 10052028     LIBCMT:winapisupp.obj
 0002:0000f044       ??_C@_0BP@KHGALBC@GetLogicalProcessorInformation?$AA@ 10052044     LIBCMT:winapisupp.obj
 0002:0000f064       ??_C@_0BE@FKKLLFLM@CreateSymbolicLinkW?$AA@ 10052064     LIBCMT:winapisupp.obj
 0002:0000f078       ??_C@_0BJ@OHNKDLIJ@SetDefaultDllDirectories?$AA@ 10052078     LIBCMT:winapisupp.obj
 0002:0000f094       ??_C@_0BE@LJANKFHF@EnumSystemLocalesEx?$AA@ 10052094     LIBCMT:winapisupp.obj
 0002:0000f0a8       ??_C@_0BA@IHGNDAEB@CompareStringEx?$AA@ 100520a8     LIBCMT:winapisupp.obj
 0002:0000f0b8       ??_C@_0BA@EPCJIIPD@GetDateFormatEx?$AA@ 100520b8     LIBCMT:winapisupp.obj
 0002:0000f0c8       ??_C@_0BA@ONOKGCMP@GetLocaleInfoEx?$AA@ 100520c8     LIBCMT:winapisupp.obj
 0002:0000f0d8       ??_C@_0BA@CIJJKCJJ@GetTimeFormatEx?$AA@ 100520d8     LIBCMT:winapisupp.obj
 0002:0000f0e8       ??_C@_0BJ@PBCCBIPI@GetUserDefaultLocaleName?$AA@ 100520e8     LIBCMT:winapisupp.obj
 0002:0000f104       ??_C@_0BC@CELBKLLA@IsValidLocaleName?$AA@ 10052104     LIBCMT:winapisupp.obj
 0002:0000f118       ??_C@_0O@KKBNKAPF@LCMapStringEx?$AA@ 10052118     LIBCMT:winapisupp.obj
 0002:0000f128       ??_C@_0BE@JOGNEJCI@GetCurrentPackageId?$AA@ 10052128     LIBCMT:winapisupp.obj
 0002:0000f13c       ??_C@_0P@CDHHOHKP@GetTickCount64?$AA@ 1005213c     LIBCMT:winapisupp.obj
 0002:0000f14c       ??_C@_0BO@KPCLFDJJ@GetFileInformationByHandleExW?$AA@ 1005214c     LIBCMT:winapisupp.obj
 0002:0000f16c       ??_C@_0BM@MHIDLABK@SetFileInformationByHandleW?$AA@ 1005216c     LIBCMT:winapisupp.obj
 0002:0000f188       ??_C@_1BK@GAEMIDIL@?$AAA?$AAD?$AAV?$AAA?$AAP?$AAI?$AA3?$AA2?$AA?4?$AAD?$AAL?$AAL?$AA?$AA@ 10052188     LIBCMT:rand_s.obj
 0002:0000f1a4       ??_C@_0BC@JEAENNKH@SystemFunction036?$AA@ 100521a4     LIBCMT:rand_s.obj
 0002:0000f1c8       ??_C@_1M@HPNHIDJI@?$AAj?$AAa?$AA?9?$AAJ?$AAP?$AA?$AA@ 100521c8     LIBCMT:mbctype.obj
 0002:0000f1d4       ??_C@_1M@BIBDDEMK@?$AAz?$AAh?$AA?9?$AAC?$AAN?$AA?$AA@ 100521d4     LIBCMT:mbctype.obj
 0002:0000f1e0       ??_C@_1M@JLOOOEGK@?$AAk?$AAo?$AA?9?$AAK?$AAR?$AA?$AA@ 100521e0     LIBCMT:mbctype.obj
 0002:0000f1ec       ??_C@_1M@CLNBBOPM@?$AAz?$AAh?$AA?9?$AAT?$AAW?$AA?$AA@ 100521ec     LIBCMT:mbctype.obj
 0002:0000f218       ??_C@_04FJHINJAO@tanh?$AA@ 10052218     LIBCMT:fpexcept.obj
 0002:0000f220       ??_C@_05KNGEOGJB@atan2?$AA@ 10052220     LIBCMT:fpexcept.obj
 0002:0000f228       ??_C@_04ODHECPBC@fabs?$AA@ 10052228     LIBCMT:fpexcept.obj
 0002:0000f230       ??_C@_05CEJMAHNP@ldexp?$AA@ 10052230     LIBCMT:fpexcept.obj
 0002:0000f238       ??_C@_05KBKMEMPO@_cabs?$AA@ 10052238     LIBCMT:fpexcept.obj
 0002:0000f240       ??_C@_06MEIMCGCF@_hypot?$AA@ 10052240     LIBCMT:fpexcept.obj
 0002:0000f248       ??_C@_04KEPJIHGP@fmod?$AA@ 10052248     LIBCMT:fpexcept.obj
 0002:0000f250       ??_C@_05GKKHEGJL@frexp?$AA@ 10052250     LIBCMT:fpexcept.obj
 0002:0000f258       ??_C@_03MJLDFKDL@_y0?$AA@  10052258     LIBCMT:fpexcept.obj
 0002:0000f25c       ??_C@_03NAKIGLHK@_y1?$AA@  1005225c     LIBCMT:fpexcept.obj
 0002:0000f260       ??_C@_03ONILCKOB@_yn?$AA@  10052260     LIBCMT:fpexcept.obj
 0002:0000f264       ??_C@_05JGDBENOH@_logb?$AA@ 10052264     LIBCMT:fpexcept.obj
 0002:0000f26c       ??_C@_0L@KDOEJCKC@_nextafter?$AA@ 1005226c     LIBCMT:fpexcept.obj
 0002:0000f278       ??_C@_04COOMCNPB@sinh?$AA@ 10052278     LIBCMT:fpexcept.obj
 0002:0000f280       ??_C@_04HPJJNFIM@cosh?$AA@ 10052280     LIBCMT:fpexcept.obj
 0002:0000f288       ??_C@_1BG@GOEBHBDC@?$AAU?$AAS?$AAE?$AAR?$AA3?$AA2?$AA?4?$AAD?$AAL?$AAL?$AA?$AA@ 10052288     LIBCMT:crtmboxw.obj
 0002:0000f2a0       ??_C@_0M@DLDCCGNP@MessageBoxW?$AA@ 100522a0     LIBCMT:crtmboxw.obj
 0002:0000f2ac       ??_C@_0BA@HNOPNCHB@GetActiveWindow?$AA@ 100522ac     LIBCMT:crtmboxw.obj
 0002:0000f2bc       ??_C@_0BD@HHGDFDBJ@GetLastActivePopup?$AA@ 100522bc     LIBCMT:crtmboxw.obj
 0002:0000f2d0       ??_C@_0BK@DEKFELLI@GetUserObjectInformationW?$AA@ 100522d0     LIBCMT:crtmboxw.obj
 0002:0000f2ec       ??_C@_0BI@DFKBFLJE@GetProcessWindowStation?$AA@ 100522ec     LIBCMT:crtmboxw.obj
 0002:0000f308       __XcptActTab               10052308     LIBCMT:winxfltr.obj
 0002:0000f398       __XcptActTabCount          10052398     LIBCMT:winxfltr.obj
 0002:0000f39c       __XcptActTabSize           1005239c     LIBCMT:winxfltr.obj
 0002:0000f3a0       __First_FPE_Indx           100523a0     LIBCMT:winxfltr.obj
 0002:0000f3a4       __Num_FPE                  100523a4     LIBCMT:winxfltr.obj
 0002:0000f3a8       ___lookuptable_s           100523a8     LIBCMT:outputs.obj
 0002:0000f404       ??_C@_03KOEHGMDN@Sun?$AA@  10052404     LIBCMT:nlsdata.obj
 0002:0000f408       ??_C@_03PDAGKDH@Mon?$AA@   10052408     LIBCMT:nlsdata.obj
 0002:0000f40c       ??_C@_03NAGEINEP@Tue?$AA@  1005240c     LIBCMT:nlsdata.obj
 0002:0000f410       ??_C@_03MHOMLAJA@Wed?$AA@  10052410     LIBCMT:nlsdata.obj
 0002:0000f414       ??_C@_03IOFIKPDN@Thu?$AA@  10052414     LIBCMT:nlsdata.obj
 0002:0000f418       ??_C@_03IDIOELNC@Fri?$AA@  10052418     LIBCMT:nlsdata.obj
 0002:0000f41c       ??_C@_03FEFJNEK@Sat?$AA@   1005241c     LIBCMT:nlsdata.obj
 0002:0000f420       ??_C@_06OOPIFAJ@Sunday?$AA@ 10052420     LIBCMT:nlsdata.obj
 0002:0000f428       ??_C@_06JLEDEDGH@Monday?$AA@ 10052428     LIBCMT:nlsdata.obj
 0002:0000f430       ??_C@_07BAAGCFCM@Tuesday?$AA@ 10052430     LIBCMT:nlsdata.obj
 0002:0000f438       ??_C@_09DLIGFAKA@Wednesday?$AA@ 10052438     LIBCMT:nlsdata.obj
 0002:0000f444       ??_C@_08HACCIKIA@Thursday?$AA@ 10052444     LIBCMT:nlsdata.obj
 0002:0000f450       ??_C@_06JECMNKMI@Friday?$AA@ 10052450     LIBCMT:nlsdata.obj
 0002:0000f458       ??_C@_08INBOOONO@Saturday?$AA@ 10052458     LIBCMT:nlsdata.obj
 0002:0000f464       ??_C@_03JIHJHPIE@Jan?$AA@  10052464     LIBCMT:nlsdata.obj
 0002:0000f468       ??_C@_03HJBDCHOM@Feb?$AA@  10052468     LIBCMT:nlsdata.obj
 0002:0000f46c       ??_C@_03ODNJBKGA@Mar?$AA@  1005246c     LIBCMT:nlsdata.obj
 0002:0000f470       ??_C@_03LEOLGMJP@Apr?$AA@  10052470     LIBCMT:nlsdata.obj
 0002:0000f474       ??_C@_03CNMDKL@May?$AA@    10052474     LIBCMT:nlsdata.obj
 0002:0000f478       ??_C@_03IDFGHECI@Jun?$AA@  10052478     LIBCMT:nlsdata.obj
 0002:0000f47c       ??_C@_03LBGABGKK@Jul?$AA@  1005247c     LIBCMT:nlsdata.obj
 0002:0000f480       ??_C@_03IFJFEIGA@Aug?$AA@  10052480     LIBCMT:nlsdata.obj
 0002:0000f484       ??_C@_03GGCAPAJC@Sep?$AA@  10052484     LIBCMT:nlsdata.obj
 0002:0000f488       ??_C@_03BMAOKBAD@Oct?$AA@  10052488     LIBCMT:nlsdata.obj
 0002:0000f48c       ??_C@_03JPJOFNIA@Nov?$AA@  1005248c     LIBCMT:nlsdata.obj
 0002:0000f490       ??_C@_03MKABNOCG@Dec?$AA@  10052490     LIBCMT:nlsdata.obj
 0002:0000f494       ??_C@_07CGJPFGJA@January?$AA@ 10052494     LIBCMT:nlsdata.obj
 0002:0000f49c       ??_C@_08GNJGEPFN@February?$AA@ 1005249c     LIBCMT:nlsdata.obj
 0002:0000f4a8       ??_C@_05HPCKOFNC@March?$AA@ 100524a8     LIBCMT:nlsdata.obj
 0002:0000f4b0       ??_C@_05DMJDNLEJ@April?$AA@ 100524b0     LIBCMT:nlsdata.obj
 0002:0000f4b8       ??_C@_04CNLMGBGM@June?$AA@ 100524b8     LIBCMT:nlsdata.obj
 0002:0000f4c0       ??_C@_04MIEPOIFP@July?$AA@ 100524c0     LIBCMT:nlsdata.obj
 0002:0000f4c8       ??_C@_06LBBHFDDG@August?$AA@ 100524c8     LIBCMT:nlsdata.obj
 0002:0000f4d0       ??_C@_09BHHEALKD@September?$AA@ 100524d0     LIBCMT:nlsdata.obj
 0002:0000f4dc       ??_C@_07JJNFCEND@October?$AA@ 100524dc     LIBCMT:nlsdata.obj
 0002:0000f4e4       ??_C@_08HCHEGEOA@November?$AA@ 100524e4     LIBCMT:nlsdata.obj
 0002:0000f4f0       ??_C@_08EDHMEBNP@December?$AA@ 100524f0     LIBCMT:nlsdata.obj
 0002:0000f4fc       ??_C@_02DEDBPAFC@AM?$AA@   100524fc     LIBCMT:nlsdata.obj
 0002:0000f500       ??_C@_02CJNFDJBF@PM?$AA@   10052500     LIBCMT:nlsdata.obj
 0002:0000f504       ??_C@_08BPBNCDIB@MM?1dd?1yy?$AA@ 10052504     LIBCMT:nlsdata.obj
 0002:0000f510       ??_C@_0BE@CKGJFCPC@dddd?0?5MMMM?5dd?0?5yyyy?$AA@ 10052510     LIBCMT:nlsdata.obj
 0002:0000f524       ??_C@_08JCCMCCIL@HH?3mm?3ss?$AA@ 10052524     LIBCMT:nlsdata.obj
 0002:0000f530       ??_C@_17MBGCMIPB@?$AAS?$AAu?$AAn?$AA?$AA@ 10052530     LIBCMT:nlsdata.obj
 0002:0000f538       ??_C@_17KBOMKBF@?$AAM?$AAo?$AAn?$AA?$AA@ 10052538     LIBCMT:nlsdata.obj
 0002:0000f540       ??_C@_17BMKGEGOJ@?$AAT?$AAu?$AAe?$AA?$AA@ 10052540     LIBCMT:nlsdata.obj
 0002:0000f548       ??_C@_17CJEDCEPE@?$AAW?$AAe?$AAd?$AA?$AA@ 10052548     LIBCMT:nlsdata.obj
 0002:0000f550       ??_C@_17PDPHAADD@?$AAT?$AAh?$AAu?$AA?$AA@ 10052550     LIBCMT:nlsdata.obj
 0002:0000f558       ??_C@_17HFOLPPLP@?$AAF?$AAr?$AAi?$AA?$AA@ 10052558     LIBCMT:nlsdata.obj
 0002:0000f560       ??_C@_17GGIBDPIH@?$AAS?$AAa?$AAt?$AA?$AA@ 10052560     LIBCMT:nlsdata.obj
 0002:0000f568       ??_C@_1O@IHNHDHPB@?$AAS?$AAu?$AAn?$AAd?$AAa?$AAy?$AA?$AA@ 10052568     LIBCMT:nlsdata.obj
 0002:0000f578       ??_C@_1O@MMNBFLIA@?$AAM?$AAo?$AAn?$AAd?$AAa?$AAy?$AA?$AA@ 10052578     LIBCMT:nlsdata.obj
 0002:0000f588       ??_C@_1BA@ENFBFFEK@?$AAT?$AAu?$AAe?$AAs?$AAd?$AAa?$AAy?$AA?$AA@ 10052588     LIBCMT:nlsdata.obj
 0002:0000f598       ??_C@_1BE@EBOGMDOH@?$AAW?$AAe?$AAd?$AAn?$AAe?$AAs?$AAd?$AAa?$AAy?$AA?$AA@ 10052598     LIBCMT:nlsdata.obj
 0002:0000f5ac       ??_C@_1BC@HHMNLIHE@?$AAT?$AAh?$AAu?$AAr?$AAs?$AAd?$AAa?$AAy?$AA?$AA@ 100525ac     LIBCMT:nlsdata.obj
 0002:0000f5c0       ??_C@_1O@PDICJHAG@?$AAF?$AAr?$AAi?$AAd?$AAa?$AAy?$AA?$AA@ 100525c0     LIBCMT:nlsdata.obj
 0002:0000f5d0       ??_C@_1BC@ENMNNPAJ@?$AAS?$AAa?$AAt?$AAu?$AAr?$AAd?$AAa?$AAy?$AA?$AA@ 100525d0     LIBCMT:nlsdata.obj
 0002:0000f5e4       ??_C@_17DKNBKCHM@?$AAJ?$AAa?$AAn?$AA?$AA@ 100525e4     LIBCMT:nlsdata.obj
 0002:0000f5ec       ??_C@_17LMDJEKJN@?$AAF?$AAe?$AAb?$AA?$AA@ 100525ec     LIBCMT:nlsdata.obj
 0002:0000f5f4       ??_C@_17CKNLEDEC@?$AAM?$AAa?$AAr?$AA?$AA@ 100525f4     LIBCMT:nlsdata.obj
 0002:0000f5fc       ??_C@_17LFPOIHDD@?$AAA?$AAp?$AAr?$AA?$AA@ 100525fc     LIBCMT:nlsdata.obj
 0002:0000f604       ??_C@_17PNNKMEED@?$AAM?$AAa?$AAy?$AA?$AA@ 10052604     LIBCMT:nlsdata.obj
 0002:0000f60c       ??_C@_17KCJGOCPB@?$AAJ?$AAu?$AAn?$AA?$AA@ 1005260c     LIBCMT:nlsdata.obj
 0002:0000f614       ??_C@_17IJPCKHK@?$AAJ?$AAu?$AAl?$AA?$AA@ 10052614     LIBCMT:nlsdata.obj
 0002:0000f61c       ??_C@_17ICPELBCN@?$AAA?$AAu?$AAg?$AA?$AA@ 1005261c     LIBCMT:nlsdata.obj
 0002:0000f624       ??_C@_17HCHCOKMG@?$AAS?$AAe?$AAp?$AA?$AA@ 10052624     LIBCMT:nlsdata.obj
 0002:0000f62c       ??_C@_17FNLKOI@?$AAO?$AAc?$AAt?$AA?$AA@ 1005262c     LIBCMT:nlsdata.obj
 0002:0000f634       ??_C@_17BBDMLCIG@?$AAN?$AAo?$AAv?$AA?$AA@ 10052634     LIBCMT:nlsdata.obj
 0002:0000f63c       ??_C@_17EGKACKIF@?$AAD?$AAe?$AAc?$AA?$AA@ 1005263c     LIBCMT:nlsdata.obj
 0002:0000f644       ??_C@_1BA@EFMEIEBA@?$AAJ?$AAa?$AAn?$AAu?$AAa?$AAr?$AAy?$AA?$AA@ 10052644     LIBCMT:nlsdata.obj
 0002:0000f654       ??_C@_1BC@JGDDFFAM@?$AAF?$AAe?$AAb?$AAr?$AAu?$AAa?$AAr?$AAy?$AA?$AA@ 10052654     LIBCMT:nlsdata.obj
 0002:0000f668       ??_C@_1M@IKEENEDF@?$AAM?$AAa?$AAr?$AAc?$AAh?$AA?$AA@ 10052668     LIBCMT:nlsdata.obj
 0002:0000f674       ??_C@_1M@GJNLMHFD@?$AAA?$AAp?$AAr?$AAi?$AAl?$AA?$AA@ 10052674     LIBCMT:nlsdata.obj
 0002:0000f680       ??_C@_19EPFLPGAP@?$AAJ?$AAu?$AAn?$AAe?$AA?$AA@ 10052680     LIBCMT:nlsdata.obj
 0002:0000f68c       ??_C@_19BIFMLPCD@?$AAJ?$AAu?$AAl?$AAy?$AA?$AA@ 1005268c     LIBCMT:nlsdata.obj
 0002:0000f698       ??_C@_1O@PAHLKOAC@?$AAA?$AAu?$AAg?$AAu?$AAs?$AAt?$AA?$AA@ 10052698     LIBCMT:nlsdata.obj
 0002:0000f6a8       ??_C@_1BE@DKAAMBJL@?$AAS?$AAe?$AAp?$AAt?$AAe?$AAm?$AAb?$AAe?$AAr?$AA?$AA@ 100526a8     LIBCMT:nlsdata.obj
 0002:0000f6bc       ??_C@_1BA@EPANDLNG@?$AAO?$AAc?$AAt?$AAo?$AAb?$AAe?$AAr?$AA?$AA@ 100526bc     LIBCMT:nlsdata.obj
 0002:0000f6cc       ??_C@_1BC@BGLIFPF@?$AAN?$AAo?$AAv?$AAe?$AAm?$AAb?$AAe?$AAr?$AA?$AA@ 100526cc     LIBCMT:nlsdata.obj
 0002:0000f6e0       ??_C@_1BC@FEMKIFH@?$AAD?$AAe?$AAc?$AAe?$AAm?$AAb?$AAe?$AAr?$AA?$AA@ 100526e0     LIBCMT:nlsdata.obj
 0002:0000f6f4       ??_C@_15ODEHAHHF@?$AAA?$AAM?$AA?$AA@ 100526f4     LIBCMT:nlsdata.obj
 0002:0000f6fc       ??_C@_15CLMNNGEL@?$AAP?$AAM?$AA?$AA@ 100526fc     LIBCMT:nlsdata.obj
 0002:0000f704       ??_C@_1BC@IEBCMHCM@?$AAM?$AAM?$AA?1?$AAd?$AAd?$AA?1?$AAy?$AAy?$AA?$AA@ 10052704     LIBCMT:nlsdata.obj
 0002:0000f718       ??_C@_1CI@KNAKOEBC@?$AAd?$AAd?$AAd?$AAd?$AA?0?$AA?5?$AAM?$AAM?$AAM?$AAM?$AA?5?$AAd?$AAd?$AA?0?$AA?5?$AAy?$AAy?$AAy?$AAy?$AA?$AA@ 10052718     LIBCMT:nlsdata.obj
 0002:0000f740       ??_C@_1BC@GDGBMEMK@?$AAH?$AAH?$AA?3?$AAm?$AAm?$AA?3?$AAs?$AAs?$AA?$AA@ 10052740     LIBCMT:nlsdata.obj
 0002:0000f754       ??_C@_1M@BMHNFIME@?$AAe?$AAn?$AA?9?$AAU?$AAS?$AA?$AA@ 10052754     LIBCMT:nlsdata.obj
 0002:0000f760       _LcidToLocaleNameTable     10052760     LIBCMT:winapinls.obj
 0002:0000fe80       _LocaleNameToIndexTable    10052e80     LIBCMT:winapinls.obj
 0002:000105a0       ??_C@_15EMKDOKLE@?$AAa?$AAr?$AA?$AA@ 100535a0     LIBCMT:winapinls.obj
 0002:000105a8       ??_C@_15KNPADPLH@?$AAb?$AAg?$AA?$AA@ 100535a8     LIBCMT:winapinls.obj
 0002:000105b0       ??_C@_15EDMHLDMO@?$AAc?$AAa?$AA?$AA@ 100535b0     LIBCMT:winapinls.obj
 0002:000105b8       ??_C@_1O@BPEAJADD@?$AAz?$AAh?$AA?9?$AAC?$AAH?$AAS?$AA?$AA@ 100535b8     LIBCMT:winapinls.obj
 0002:000105c8       ??_C@_15LJNHCMNK@?$AAc?$AAs?$AA?$AA@ 100535c8     LIBCMT:winapinls.obj
 0002:000105d0       ??_C@_15FOMCIDHG@?$AAd?$AAa?$AA?$AA@ 100535d0     LIBCMT:winapinls.obj
 0002:000105d8       ??_C@_15NBKABECB@?$AAd?$AAe?$AA?$AA@ 100535d8     LIBCMT:winapinls.obj
 0002:000105e0       ??_C@_15GHPEIIAO@?$AAe?$AAl?$AA?$AA@ 100535e0     LIBCMT:winapinls.obj
 0002:000105e8       ??_C@_15MNPNEAIF@?$AAe?$AAn?$AA?$AA@ 100535e8     LIBCMT:winapinls.obj
 0002:000105f0       ??_C@_15GPIOMPMH@?$AAe?$AAs?$AA?$AA@ 100535f0     LIBCMT:winapinls.obj
 0002:000105f8       ??_C@_15NGLOAKJC@?$AAf?$AAi?$AA?$AA@ 100535f8     LIBCMT:winapinls.obj
 0002:00010600       ??_C@_15FBKGNKAM@?$AAf?$AAr?$AA?$AA@ 10053600     LIBCMT:winapinls.obj
 0002:00010608       ??_C@_15KGGCNEFK@?$AAh?$AAe?$AA?$AA@ 10053608     LIBCMT:winapinls.obj
 0002:00010610       ??_C@_15PGHLIDMF@?$AAh?$AAu?$AA?$AA@ 10053610     LIBCMT:winapinls.obj
 0002:00010618       ??_C@_15BIEMAPLM@?$AAi?$AAs?$AA?$AA@ 10053618     LIBCMT:winapinls.obj
 0002:00010620       ??_C@_15IFJLDHAF@?$AAi?$AAt?$AA?$AA@ 10053620     LIBCMT:winapinls.obj
 0002:00010628       ??_C@_15GEMIOCAG@?$AAj?$AAa?$AA?$AA@ 10053628     LIBCMT:winapinls.obj
 0002:00010630       ??_C@_15EPELEGJA@?$AAk?$AAo?$AA?$AA@ 10053630     LIBCMT:winapinls.obj
 0002:00010638       ??_C@_15NDDHIMN@?$AAn?$AAl?$AA?$AA@ 10053638     LIBCMT:winapinls.obj
 0002:00010640       ??_C@_15BPIGNHCD@?$AAn?$AAo?$AA?$AA@ 10053640     LIBCMT:winapinls.obj
 0002:00010648       ??_C@_15DEOPBLCG@?$AAp?$AAl?$AA?$AA@ 10053648     LIBCMT:winapinls.obj
 0002:00010650       ??_C@_15KBECGEFG@?$AAp?$AAt?$AA?$AA@ 10053650     LIBCMT:winapinls.obj
 0002:00010658       ??_C@_15GLJCBFMD@?$AAr?$AAo?$AA?$AA@ 10053658     LIBCMT:winapinls.obj
 0002:00010660       ??_C@_15FEDGKCDI@?$AAr?$AAu?$AA?$AA@ 10053660     LIBCMT:winapinls.obj
 0002:00010668       ??_C@_15GLKMLLHM@?$AAh?$AAr?$AA?$AA@ 10053668     LIBCMT:winapinls.obj
 0002:00010670       ??_C@_15CPKMFBDB@?$AAs?$AAk?$AA?$AA@ 10053670     LIBCMT:winapinls.obj
 0002:00010678       ??_C@_15BAAIOGMK@?$AAs?$AAq?$AA?$AA@ 10053678     LIBCMT:winapinls.obj
 0002:00010680       ??_C@_15INNPNOHD@?$AAs?$AAv?$AA?$AA@ 10053680     LIBCMT:winapinls.obj
 0002:00010688       ??_C@_15CABMMOGH@?$AAt?$AAh?$AA?$AA@ 10053688     LIBCMT:winapinls.obj
 0002:00010690       ??_C@_15BPLIHJJM@?$AAt?$AAr?$AA?$AA@ 10053690     LIBCMT:winapinls.obj
 0002:00010698       ??_C@_15NEOEKKDJ@?$AAu?$AAr?$AA?$AA@ 10053698     LIBCMT:winapinls.obj
 0002:000106a0       ??_C@_15NFICGAJK@?$AAi?$AAd?$AA?$AA@ 100536a0     LIBCMT:winapinls.obj
 0002:000106a8       ??_C@_15PJPFLCCM@?$AAu?$AAk?$AA?$AA@ 100536a8     LIBCMT:winapinls.obj
 0002:000106b0       ??_C@_15HPJPHDM@?$AAb?$AAe?$AA?$AA@ 100536b0     LIBCMT:winapinls.obj
 0002:000106b8       ??_C@_15LCHLGJII@?$AAs?$AAl?$AA?$AA@ 100536b8     LIBCMT:winapinls.obj
 0002:000106c0       ??_C@_15PCFJPHHO@?$AAe?$AAt?$AA?$AA@ 100536c0     LIBCMT:winapinls.obj
 0002:000106c8       ??_C@_15HPFPGODN@?$AAl?$AAv?$AA?$AA@ 100536c8     LIBCMT:winapinls.obj
 0002:000106d0       ??_C@_15NFFGKGLG@?$AAl?$AAt?$AA?$AA@ 100536d0     LIBCMT:winapinls.obj
 0002:000106d8       ??_C@_15BDAKCCHN@?$AAf?$AAa?$AA?$AA@ 100536d8     LIBCMT:winapinls.obj
 0002:000106e0       ??_C@_15NFGIAIAJ@?$AAv?$AAi?$AA?$AA@ 100536e0     LIBCMT:winapinls.obj
 0002:000106e8       ??_C@_15LMKNDMHN@?$AAh?$AAy?$AA?$AA@ 100536e8     LIBCMT:winapinls.obj
 0002:000106f0       ??_C@_15IJBHMCFL@?$AAa?$AAz?$AA?$AA@ 100536f0     LIBCMT:winapinls.obj
 0002:000106f8       ??_C@_15EKOFJABL@?$AAe?$AAu?$AA?$AA@ 100536f8     LIBCMT:winapinls.obj
 0002:00010700       ??_C@_15BGHADCNK@?$AAm?$AAk?$AA?$AA@ 10053700     LIBCMT:winapinls.obj
 0002:00010708       ??_C@_15JDNICKHM@?$AAa?$AAf?$AA?$AA@ 10053708     LIBCMT:winapinls.obj
 0002:00010710       ??_C@_15KPJEDBKD@?$AAk?$AAa?$AA?$AA@ 10053710     LIBCMT:winapinls.obj
 0002:00010718       ??_C@_15PDNFFFEO@?$AAf?$AAo?$AA?$AA@ 10053718     LIBCMT:winapinls.obj
 0002:00010720       ??_C@_15OMLEGLOC@?$AAh?$AAi?$AA?$AA@ 10053720     LIBCMT:winapinls.obj
 0002:00010728       ??_C@_15IDNNENKK@?$AAm?$AAs?$AA?$AA@ 10053728     LIBCMT:winapinls.obj
 0002:00010730       ??_C@_15MACJNBMH@?$AAk?$AAk?$AA?$AA@ 10053730     LIBCMT:winapinls.obj
 0002:00010738       ??_C@_15DKDJEOND@?$AAk?$AAy?$AA?$AA@ 10053738     LIBCMT:winapinls.obj
 0002:00010740       ??_C@_15DFGDLJBG@?$AAs?$AAw?$AA?$AA@ 10053740     LIBCMT:winapinls.obj
 0002:00010748       ??_C@_15BBFAICNG@?$AAu?$AAz?$AA?$AA@ 10053748     LIBCMT:winapinls.obj
 0002:00010750       ??_C@_15DKNDCGEA@?$AAt?$AAt?$AA?$AA@ 10053750     LIBCMT:winapinls.obj
 0002:00010758       ??_C@_15MGIFMDPL@?$AAp?$AAa?$AA?$AA@ 10053758     LIBCMT:winapinls.obj
 0002:00010760       ??_C@_15HCNDBBA@?$AAg?$AAu?$AA?$AA@ 10053760     LIBCMT:winapinls.obj
 0002:00010768       ??_C@_15FNBEIBON@?$AAt?$AAa?$AA?$AA@ 10053768     LIBCMT:winapinls.obj
 0002:00010770       ??_C@_15NCHGBGLK@?$AAt?$AAe?$AA?$AA@ 10053770     LIBCMT:winapinls.obj
 0002:00010778       ??_C@_15PHPHCBPF@?$AAk?$AAn?$AA?$AA@ 10053778     LIBCMT:winapinls.obj
 0002:00010780       ??_C@_15DLGBCKMP@?$AAm?$AAr?$AA?$AA@ 10053780     LIBCMT:winapinls.obj
 0002:00010788       ??_C@_15EABBLBFF@?$AAs?$AAa?$AA?$AA@ 10053788     LIBCMT:winapinls.obj
 0002:00010790       ??_C@_15CBKOMCOI@?$AAm?$AAn?$AA?$AA@ 10053790     LIBCMT:winapinls.obj
 0002:00010798       ??_C@_15CKDMCJAF@?$AAg?$AAl?$AA?$AA@ 10053798     LIBCMT:winapinls.obj
 0002:000107a0       ??_C@_17CNJFBPG@?$AAk?$AAo?$AAk?$AA?$AA@ 100537a0     LIBCMT:winapinls.obj
 0002:000107a8       ??_C@_17FFBJICPL@?$AAs?$AAy?$AAr?$AA?$AA@ 100537a8     LIBCMT:winapinls.obj
 0002:000107b0       ??_C@_17KPNDCPAF@?$AAd?$AAi?$AAv?$AA?$AA@ 100537b0     LIBCMT:winapinls.obj
 0002:000107b8       ??_C@_11LOCGONAA@?$AA?$AA@ 100537b8     LIBCMT:winapinls.obj
 0002:000107bc       ??_C@_1M@OKAHONE@?$AAa?$AAr?$AA?9?$AAS?$AAA?$AA?$AA@ 100537bc     LIBCMT:winapinls.obj
 0002:000107c8       ??_C@_1M@FFFIGIGK@?$AAb?$AAg?$AA?9?$AAB?$AAG?$AA?$AA@ 100537c8     LIBCMT:winapinls.obj
 0002:000107d4       ??_C@_1M@BJNKEDC@?$AAc?$AAa?$AA?9?$AAE?$AAS?$AA?$AA@ 100537d4     LIBCMT:winapinls.obj
 0002:000107e0       ??_C@_1M@IJJHFJHA@?$AAc?$AAs?$AA?9?$AAC?$AAZ?$AA?$AA@ 100537e0     LIBCMT:winapinls.obj
 0002:000107ec       ??_C@_1M@CLPEOBGI@?$AAd?$AAa?$AA?9?$AAD?$AAK?$AA?$AA@ 100537ec     LIBCMT:winapinls.obj
 0002:000107f8       ??_C@_1M@MCMADGCB@?$AAd?$AAe?$AA?9?$AAD?$AAE?$AA?$AA@ 100537f8     LIBCMT:winapinls.obj
 0002:00010804       ??_C@_1M@OOCKEMAM@?$AAe?$AAl?$AA?9?$AAG?$AAR?$AA?$AA@ 10053804     LIBCMT:winapinls.obj
 0002:00010810       ??_C@_1M@DDNJFGID@?$AAf?$AAi?$AA?9?$AAF?$AAI?$AA?$AA@ 10053810     LIBCMT:winapinls.obj
 0002:0001081c       ??_C@_1M@GLIPPMAC@?$AAf?$AAr?$AA?9?$AAF?$AAR?$AA?$AA@ 1005381c     LIBCMT:winapinls.obj
 0002:00010828       ??_C@_1M@GFMCHPE@?$AAh?$AAe?$AA?9?$AAI?$AAL?$AA?$AA@ 10053828     LIBCMT:winapinls.obj
 0002:00010834       ??_C@_1M@MHLPGNKM@?$AAh?$AAu?$AA?9?$AAH?$AAU?$AA?$AA@ 10053834     LIBCMT:winapinls.obj
 0002:00010840       ??_C@_1M@LPDDNNPN@?$AAi?$AAs?$AA?9?$AAI?$AAS?$AA?$AA@ 10053840     LIBCMT:winapinls.obj
 0002:0001084c       ??_C@_1M@MADIPODN@?$AAi?$AAt?$AA?9?$AAI?$AAT?$AA?$AA@ 1005384c     LIBCMT:winapinls.obj
 0002:00010858       ??_C@_1M@IHBJJGG@?$AAn?$AAl?$AA?9?$AAN?$AAL?$AA?$AA@ 10053858     LIBCMT:winapinls.obj
 0002:00010864       ??_C@_1M@EANAGDL@?$AAn?$AAb?$AA?9?$AAN?$AAO?$AA?$AA@ 10053864     LIBCMT:winapinls.obj
 0002:00010870       ??_C@_1M@NEIEMEGP@?$AAp?$AAl?$AA?9?$AAP?$AAL?$AA?$AA@ 10053870     LIBCMT:winapinls.obj
 0002:0001087c       ??_C@_1M@BOCFIGEP@?$AAp?$AAt?$AA?9?$AAB?$AAR?$AA?$AA@ 1005387c     LIBCMT:winapinls.obj
 0002:00010888       ??_C@_1M@IMPFOPBG@?$AAr?$AAo?$AA?9?$AAR?$AAO?$AA?$AA@ 10053888     LIBCMT:winapinls.obj
 0002:00010894       ??_C@_1M@IDNNEJMM@?$AAr?$AAu?$AA?9?$AAR?$AAU?$AA?$AA@ 10053894     LIBCMT:winapinls.obj
 0002:000108a0       ??_C@_1M@LILEEOGM@?$AAh?$AAr?$AA?9?$AAH?$AAR?$AA?$AA@ 100538a0     LIBCMT:winapinls.obj
 0002:000108ac       ??_C@_1M@FKIFEHPB@?$AAs?$AAk?$AA?9?$AAS?$AAK?$AA?$AA@ 100538ac     LIBCMT:winapinls.obj
 0002:000108b8       ??_C@_1M@LJMAMNPJ@?$AAs?$AAq?$AA?9?$AAA?$AAL?$AA?$AA@ 100538b8     LIBCMT:winapinls.obj
 0002:000108c4       ??_C@_1M@GIAKDKJK@?$AAs?$AAv?$AA?9?$AAS?$AAE?$AA?$AA@ 100538c4     LIBCMT:winapinls.obj
 0002:000108d0       ??_C@_1M@MKJKIKCL@?$AAt?$AAh?$AA?9?$AAT?$AAH?$AA?$AA@ 100538d0     LIBCMT:winapinls.obj
 0002:000108dc       ??_C@_1M@MFLCCMPB@?$AAt?$AAr?$AA?9?$AAT?$AAR?$AA?$AA@ 100538dc     LIBCMT:winapinls.obj
 0002:000108e8       ??_C@_1M@OIJHDKJN@?$AAu?$AAr?$AA?9?$AAP?$AAK?$AA?$AA@ 100538e8     LIBCMT:winapinls.obj
 0002:000108f4       ??_C@_1M@LHIPCIEK@?$AAi?$AAd?$AA?9?$AAI?$AAD?$AA?$AA@ 100538f4     LIBCMT:winapinls.obj
 0002:00010900       ??_C@_1M@MFMOBGI@?$AAu?$AAk?$AA?9?$AAU?$AAA?$AA?$AA@ 10053900     LIBCMT:winapinls.obj
 0002:0001090c       ??_C@_1M@OBGLJIPL@?$AAb?$AAe?$AA?9?$AAB?$AAY?$AA?$AA@ 1005390c     LIBCMT:winapinls.obj
 0002:00010918       ??_C@_1M@BCFAJEAD@?$AAs?$AAl?$AA?9?$AAS?$AAI?$AA?$AA@ 10053918     LIBCMT:winapinls.obj
 0002:00010924       ??_C@_1M@FKFFEDDN@?$AAe?$AAt?$AA?9?$AAE?$AAE?$AA?$AA@ 10053924     LIBCMT:winapinls.obj
 0002:00010930       ??_C@_1M@KGKKAACI@?$AAl?$AAv?$AA?9?$AAL?$AAV?$AA?$AA@ 10053930     LIBCMT:winapinls.obj
 0002:0001093c       ??_C@_1M@IFGBIJO@?$AAl?$AAt?$AA?9?$AAL?$AAT?$AA?$AA@ 1005393c     LIBCMT:winapinls.obj
 0002:00010948       ??_C@_1M@FGEAHEDM@?$AAf?$AAa?$AA?9?$AAI?$AAR?$AA?$AA@ 10053948     LIBCMT:winapinls.obj
 0002:00010954       ??_C@_1M@KBMAIBFN@?$AAv?$AAi?$AA?9?$AAV?$AAN?$AA?$AA@ 10053954     LIBCMT:winapinls.obj
 0002:00010960       ??_C@_1M@GPCBKDJK@?$AAh?$AAy?$AA?9?$AAA?$AAM?$AA?$AA@ 10053960     LIBCMT:winapinls.obj
 0002:0001096c       ??_C@_1BG@BECMDDJB@?$AAa?$AAz?$AA?9?$AAA?$AAZ?$AA?9?$AAL?$AAa?$AAt?$AAn?$AA?$AA@ 1005396c     LIBCMT:winapinls.obj
 0002:00010984       ??_C@_1M@MAOFCAEA@?$AAe?$AAu?$AA?9?$AAE?$AAS?$AA?$AA@ 10053984     LIBCMT:winapinls.obj
 0002:00010990       ??_C@_1M@IGHABKPI@?$AAm?$AAk?$AA?9?$AAM?$AAK?$AA?$AA@ 10053990     LIBCMT:winapinls.obj
 0002:0001099c       ??_C@_1M@IAIGNEJG@?$AAt?$AAn?$AA?9?$AAZ?$AAA?$AA?$AA@ 1005399c     LIBCMT:winapinls.obj
 0002:000109a8       ??_C@_1M@IIJCOJFA@?$AAx?$AAh?$AA?9?$AAZ?$AAA?$AA?$AA@ 100539a8     LIBCMT:winapinls.obj
 0002:000109b4       ??_C@_1M@LGPJHNJH@?$AAz?$AAu?$AA?9?$AAZ?$AAA?$AA?$AA@ 100539b4     LIBCMT:winapinls.obj
 0002:000109c0       ??_C@_1M@HOKAOIO@?$AAa?$AAf?$AA?9?$AAZ?$AAA?$AA?$AA@ 100539c0     LIBCMT:winapinls.obj
 0002:000109cc       ??_C@_1M@DPCLHLIE@?$AAk?$AAa?$AA?9?$AAG?$AAE?$AA?$AA@ 100539cc     LIBCMT:winapinls.obj
 0002:000109d8       ??_C@_1M@BLKMHJBI@?$AAf?$AAo?$AA?9?$AAF?$AAO?$AA?$AA@ 100539d8     LIBCMT:winapinls.obj
 0002:000109e4       ??_C@_1M@LGGJAPPB@?$AAh?$AAi?$AA?9?$AAI?$AAN?$AA?$AA@ 100539e4     LIBCMT:winapinls.obj
 0002:000109f0       ??_C@_1M@FIKPIHFE@?$AAm?$AAt?$AA?9?$AAM?$AAT?$AA?$AA@ 100539f0     LIBCMT:winapinls.obj
 0002:000109fc       ??_C@_1M@HEGGPBFA@?$AAs?$AAe?$AA?9?$AAN?$AAO?$AA?$AA@ 100539fc     LIBCMT:winapinls.obj
 0002:00010a08       ??_C@_1M@EIBJEEPA@?$AAm?$AAs?$AA?9?$AAM?$AAY?$AA?$AA@ 10053a08     LIBCMT:winapinls.obj
 0002:00010a14       ??_C@_1M@FHLBGMPP@?$AAk?$AAk?$AA?9?$AAK?$AAZ?$AA?$AA@ 10053a14     LIBCMT:winapinls.obj
 0002:00010a20       ??_C@_1M@NGJJLCGI@?$AAk?$AAy?$AA?9?$AAK?$AAG?$AA?$AA@ 10053a20     LIBCMT:winapinls.obj
 0002:00010a2c       ??_C@_1M@GIENNBFC@?$AAs?$AAw?$AA?9?$AAK?$AAE?$AA?$AA@ 10053a2c     LIBCMT:winapinls.obj
 0002:00010a38       ??_C@_1BG@NDGMJIMJ@?$AAu?$AAz?$AA?9?$AAU?$AAZ?$AA?9?$AAL?$AAa?$AAt?$AAn?$AA?$AA@ 10053a38     LIBCMT:winapinls.obj
 0002:00010a50       ??_C@_1M@IDCCIHBC@?$AAt?$AAt?$AA?9?$AAR?$AAU?$AA?$AA@ 10053a50     LIBCMT:winapinls.obj
 0002:00010a5c       ??_C@_1M@LOICPMOJ@?$AAb?$AAn?$AA?9?$AAI?$AAN?$AA?$AA@ 10053a5c     LIBCMT:winapinls.obj
 0002:00010a68       ??_C@_1M@KPKKNEAH@?$AAp?$AAa?$AA?9?$AAI?$AAN?$AA?$AA@ 10053a68     LIBCMT:winapinls.obj
 0002:00010a74       ??_C@_1M@PJGPPBOG@?$AAg?$AAu?$AA?9?$AAI?$AAN?$AA?$AA@ 10053a74     LIBCMT:winapinls.obj
 0002:00010a80       ??_C@_1M@KMKMOPHI@?$AAt?$AAa?$AA?9?$AAI?$AAN?$AA?$AA@ 10053a80     LIBCMT:winapinls.obj
 0002:00010a8c       ??_C@_1M@KFEHEPAC@?$AAt?$AAe?$AA?9?$AAI?$AAN?$AA?$AA@ 10053a8c     LIBCMT:winapinls.obj
 0002:00010a98       ??_C@_1M@CDCLMGHI@?$AAk?$AAn?$AA?9?$AAI?$AAN?$AA?$AA@ 10053a98     LIBCMT:winapinls.obj
 0002:00010aa4       ??_C@_1M@MIODLDKF@?$AAm?$AAl?$AA?9?$AAI?$AAN?$AA?$AA@ 10053aa4     LIBCMT:winapinls.obj
 0002:00010ab0       ??_C@_1M@PBIEACPO@?$AAm?$AAr?$AA?9?$AAI?$AAN?$AA?$AA@ 10053ab0     LIBCMT:winapinls.obj
 0002:00010abc       ??_C@_1M@NIDEAGPH@?$AAs?$AAa?$AA?9?$AAI?$AAN?$AA?$AA@ 10053abc     LIBCMT:winapinls.obj
 0002:00010ac8       ??_C@_1M@FHIHCBIO@?$AAm?$AAn?$AA?9?$AAM?$AAN?$AA?$AA@ 10053ac8     LIBCMT:winapinls.obj
 0002:00010ad4       ??_C@_1M@JAIJPENP@?$AAc?$AAy?$AA?9?$AAG?$AAB?$AA?$AA@ 10053ad4     LIBCMT:winapinls.obj
 0002:00010ae0       ??_C@_1M@PHGFBEPN@?$AAg?$AAl?$AA?9?$AAE?$AAS?$AA?$AA@ 10053ae0     LIBCMT:winapinls.obj
 0002:00010aec       ??_C@_1O@KPIPDNCP@?$AAk?$AAo?$AAk?$AA?9?$AAI?$AAN?$AA?$AA@ 10053aec     LIBCMT:winapinls.obj
 0002:00010afc       ??_C@_1O@KNHJLDJA@?$AAs?$AAy?$AAr?$AA?9?$AAS?$AAY?$AA?$AA@ 10053afc     LIBCMT:winapinls.obj
 0002:00010b0c       ??_C@_1O@MKEKBLAH@?$AAd?$AAi?$AAv?$AA?9?$AAM?$AAV?$AA?$AA@ 10053b0c     LIBCMT:winapinls.obj
 0002:00010b1c       ??_C@_1O@OHDCKDDF@?$AAq?$AAu?$AAz?$AA?9?$AAB?$AAO?$AA?$AA@ 10053b1c     LIBCMT:winapinls.obj
 0002:00010b2c       ??_C@_1M@LEPJNLFD@?$AAn?$AAs?$AA?9?$AAZ?$AAA?$AA?$AA@ 10053b2c     LIBCMT:winapinls.obj
 0002:00010b38       ??_C@_1M@OMLEIIJB@?$AAm?$AAi?$AA?9?$AAN?$AAZ?$AA?$AA@ 10053b38     LIBCMT:winapinls.obj
 0002:00010b44       ??_C@_1M@PMPEAILG@?$AAa?$AAr?$AA?9?$AAI?$AAQ?$AA?$AA@ 10053b44     LIBCMT:winapinls.obj
 0002:00010b50       ??_C@_1M@CNKPNOEE@?$AAd?$AAe?$AA?9?$AAC?$AAH?$AA?$AA@ 10053b50     LIBCMT:winapinls.obj
 0002:00010b5c       ??_C@_1M@LKMGMLKO@?$AAe?$AAn?$AA?9?$AAG?$AAB?$AA?$AA@ 10053b5c     LIBCMT:winapinls.obj
 0002:00010b68       ??_C@_1M@PGKJFFGL@?$AAe?$AAs?$AA?9?$AAM?$AAX?$AA?$AA@ 10053b68     LIBCMT:winapinls.obj
 0002:00010b74       ??_C@_1M@DNNANBDC@?$AAf?$AAr?$AA?9?$AAB?$AAE?$AA?$AA@ 10053b74     LIBCMT:winapinls.obj
 0002:00010b80       ??_C@_1M@HLGMDFHM@?$AAi?$AAt?$AA?9?$AAC?$AAH?$AA?$AA@ 10053b80     LIBCMT:winapinls.obj
 0002:00010b8c       ??_C@_1M@CLLBGJH@?$AAn?$AAl?$AA?9?$AAB?$AAE?$AA?$AA@ 10053b8c     LIBCMT:winapinls.obj
 0002:00010b98       ??_C@_1M@BODBOGLF@?$AAn?$AAn?$AA?9?$AAN?$AAO?$AA?$AA@ 10053b98     LIBCMT:winapinls.obj
 0002:00010ba4       ??_C@_1M@HFFAHKAD@?$AAp?$AAt?$AA?9?$AAP?$AAT?$AA?$AA@ 10053ba4     LIBCMT:winapinls.obj
 0002:00010bb0       ??_C@_1BG@LNOAKHIE@?$AAs?$AAr?$AA?9?$AAS?$AAP?$AA?9?$AAL?$AAa?$AAt?$AAn?$AA?$AA@ 10053bb0     LIBCMT:winapinls.obj
 0002:00010bc8       ??_C@_1M@HBMHBGAK@?$AAs?$AAv?$AA?9?$AAF?$AAI?$AA?$AA@ 10053bc8     LIBCMT:winapinls.obj
 0002:00010bd4       ??_C@_1BG@DGCJGJBE@?$AAa?$AAz?$AA?9?$AAA?$AAZ?$AA?9?$AAC?$AAy?$AAr?$AAl?$AA?$AA@ 10053bd4     LIBCMT:winapinls.obj
 0002:00010bec       ??_C@_1M@KEJDAAHB@?$AAs?$AAe?$AA?9?$AAS?$AAE?$AA?$AA@ 10053bec     LIBCMT:winapinls.obj
 0002:00010bf8       ??_C@_1M@HEIBJJAD@?$AAm?$AAs?$AA?9?$AAB?$AAN?$AA?$AA@ 10053bf8     LIBCMT:winapinls.obj
 0002:00010c04       ??_C@_1BG@PBGJMCEM@?$AAu?$AAz?$AA?9?$AAU?$AAZ?$AA?9?$AAC?$AAy?$AAr?$AAl?$AA?$AA@ 10053c04     LIBCMT:winapinls.obj
 0002:00010c1c       ??_C@_1O@LAOBCMDF@?$AAq?$AAu?$AAz?$AA?9?$AAE?$AAC?$AA?$AA@ 10053c1c     LIBCMT:winapinls.obj
 0002:00010c2c       ??_C@_1M@POEEMAIO@?$AAa?$AAr?$AA?9?$AAE?$AAG?$AA?$AA@ 10053c2c     LIBCMT:winapinls.obj
 0002:00010c38       ??_C@_1M@EFAKDEDL@?$AAz?$AAh?$AA?9?$AAH?$AAK?$AA?$AA@ 10053c38     LIBCMT:winapinls.obj
 0002:00010c44       ??_C@_1M@HKKIJHGI@?$AAd?$AAe?$AA?9?$AAA?$AAT?$AA?$AA@ 10053c44     LIBCMT:winapinls.obj
 0002:00010c50       ??_C@_1M@KBFBEHJF@?$AAe?$AAn?$AA?9?$AAA?$AAU?$AA?$AA@ 10053c50     LIBCMT:winapinls.obj
 0002:00010c5c       ??_C@_1M@MNPLFAAH@?$AAe?$AAs?$AA?9?$AAE?$AAS?$AA?$AA@ 10053c5c     LIBCMT:winapinls.obj
 0002:00010c68       ??_C@_1M@HJOOJFMA@?$AAf?$AAr?$AA?9?$AAC?$AAA?$AA?$AA@ 10053c68     LIBCMT:winapinls.obj
 0002:00010c74       ??_C@_1BG@JPOFPNAB@?$AAs?$AAr?$AA?9?$AAS?$AAP?$AA?9?$AAC?$AAy?$AAr?$AAl?$AA?$AA@ 10053c74     LIBCMT:winapinls.obj
 0002:00010c8c       ??_C@_1M@LNFOCMOB@?$AAs?$AAe?$AA?9?$AAF?$AAI?$AA?$AA@ 10053c8c     LIBCMT:winapinls.obj
 0002:00010c98       ??_C@_1O@MGJBOAMB@?$AAq?$AAu?$AAz?$AA?9?$AAP?$AAE?$AA?$AA@ 10053c98     LIBCMT:winapinls.obj
 0002:00010ca8       ??_C@_1M@GJINLBOK@?$AAa?$AAr?$AA?9?$AAL?$AAY?$AA?$AA@ 10053ca8     LIBCMT:winapinls.obj
 0002:00010cb4       ??_C@_1M@GGMNHJNL@?$AAz?$AAh?$AA?9?$AAS?$AAG?$AA?$AA@ 10053cb4     LIBCMT:winapinls.obj
 0002:00010cc0       ??_C@_1M@HOIKODND@?$AAd?$AAe?$AA?9?$AAL?$AAU?$AA?$AA@ 10053cc0     LIBCMT:winapinls.obj
 0002:00010ccc       ??_C@_1M@DDOCCGFG@?$AAe?$AAn?$AA?9?$AAC?$AAA?$AA?$AA@ 10053ccc     LIBCMT:winapinls.obj
 0002:00010cd8       ??_C@_1M@BNOEMJLF@?$AAe?$AAs?$AA?9?$AAG?$AAT?$AA?$AA@ 10053cd8     LIBCMT:winapinls.obj
 0002:00010ce4       ??_C@_1M@EOGNKEK@?$AAf?$AAr?$AA?9?$AAC?$AAH?$AA?$AA@ 10053ce4     LIBCMT:winapinls.obj
 0002:00010cf0       ??_C@_1M@FLIDJFHL@?$AAh?$AAr?$AA?9?$AAB?$AAA?$AA?$AA@ 10053cf0     LIBCMT:winapinls.obj
 0002:00010cfc       ??_C@_1O@FMCELNAJ@?$AAs?$AAm?$AAj?$AA?9?$AAN?$AAO?$AA?$AA@ 10053cfc     LIBCMT:winapinls.obj
 0002:00010d0c       ??_C@_1M@JHGLJMGJ@?$AAa?$AAr?$AA?9?$AAD?$AAZ?$AA?$AA@ 10053d0c     LIBCMT:winapinls.obj
 0002:00010d18       ??_C@_1M@JKKFDCNP@?$AAz?$AAh?$AA?9?$AAM?$AAO?$AA?$AA@ 10053d18     LIBCMT:winapinls.obj
 0002:00010d24       ??_C@_1M@GEEFALPE@?$AAd?$AAe?$AA?9?$AAL?$AAI?$AA?$AA@ 10053d24     LIBCMT:winapinls.obj
 0002:00010d30       ??_C@_1M@IGEOFBG@?$AAe?$AAn?$AA?9?$AAN?$AAZ?$AA?$AA@ 10053d30     LIBCMT:winapinls.obj
 0002:00010d3c       ??_C@_1M@KDBONEHP@?$AAe?$AAs?$AA?9?$AAC?$AAR?$AA?$AA@ 10053d3c     LIBCMT:winapinls.obj
 0002:00010d48       ??_C@_1M@FHMDOHNN@?$AAf?$AAr?$AA?9?$AAL?$AAU?$AA?$AA@ 10053d48     LIBCMT:winapinls.obj
 0002:00010d54       ??_C@_1BG@NFKKMAFG@?$AAb?$AAs?$AA?9?$AAB?$AAA?$AA?9?$AAL?$AAa?$AAt?$AAn?$AA?$AA@ 10053d54     LIBCMT:winapinls.obj
 0002:00010d6c       ??_C@_1O@IMNBEMCI@?$AAs?$AAm?$AAj?$AA?9?$AAS?$AAE?$AA?$AA@ 10053d6c     LIBCMT:winapinls.obj
 0002:00010d7c       ??_C@_1M@DHHMBNDP@?$AAa?$AAr?$AA?9?$AAM?$AAA?$AA?$AA@ 10053d7c     LIBCMT:winapinls.obj
 0002:00010d88       ??_C@_1M@BNBLJCGH@?$AAe?$AAn?$AA?9?$AAI?$AAE?$AA?$AA@ 10053d88     LIBCMT:winapinls.obj
 0002:00010d94       ??_C@_1M@GEPAFMDL@?$AAe?$AAs?$AA?9?$AAP?$AAA?$AA?$AA@ 10053d94     LIBCMT:winapinls.obj
 0002:00010da0       ??_C@_1M@OJONDMDL@?$AAf?$AAr?$AA?9?$AAM?$AAC?$AA?$AA@ 10053da0     LIBCMT:winapinls.obj
 0002:00010dac       ??_C@_1BG@OBCNFJB@?$AAs?$AAr?$AA?9?$AAB?$AAA?$AA?9?$AAL?$AAa?$AAt?$AAn?$AA?$AA@ 10053dac     LIBCMT:winapinls.obj
 0002:00010dc4       ??_C@_1O@KEMEEGPO@?$AAs?$AAm?$AAa?$AA?9?$AAN?$AAO?$AA?$AA@ 10053dc4     LIBCMT:winapinls.obj
 0002:00010dd4       ??_C@_1M@ELMGFODK@?$AAa?$AAr?$AA?9?$AAT?$AAN?$AA?$AA@ 10053dd4     LIBCMT:winapinls.obj
 0002:00010de0       ??_C@_1M@BHDLHFAF@?$AAe?$AAn?$AA?9?$AAZ?$AAA?$AA?$AA@ 10053de0     LIBCMT:winapinls.obj
 0002:00010dec       ??_C@_1M@BMGIGLIF@?$AAe?$AAs?$AA?9?$AAD?$AAO?$AA?$AA@ 10053dec     LIBCMT:winapinls.obj
 0002:00010df8       ??_C@_1BG@CMBHIPBE@?$AAs?$AAr?$AA?9?$AAB?$AAA?$AA?9?$AAC?$AAy?$AAr?$AAl?$AA?$AA@ 10053df8     LIBCMT:winapinls.obj
 0002:00010e10       ??_C@_1O@HEDBLHNP@?$AAs?$AAm?$AAa?$AA?9?$AAS?$AAE?$AA?$AA@ 10053e10     LIBCMT:winapinls.obj
 0002:00010e20       ??_C@_1M@DAGCADIM@?$AAa?$AAr?$AA?9?$AAO?$AAM?$AA?$AA@ 10053e20     LIBCMT:winapinls.obj
 0002:00010e2c       ??_C@_1M@FODLMICG@?$AAe?$AAn?$AA?9?$AAJ?$AAM?$AA?$AA@ 10053e2c     LIBCMT:winapinls.obj
 0002:00010e38       ??_C@_1M@DNMLCIHB@?$AAe?$AAs?$AA?9?$AAV?$AAE?$AA?$AA@ 10053e38     LIBCMT:winapinls.obj
 0002:00010e44       ??_C@_1O@EOKHMKJK@?$AAs?$AAm?$AAs?$AA?9?$AAF?$AAI?$AA?$AA@ 10053e44     LIBCMT:winapinls.obj
 0002:00010e54       ??_C@_1M@CAFJMKOF@?$AAa?$AAr?$AA?9?$AAY?$AAE?$AA?$AA@ 10053e54     LIBCMT:winapinls.obj
 0002:00010e60       ??_C@_1M@CBFHIJLI@?$AAe?$AAn?$AA?9?$AAC?$AAB?$AA?$AA@ 10053e60     LIBCMT:winapinls.obj
 0002:00010e6c       ??_C@_1M@BGNFLDN@?$AAe?$AAs?$AA?9?$AAC?$AAO?$AA?$AA@ 10053e6c     LIBCMT:winapinls.obj
 0002:00010e78       ??_C@_1O@JMPHMAMC@?$AAs?$AAm?$AAn?$AA?9?$AAF?$AAI?$AA?$AA@ 10053e78     LIBCMT:winapinls.obj
 0002:00010e88       ??_C@_1M@JLANABKE@?$AAa?$AAr?$AA?9?$AAS?$AAY?$AA?$AA@ 10053e88     LIBCMT:winapinls.obj
 0002:00010e94       ??_C@_1M@HPKGCFGN@?$AAe?$AAn?$AA?9?$AAB?$AAZ?$AA?$AA@ 10053e94     LIBCMT:winapinls.obj
 0002:00010ea0       ??_C@_1M@OLJCMLGM@?$AAe?$AAs?$AA?9?$AAP?$AAE?$AA?$AA@ 10053ea0     LIBCMT:winapinls.obj
 0002:00010eac       ??_C@_1M@MKKGFKLE@?$AAa?$AAr?$AA?9?$AAJ?$AAO?$AA?$AA@ 10053eac     LIBCMT:winapinls.obj
 0002:00010eb8       ??_C@_1M@EKPGLDNI@?$AAe?$AAn?$AA?9?$AAT?$AAT?$AA?$AA@ 10053eb8     LIBCMT:winapinls.obj
 0002:00010ec4       ??_C@_1M@OONGHFHE@?$AAe?$AAs?$AA?9?$AAA?$AAR?$AA?$AA@ 10053ec4     LIBCMT:winapinls.obj
 0002:00010ed0       ??_C@_1M@OOJFGBHE@?$AAa?$AAr?$AA?9?$AAL?$AAB?$AA?$AA@ 10053ed0     LIBCMT:winapinls.obj
 0002:00010edc       ??_C@_1M@GCEJHNEG@?$AAe?$AAn?$AA?9?$AAZ?$AAW?$AA?$AA@ 10053edc     LIBCMT:winapinls.obj
 0002:00010ee8       ??_C@_1M@JNOCAHJI@?$AAe?$AAs?$AA?9?$AAE?$AAC?$AA?$AA@ 10053ee8     LIBCMT:winapinls.obj
 0002:00010ef4       ??_C@_1M@JEFHPGGB@?$AAa?$AAr?$AA?9?$AAK?$AAW?$AA?$AA@ 10053ef4     LIBCMT:winapinls.obj
 0002:00010f00       ??_C@_1M@MLKIBJOJ@?$AAe?$AAn?$AA?9?$AAP?$AAH?$AA?$AA@ 10053f00     LIBCMT:winapinls.obj
 0002:00010f0c       ??_C@_1M@BDNIPEND@?$AAe?$AAs?$AA?9?$AAC?$AAL?$AA?$AA@ 10053f0c     LIBCMT:winapinls.obj
 0002:00010f18       ??_C@_1M@MPNMEKBD@?$AAa?$AAr?$AA?9?$AAA?$AAE?$AA?$AA@ 10053f18     LIBCMT:winapinls.obj
 0002:00010f24       ??_C@_1M@KBJALCPI@?$AAe?$AAs?$AA?9?$AAU?$AAY?$AA?$AA@ 10053f24     LIBCMT:winapinls.obj
 0002:00010f30       ??_C@_1M@LLCCOAGA@?$AAa?$AAr?$AA?9?$AAB?$AAH?$AA?$AA@ 10053f30     LIBCMT:winapinls.obj
 0002:00010f3c       ??_C@_1M@PBFNCDEL@?$AAe?$AAs?$AA?9?$AAP?$AAY?$AA?$AA@ 10053f3c     LIBCMT:winapinls.obj
 0002:00010f48       ??_C@_1M@EDGINPNP@?$AAa?$AAr?$AA?9?$AAQ?$AAA?$AA?$AA@ 10053f48     LIBCMT:winapinls.obj
 0002:00010f54       ??_C@_1M@MKDBIIJI@?$AAe?$AAs?$AA?9?$AAB?$AAO?$AA?$AA@ 10053f54     LIBCMT:winapinls.obj
 0002:00010f60       ??_C@_1M@CPKKEBLD@?$AAe?$AAs?$AA?9?$AAS?$AAV?$AA?$AA@ 10053f60     LIBCMT:winapinls.obj
 0002:00010f6c       ??_C@_1M@NDBGMMJL@?$AAe?$AAs?$AA?9?$AAH?$AAN?$AA?$AA@ 10053f6c     LIBCMT:winapinls.obj
 0002:00010f78       ??_C@_1M@JIJIBHDP@?$AAe?$AAs?$AA?9?$AAN?$AAI?$AA?$AA@ 10053f78     LIBCMT:winapinls.obj
 0002:00010f84       ??_C@_1M@CGFMKEEK@?$AAe?$AAs?$AA?9?$AAP?$AAR?$AA?$AA@ 10053f84     LIBCMT:winapinls.obj
 0002:00010f90       ??_C@_1O@ICJHKIIK@?$AAz?$AAh?$AA?9?$AAC?$AAH?$AAT?$AA?$AA@ 10053f90     LIBCMT:winapinls.obj
 0002:00010fa0       ??_C@_15CLNEJCE@?$AAs?$AAr?$AA?$AA@ 10053fa0     LIBCMT:winapinls.obj
 0002:00010fa8       ??_C@_1M@KAHEKEIG@?$AAa?$AAf?$AA?9?$AAz?$AAa?$AA?$AA@ 10053fa8     LIBCMT:winapinls.obj
 0002:00010fb4       ??_C@_1M@GIECOABL@?$AAa?$AAr?$AA?9?$AAa?$AAe?$AA?$AA@ 10053fb4     LIBCMT:winapinls.obj
 0002:00010fc0       ??_C@_1M@BMLMEKGI@?$AAa?$AAr?$AA?9?$AAb?$AAh?$AA?$AA@ 10053fc0     LIBCMT:winapinls.obj
 0002:00010fcc       ??_C@_1M@DAPFDGGB@?$AAa?$AAr?$AA?9?$AAd?$AAz?$AA?$AA@ 10053fcc     LIBCMT:winapinls.obj
 0002:00010fd8       ??_C@_1M@FJNKGKIG@?$AAa?$AAr?$AA?9?$AAe?$AAg?$AA?$AA@ 10053fd8     LIBCMT:winapinls.obj
 0002:00010fe4       ??_C@_1M@FLGKKCLO@?$AAa?$AAr?$AA?9?$AAi?$AAq?$AA?$AA@ 10053fe4     LIBCMT:winapinls.obj
 0002:00010ff0       ??_C@_1M@GNDIPALM@?$AAa?$AAr?$AA?9?$AAj?$AAo?$AA?$AA@ 10053ff0     LIBCMT:winapinls.obj
 0002:00010ffc       ??_C@_1M@DDMJFMGJ@?$AAa?$AAr?$AA?9?$AAk?$AAw?$AA?$AA@ 10053ffc     LIBCMT:winapinls.obj
 0002:00011008       ??_C@_1M@EJALMLHM@?$AAa?$AAr?$AA?9?$AAl?$AAb?$AA?$AA@ 10054008     LIBCMT:winapinls.obj
 0002:00011014       ??_C@_1M@MOBDBLOC@?$AAa?$AAr?$AA?9?$AAl?$AAy?$AA?$AA@ 10054014     LIBCMT:winapinls.obj
 0002:00011020       ??_C@_1M@JAOCLHDH@?$AAa?$AAr?$AA?9?$AAm?$AAa?$AA?$AA@ 10054020     LIBCMT:winapinls.obj
 0002:0001102c       ??_C@_1M@JHPMKJIE@?$AAa?$AAr?$AA?9?$AAo?$AAm?$AA?$AA@ 1005402c     LIBCMT:winapinls.obj
 0002:00011038       ??_C@_1M@OEPGHFNH@?$AAa?$AAr?$AA?9?$AAq?$AAa?$AA?$AA@ 10054038     LIBCMT:winapinls.obj
 0002:00011044       ??_C@_1M@KJDONENM@?$AAa?$AAr?$AA?9?$AAs?$AAa?$AA?$AA@ 10054044     LIBCMT:winapinls.obj
 0002:00011050       ??_C@_1M@DMJDKLKM@?$AAa?$AAr?$AA?9?$AAs?$AAy?$AA?$AA@ 10054050     LIBCMT:winapinls.obj
 0002:0001105c       ??_C@_1M@OMFIPEDC@?$AAa?$AAr?$AA?9?$AAt?$AAn?$AA?$AA@ 1005405c     LIBCMT:winapinls.obj
 0002:00011068       ??_C@_1M@IHMHGAON@?$AAa?$AAr?$AA?9?$AAy?$AAe?$AA?$AA@ 10054068     LIBCMT:winapinls.obj
 0002:00011074       ??_C@_1BG@KDCPGJGB@?$AAa?$AAz?$AA?9?$AAa?$AAz?$AA?9?$AAc?$AAy?$AAr?$AAl?$AA?$AA@ 10054074     LIBCMT:winapinls.obj
 0002:0001108c       ??_C@_1BG@IBCKDDOE@?$AAa?$AAz?$AA?9?$AAa?$AAz?$AA?9?$AAl?$AAa?$AAt?$AAn?$AA?$AA@ 1005408c     LIBCMT:winapinls.obj
 0002:000110a4       ??_C@_1M@EGPFDCPD@?$AAb?$AAe?$AA?9?$AAb?$AAy?$AA?$AA@ 100540a4     LIBCMT:winapinls.obj
 0002:000110b0       ??_C@_1M@PCMGMCGC@?$AAb?$AAg?$AA?9?$AAb?$AAg?$AA?$AA@ 100540b0     LIBCMT:winapinls.obj
 0002:000110bc       ??_C@_1M@BJBMFGOB@?$AAb?$AAn?$AA?9?$AAi?$AAn?$AA?$AA@ 100540bc     LIBCMT:winapinls.obj
 0002:000110c8       ??_C@_1BG@EAKMMACD@?$AAb?$AAs?$AA?9?$AAb?$AAa?$AA?9?$AAl?$AAa?$AAt?$AAn?$AA?$AA@ 100540c8     LIBCMT:winapinls.obj
 0002:000110e0       ??_C@_1M@KGADAODK@?$AAc?$AAa?$AA?9?$AAe?$AAs?$AA?$AA@ 100540e0     LIBCMT:winapinls.obj
 0002:000110ec       ??_C@_1M@COAJPDHI@?$AAc?$AAs?$AA?9?$AAc?$AAz?$AA?$AA@ 100540ec     LIBCMT:winapinls.obj
 0002:000110f8       ??_C@_1M@DHBHFONH@?$AAc?$AAy?$AA?9?$AAg?$AAb?$AA?$AA@ 100540f8     LIBCMT:winapinls.obj
 0002:00011104       ??_C@_1M@IMGKELGA@?$AAd?$AAa?$AA?9?$AAd?$AAk?$AA?$AA@ 10054104     LIBCMT:winapinls.obj
 0002:00011110       ??_C@_1M@NNDGDNGA@?$AAd?$AAe?$AA?9?$AAa?$AAt?$AA?$AA@ 10054110     LIBCMT:winapinls.obj
 0002:0001111c       ??_C@_1M@IKDBHEEM@?$AAd?$AAe?$AA?9?$AAc?$AAh?$AA?$AA@ 1005411c     LIBCMT:winapinls.obj
 0002:00011128       ??_C@_1M@GFFOJMCJ@?$AAd?$AAe?$AA?9?$AAd?$AAe?$AA?$AA@ 10054128     LIBCMT:winapinls.obj
 0002:00011134       ??_C@_1M@MDNLKBPM@?$AAd?$AAe?$AA?9?$AAl?$AAi?$AA?$AA@ 10054134     LIBCMT:winapinls.obj
 0002:00011140       ??_C@_1M@NJBEEJNL@?$AAd?$AAe?$AA?9?$AAl?$AAu?$AA?$AA@ 10054140     LIBCMT:winapinls.obj
 0002:0001114c       ??_C@_1O@GNNELBAP@?$AAd?$AAi?$AAv?$AA?9?$AAm?$AAv?$AA?$AA@ 1005414c     LIBCMT:winapinls.obj
 0002:0001115c       ??_C@_1M@EJLEOGAE@?$AAe?$AAl?$AA?9?$AAg?$AAr?$AA?$AA@ 1005415c     LIBCMT:winapinls.obj
 0002:00011168       ??_C@_1M@GMPONJN@?$AAe?$AAn?$AA?9?$AAa?$AAu?$AA?$AA@ 10054168     LIBCMT:winapinls.obj
 0002:00011174       ??_C@_1M@NIDIIPGF@?$AAe?$AAn?$AA?9?$AAb?$AAz?$AA?$AA@ 10054174     LIBCMT:winapinls.obj
 0002:00011180       ??_C@_1M@JEHMIMFO@?$AAe?$AAn?$AA?9?$AAc?$AAa?$AA?$AA@ 10054180     LIBCMT:winapinls.obj
 0002:0001118c       ??_C@_1M@IGMJCDLA@?$AAe?$AAn?$AA?9?$AAc?$AAb?$AA?$AA@ 1005418c     LIBCMT:winapinls.obj
 0002:00011198       ??_C@_1M@BNFIGBKG@?$AAe?$AAn?$AA?9?$AAg?$AAb?$AA?$AA@ 10054198     LIBCMT:winapinls.obj
 0002:000111a4       ??_C@_1M@LKIFDIGP@?$AAe?$AAn?$AA?9?$AAi?$AAe?$AA?$AA@ 100541a4     LIBCMT:winapinls.obj
 0002:000111b0       ??_C@_1M@PJKFGCCO@?$AAe?$AAn?$AA?9?$AAj?$AAm?$AA?$AA@ 100541b0     LIBCMT:winapinls.obj
 0002:000111bc       ??_C@_1M@KPPKEPBO@?$AAe?$AAn?$AA?9?$AAn?$AAz?$AA?$AA@ 100541bc     LIBCMT:winapinls.obj
 0002:000111c8       ??_C@_1M@GMDGLDOB@?$AAe?$AAn?$AA?9?$AAp?$AAh?$AA?$AA@ 100541c8     LIBCMT:winapinls.obj
 0002:000111d4       ??_C@_1M@ONGIBJNA@?$AAe?$AAn?$AA?9?$AAt?$AAt?$AA?$AA@ 100541d4     LIBCMT:winapinls.obj
 0002:000111e0       ??_C@_1M@LLODPCMM@?$AAe?$AAn?$AA?9?$AAu?$AAs?$AA?$AA@ 100541e0     LIBCMT:winapinls.obj
 0002:000111ec       ??_C@_1M@LAKFNPAN@?$AAe?$AAn?$AA?9?$AAz?$AAa?$AA?$AA@ 100541ec     LIBCMT:winapinls.obj
 0002:000111f8       ??_C@_1M@MFNHNHEO@?$AAe?$AAn?$AA?9?$AAz?$AAw?$AA?$AA@ 100541f8     LIBCMT:winapinls.obj
 0002:00011204       ??_C@_1M@EJEINPHM@?$AAe?$AAs?$AA?9?$AAa?$AAr?$AA?$AA@ 10054204     LIBCMT:winapinls.obj
 0002:00011210       ??_C@_1M@GNKPCCJA@?$AAe?$AAs?$AA?9?$AAb?$AAo?$AA?$AA@ 10054210     LIBCMT:winapinls.obj
 0002:0001121c       ??_C@_1M@LEEGFONL@?$AAe?$AAs?$AA?9?$AAc?$AAl?$AA?$AA@ 1005421c     LIBCMT:winapinls.obj
 0002:00011228       ??_C@_1M@KGPDPBDF@?$AAe?$AAs?$AA?9?$AAc?$AAo?$AA?$AA@ 10054228     LIBCMT:winapinls.obj
 0002:00011234       ??_C@_1M@EIAHOHH@?$AAe?$AAs?$AA?9?$AAc?$AAr?$AA?$AA@ 10054234     LIBCMT:winapinls.obj
 0002:00011240       ??_C@_1M@LLPGMBIN@?$AAe?$AAs?$AA?9?$AAd?$AAo?$AA?$AA@ 10054240     LIBCMT:winapinls.obj
 0002:0001124c       ??_C@_1M@DKHMKNJA@?$AAe?$AAs?$AA?9?$AAe?$AAc?$AA?$AA@ 1005424c     LIBCMT:winapinls.obj
 0002:00011258       ??_C@_1M@GKGFPKAP@?$AAe?$AAs?$AA?9?$AAe?$AAs?$AA?$AA@ 10054258     LIBCMT:winapinls.obj
 0002:00011264       ??_C@_1M@LKHKGDLN@?$AAe?$AAs?$AA?9?$AAg?$AAt?$AA?$AA@ 10054264     LIBCMT:winapinls.obj
 0002:00011270       ??_C@_1M@HEIIGGJD@?$AAe?$AAs?$AA?9?$AAh?$AAn?$AA?$AA@ 10054270     LIBCMT:winapinls.obj
 0002:0001127c       ??_C@_1M@FBDHPPGD@?$AAe?$AAs?$AA?9?$AAm?$AAx?$AA?$AA@ 1005427c     LIBCMT:winapinls.obj
 0002:00011288       ??_C@_1M@DPAGLNDH@?$AAe?$AAs?$AA?9?$AAn?$AAi?$AA?$AA@ 10054288     LIBCMT:winapinls.obj
 0002:00011294       ??_C@_1M@MDGOPGDD@?$AAe?$AAs?$AA?9?$AAp?$AAa?$AA?$AA@ 10054294     LIBCMT:winapinls.obj
 0002:000112a0       ??_C@_1M@EMAMGBGE@?$AAe?$AAs?$AA?9?$AAp?$AAe?$AA?$AA@ 100542a0     LIBCMT:winapinls.obj
 0002:000112ac       ??_C@_1M@IBMCAOEC@?$AAe?$AAs?$AA?9?$AAp?$AAr?$AA?$AA@ 100542ac     LIBCMT:winapinls.obj
 0002:000112b8       ??_C@_1M@FGMDIJED@?$AAe?$AAs?$AA?9?$AAp?$AAy?$AA?$AA@ 100542b8     LIBCMT:winapinls.obj
 0002:000112c4       ??_C@_1M@IIDEOLLL@?$AAe?$AAs?$AA?9?$AAs?$AAv?$AA?$AA@ 100542c4     LIBCMT:winapinls.obj
 0002:000112d0       ??_C@_1M@GAOBIPA@?$AAe?$AAs?$AA?9?$AAu?$AAy?$AA?$AA@ 100542d0     LIBCMT:winapinls.obj
 0002:000112dc       ??_C@_1M@JKFFICHJ@?$AAe?$AAs?$AA?9?$AAv?$AAe?$AA?$AA@ 100542dc     LIBCMT:winapinls.obj
 0002:000112e8       ??_C@_1M@PNMLOJDF@?$AAe?$AAt?$AA?9?$AAe?$AAe?$AA?$AA@ 100542e8     LIBCMT:winapinls.obj
 0002:000112f4       ??_C@_1M@GHHLIKEI@?$AAe?$AAu?$AA?9?$AAe?$AAs?$AA?$AA@ 100542f4     LIBCMT:winapinls.obj
 0002:00011300       ??_C@_1M@PBNONODE@?$AAf?$AAa?$AA?9?$AAi?$AAr?$AA?$AA@ 10054300     LIBCMT:winapinls.obj
 0002:0001130c       ??_C@_1M@JEEHPMIL@?$AAf?$AAi?$AA?9?$AAf?$AAi?$AA?$AA@ 1005430c     LIBCMT:winapinls.obj
 0002:00011318       ??_C@_1M@LMDCNDBA@?$AAf?$AAo?$AA?9?$AAf?$AAo?$AA?$AA@ 10054318     LIBCMT:winapinls.obj
 0002:00011324       ??_C@_1M@JKEOHLDK@?$AAf?$AAr?$AA?9?$AAb?$AAe?$AA?$AA@ 10054324     LIBCMT:winapinls.obj
 0002:00011330       ??_C@_1M@NOHADPMI@?$AAf?$AAr?$AA?9?$AAc?$AAa?$AA?$AA@ 10054330     LIBCMT:winapinls.obj
 0002:0001133c       ??_C@_1M@KDHIHAEC@?$AAf?$AAr?$AA?9?$AAc?$AAh?$AA?$AA@ 1005433c     LIBCMT:winapinls.obj
 0002:00011348       ??_C@_1M@MMBBFGAK@?$AAf?$AAr?$AA?9?$AAf?$AAr?$AA?$AA@ 10054348     LIBCMT:winapinls.obj
 0002:00011354       ??_C@_1M@PAFNENNF@?$AAf?$AAr?$AA?9?$AAl?$AAu?$AA?$AA@ 10054354     LIBCMT:winapinls.obj
 0002:00011360       ??_C@_1M@EOHDJGDD@?$AAf?$AAr?$AA?9?$AAm?$AAc?$AA?$AA@ 10054360     LIBCMT:winapinls.obj
 0002:0001136c       ??_C@_1M@FAPLLOPF@?$AAg?$AAl?$AA?9?$AAe?$AAs?$AA?$AA@ 1005436c     LIBCMT:winapinls.obj
 0002:00011378       ??_C@_1M@FOPBFLOO@?$AAg?$AAu?$AA?9?$AAi?$AAn?$AA?$AA@ 10054378     LIBCMT:winapinls.obj
 0002:00011384       ??_C@_1M@KBMCINPM@?$AAh?$AAe?$AA?9?$AAi?$AAl?$AA?$AA@ 10054384     LIBCMT:winapinls.obj
 0002:00011390       ??_C@_1M@BBPHKFPJ@?$AAh?$AAi?$AA?9?$AAi?$AAn?$AA?$AA@ 10054390     LIBCMT:winapinls.obj
 0002:0001139c       ??_C@_1M@PMBNDPHD@?$AAh?$AAr?$AA?9?$AAb?$AAa?$AA?$AA@ 1005439c     LIBCMT:winapinls.obj
 0002:000113a8       ??_C@_1M@BPCKOEGE@?$AAh?$AAr?$AA?9?$AAh?$AAr?$AA?$AA@ 100543a8     LIBCMT:winapinls.obj
 0002:000113b4       ??_C@_1M@GACBMHKE@?$AAh?$AAu?$AA?9?$AAh?$AAu?$AA?$AA@ 100543b4     LIBCMT:winapinls.obj
 0002:000113c0       ??_C@_1M@MILPAJJC@?$AAh?$AAy?$AA?9?$AAa?$AAm?$AA?$AA@ 100543c0     LIBCMT:winapinls.obj
 0002:000113cc       ??_C@_1M@BABBICEC@?$AAi?$AAd?$AA?9?$AAi?$AAd?$AA?$AA@ 100543cc     LIBCMT:winapinls.obj
 0002:000113d8       ??_C@_1M@BIKNHHPF@?$AAi?$AAs?$AA?9?$AAi?$AAs?$AA?$AA@ 100543d8     LIBCMT:winapinls.obj
 0002:000113e4       ??_C@_1M@NMPCJPHE@?$AAi?$AAt?$AA?9?$AAc?$AAh?$AA?$AA@ 100543e4     LIBCMT:winapinls.obj
 0002:000113f0       ??_C@_1M@GHKGFEDF@?$AAi?$AAt?$AA?9?$AAi?$AAt?$AA?$AA@ 100543f0     LIBCMT:winapinls.obj
 0002:000113fc       ??_C@_1M@NIEJCJJA@?$AAj?$AAa?$AA?9?$AAj?$AAp?$AA?$AA@ 100543fc     LIBCMT:winapinls.obj
 0002:00011408       ??_C@_1M@JILFNBIM@?$AAk?$AAa?$AA?9?$AAg?$AAe?$AA?$AA@ 10054408     LIBCMT:winapinls.obj
 0002:00011414       ??_C@_1M@PACPMGPH@?$AAk?$AAk?$AA?9?$AAk?$AAz?$AA?$AA@ 10054414     LIBCMT:winapinls.obj
 0002:00011420       ??_C@_1M@IELFGMHA@?$AAk?$AAn?$AA?9?$AAi?$AAn?$AA?$AA@ 10054420     LIBCMT:winapinls.obj
 0002:0001142c       ??_C@_1O@IBBJHCH@?$AAk?$AAo?$AAk?$AA?9?$AAi?$AAn?$AA?$AA@ 1005442c     LIBCMT:winapinls.obj
 0002:0001143c       ??_C@_1M@DMHAEOGC@?$AAk?$AAo?$AA?9?$AAk?$AAr?$AA?$AA@ 1005443c     LIBCMT:winapinls.obj
 0002:00011448       ??_C@_1M@HBAHBIGA@?$AAk?$AAy?$AA?9?$AAk?$AAg?$AA?$AA@ 10054448     LIBCMT:winapinls.obj
 0002:00011454       ??_C@_1M@KPMILCJG@?$AAl?$AAt?$AA?9?$AAl?$AAt?$AA?$AA@ 10054454     LIBCMT:winapinls.obj
 0002:00011460       ??_C@_1M@BDEKKCA@?$AAl?$AAv?$AA?9?$AAl?$AAv?$AA?$AA@ 10054460     LIBCMT:winapinls.obj
 0002:0001146c       ??_C@_1M@ELCKCCJJ@?$AAm?$AAi?$AA?9?$AAn?$AAz?$AA?$AA@ 1005446c     LIBCMT:winapinls.obj
 0002:00011478       ??_C@_1M@CBOOLAPA@?$AAm?$AAk?$AA?9?$AAm?$AAk?$AA?$AA@ 10054478     LIBCMT:winapinls.obj
 0002:00011484       ??_C@_1M@GPHNBJKN@?$AAm?$AAl?$AA?9?$AAi?$AAn?$AA?$AA@ 10054484     LIBCMT:winapinls.obj
 0002:00011490       ??_C@_1M@PABJILIG@?$AAm?$AAn?$AA?9?$AAm?$AAn?$AA?$AA@ 10054490     LIBCMT:winapinls.obj
 0002:0001149c       ??_C@_1M@FGBKKIPG@?$AAm?$AAr?$AA?9?$AAi?$AAn?$AA?$AA@ 1005449c     LIBCMT:winapinls.obj
 0002:000114a8       ??_C@_1M@NDBPDDAL@?$AAm?$AAs?$AA?9?$AAb?$AAn?$AA?$AA@ 100544a8     LIBCMT:winapinls.obj
 0002:000114b4       ??_C@_1M@OPIHOOPI@?$AAm?$AAs?$AA?9?$AAm?$AAy?$AA?$AA@ 100544b4     LIBCMT:winapinls.obj
 0002:000114c0       ??_C@_1M@PPDBCNFM@?$AAm?$AAt?$AA?9?$AAm?$AAt?$AA?$AA@ 100544c0     LIBCMT:winapinls.obj
 0002:000114cc       ??_C@_1M@KDJDKMDD@?$AAn?$AAb?$AA?9?$AAn?$AAo?$AA?$AA@ 100544cc     LIBCMT:winapinls.obj
 0002:000114d8       ??_C@_1M@KFCFLMJP@?$AAn?$AAl?$AA?9?$AAb?$AAe?$AA?$AA@ 100544d8     LIBCMT:winapinls.obj
 0002:000114e4       ??_C@_1M@KPOPDDGO@?$AAn?$AAl?$AA?9?$AAn?$AAl?$AA?$AA@ 100544e4     LIBCMT:winapinls.obj
 0002:000114f0       ??_C@_1M@LJKPEMLN@?$AAn?$AAn?$AA?9?$AAn?$AAo?$AA?$AA@ 100544f0     LIBCMT:winapinls.obj
 0002:000114fc       ??_C@_1M@BDGHHBFL@?$AAn?$AAs?$AA?9?$AAz?$AAa?$AA?$AA@ 100544fc     LIBCMT:winapinls.obj
 0002:00011508       ??_C@_1M@IDEHOAP@?$AAp?$AAa?$AA?9?$AAi?$AAn?$AA?$AA@ 10054508     LIBCMT:winapinls.obj
 0002:00011514       ??_C@_1M@HDBKGOGH@?$AAp?$AAl?$AA?9?$AAp?$AAl?$AA?$AA@ 10054514     LIBCMT:winapinls.obj
 0002:00011520       ??_C@_1M@LJLLCMEH@?$AAp?$AAt?$AA?9?$AAb?$AAr?$AA?$AA@ 10054520     LIBCMT:winapinls.obj
 0002:0001152c       ??_C@_1M@NCMONAAL@?$AAp?$AAt?$AA?9?$AAp?$AAt?$AA?$AA@ 1005452c     LIBCMT:winapinls.obj
 0002:00011538       ??_C@_1O@EAKMAJDN@?$AAq?$AAu?$AAz?$AA?9?$AAb?$AAo?$AA?$AA@ 10054538     LIBCMT:winapinls.obj
 0002:00011548       ??_C@_1O@BHHPIGDN@?$AAq?$AAu?$AAz?$AA?9?$AAe?$AAc?$AA?$AA@ 10054548     LIBCMT:winapinls.obj
 0002:00011558       ??_C@_1O@GBAPEKMJ@?$AAq?$AAu?$AAz?$AA?9?$AAp?$AAe?$AA?$AA@ 10054558     LIBCMT:winapinls.obj
 0002:00011568       ??_C@_1M@CLGLEFBO@?$AAr?$AAo?$AA?9?$AAr?$AAo?$AA?$AA@ 10054568     LIBCMT:winapinls.obj
 0002:00011574       ??_C@_1M@CEEDODME@?$AAr?$AAu?$AA?9?$AAr?$AAu?$AA?$AA@ 10054574     LIBCMT:winapinls.obj
 0002:00011580       ??_C@_1M@HPKKKMPP@?$AAs?$AAa?$AA?9?$AAi?$AAn?$AA?$AA@ 10054580     LIBCMT:winapinls.obj
 0002:0001158c       ??_C@_1M@BKMAIGOJ@?$AAs?$AAe?$AA?9?$AAf?$AAi?$AA?$AA@ 1005458c     LIBCMT:winapinls.obj
 0002:00011598       ??_C@_1M@NDPIFLFI@?$AAs?$AAe?$AA?9?$AAn?$AAo?$AA?$AA@ 10054598     LIBCMT:winapinls.obj
 0002:000115a4       ??_C@_1M@DANKKHJ@?$AAs?$AAe?$AA?9?$AAs?$AAe?$AA?$AA@ 100545a4     LIBCMT:winapinls.obj
 0002:000115b0       ??_C@_1M@PNBLONPJ@?$AAs?$AAk?$AA?9?$AAs?$AAk?$AA?$AA@ 100545b0     LIBCMT:winapinls.obj
 0002:000115bc       ??_C@_1M@LFMODOAL@?$AAs?$AAl?$AA?9?$AAs?$AAi?$AA?$AA@ 100545bc     LIBCMT:winapinls.obj
 0002:000115c8       ??_C@_1O@DFKOMPG@?$AAs?$AAm?$AAa?$AA?9?$AAn?$AAo?$AA?$AA@ 100545c8     LIBCMT:winapinls.obj
 0002:000115d8       ??_C@_1O@NDKPBNNH@?$AAs?$AAm?$AAa?$AA?9?$AAs?$AAe?$AA?$AA@ 100545d8     LIBCMT:winapinls.obj
 0002:000115e8       ??_C@_1O@PLLKBHAB@?$AAs?$AAm?$AAj?$AA?9?$AAn?$AAo?$AA?$AA@ 100545e8     LIBCMT:winapinls.obj
 0002:000115f8       ??_C@_1O@CLEPOGCA@?$AAs?$AAm?$AAj?$AA?9?$AAs?$AAe?$AA?$AA@ 100545f8     LIBCMT:winapinls.obj
 0002:00011608       ??_C@_1O@DLGJGKMK@?$AAs?$AAm?$AAn?$AA?9?$AAf?$AAi?$AA?$AA@ 10054608     LIBCMT:winapinls.obj
 0002:00011618       ??_C@_1O@OJDJGAJC@?$AAs?$AAm?$AAs?$AA?9?$AAf?$AAi?$AA?$AA@ 10054618     LIBCMT:winapinls.obj
 0002:00011628       ??_C@_1M@BOFOGHPB@?$AAs?$AAq?$AA?9?$AAa?$AAl?$AA?$AA@ 10054628     LIBCMT:winapinls.obj
 0002:00011634       ??_C@_1BG@LJBBIPGB@?$AAs?$AAr?$AA?9?$AAb?$AAa?$AA?9?$AAc?$AAy?$AAr?$AAl?$AA?$AA@ 10054634     LIBCMT:winapinls.obj
 0002:0001164c       ??_C@_1BG@JLBENFOE@?$AAs?$AAr?$AA?9?$AAb?$AAa?$AA?9?$AAl?$AAa?$AAt?$AAn?$AA?$AA@ 1005464c     LIBCMT:winapinls.obj
 0002:00011664       ??_C@_1BG@KODPNHE@?$AAs?$AAr?$AA?9?$AAs?$AAp?$AA?9?$AAc?$AAy?$AAr?$AAl?$AA?$AA@ 10054664     LIBCMT:winapinls.obj
 0002:0001167c       ??_C@_1BG@CIOGKHPB@?$AAs?$AAr?$AA?9?$AAs?$AAp?$AA?9?$AAl?$AAa?$AAt?$AAn?$AA?$AA@ 1005467c     LIBCMT:winapinls.obj
 0002:00011694       ??_C@_1M@NGFJLMAC@?$AAs?$AAv?$AA?9?$AAf?$AAi?$AA?$AA@ 10054694     LIBCMT:winapinls.obj
 0002:000116a0       ??_C@_1M@MPJEJAJC@?$AAs?$AAv?$AA?9?$AAs?$AAe?$AA?$AA@ 100546a0     LIBCMT:winapinls.obj
 0002:000116ac       ??_C@_1M@MPNDHLFK@?$AAs?$AAw?$AA?9?$AAk?$AAe?$AA?$AA@ 100546ac     LIBCMT:winapinls.obj
 0002:000116b8       ??_C@_1O@KOHBJJI@?$AAs?$AAy?$AAr?$AA?9?$AAs?$AAy?$AA?$AA@ 100546b8     LIBCMT:winapinls.obj
 0002:000116c8       ??_C@_1M@LDCEFHA@?$AAt?$AAa?$AA?9?$AAi?$AAn?$AA?$AA@ 100546c8     LIBCMT:winapinls.obj
 0002:000116d4       ??_C@_1M@CNJOFAK@?$AAt?$AAe?$AA?9?$AAi?$AAn?$AA?$AA@ 100546d4     LIBCMT:winapinls.obj
 0002:000116e0       ??_C@_1M@GNAECACD@?$AAt?$AAh?$AA?9?$AAt?$AAh?$AA?$AA@ 100546e0     LIBCMT:winapinls.obj
 0002:000116ec       ??_C@_1M@CHBIHOJO@?$AAt?$AAn?$AA?9?$AAz?$AAa?$AA?$AA@ 100546ec     LIBCMT:winapinls.obj
 0002:000116f8       ??_C@_1M@GCCMIGPJ@?$AAt?$AAr?$AA?9?$AAt?$AAr?$AA?$AA@ 100546f8     LIBCMT:winapinls.obj
 0002:00011704       ??_C@_1M@CELMCNBK@?$AAt?$AAt?$AA?9?$AAr?$AAu?$AA?$AA@ 10054704     LIBCMT:winapinls.obj
 0002:00011710       ??_C@_1M@KLMCELGA@?$AAu?$AAk?$AA?9?$AAu?$AAa?$AA?$AA@ 10054710     LIBCMT:winapinls.obj
 0002:0001171c       ??_C@_1M@EPAJJAJF@?$AAu?$AAr?$AA?9?$AAp?$AAk?$AA?$AA@ 1005471c     LIBCMT:winapinls.obj
 0002:00011728       ??_C@_1BG@GEGPMCDJ@?$AAu?$AAz?$AA?9?$AAu?$AAz?$AA?9?$AAc?$AAy?$AAr?$AAl?$AA?$AA@ 10054728     LIBCMT:winapinls.obj
 0002:00011740       ??_C@_1BG@EGGKJILM@?$AAu?$AAz?$AA?9?$AAu?$AAz?$AA?9?$AAl?$AAa?$AAt?$AAn?$AA?$AA@ 10054740     LIBCMT:winapinls.obj
 0002:00011758       ??_C@_1M@GFOCLFF@?$AAv?$AAi?$AA?9?$AAv?$AAn?$AA?$AA@ 10054758     LIBCMT:winapinls.obj
 0002:00011764       ??_C@_1M@CPAMEDFI@?$AAx?$AAh?$AA?9?$AAz?$AAa?$AA?$AA@ 10054764     LIBCMT:winapinls.obj
 0002:00011770       ??_C@_1O@EBKIFIGN@?$AAz?$AAh?$AA?9?$AAc?$AAh?$AAs?$AA?$AA@ 10054770     LIBCMT:winapinls.obj
 0002:00011780       ??_C@_1O@NMHPGANE@?$AAz?$AAh?$AA?9?$AAc?$AAh?$AAt?$AA?$AA@ 10054780     LIBCMT:winapinls.obj
 0002:00011790       ??_C@_1M@LPINJOMC@?$AAz?$AAh?$AA?9?$AAc?$AAn?$AA?$AA@ 10054790     LIBCMT:winapinls.obj
 0002:0001179c       ??_C@_1M@OCJEJODD@?$AAz?$AAh?$AA?9?$AAh?$AAk?$AA?$AA@ 1005479c     LIBCMT:winapinls.obj
 0002:000117a8       ??_C@_1M@DNDLJINH@?$AAz?$AAh?$AA?9?$AAm?$AAo?$AA?$AA@ 100547a8     LIBCMT:winapinls.obj
 0002:000117b4       ??_C@_1M@MBFDNDND@?$AAz?$AAh?$AA?9?$AAs?$AAg?$AA?$AA@ 100547b4     LIBCMT:winapinls.obj
 0002:000117c0       ??_C@_1M@IMEPLEPE@?$AAz?$AAh?$AA?9?$AAt?$AAw?$AA?$AA@ 100547c0     LIBCMT:winapinls.obj
 0002:000117cc       ??_C@_1M@BBGHNHJP@?$AAz?$AAu?$AA?9?$AAz?$AAa?$AA?$AA@ 100547cc     LIBCMT:winapinls.obj
 0002:000117d8       ___newctype                100547d8     LIBCMT:ctype.obj
 0002:00011ad8       __wctype                   10054ad8     LIBCMT:ctype.obj
 0002:00011ce0       ___newclmap                10054ce0     LIBCMT:ctype.obj
 0002:00011e60       ___newcumap                10054e60     LIBCMT:ctype.obj
 0002:00011fe0       ___lc_category             10054fe0     LIBCMT:wsetloca.obj
 0002:00012028       ??_C@_1O@GIFLHMA@?$AAL?$AAC?$AA_?$AAA?$AAL?$AAL?$AA?$AA@ 10055028     LIBCMT:wsetloca.obj
 0002:00012038       ??_C@_1BG@PPOMIBNJ@?$AAL?$AAC?$AA_?$AAC?$AAO?$AAL?$AAL?$AAA?$AAT?$AAE?$AA?$AA@ 10055038     LIBCMT:wsetloca.obj
 0002:00012050       ??_C@_1BC@FFJGAPJM@?$AAL?$AAC?$AA_?$AAC?$AAT?$AAY?$AAP?$AAE?$AA?$AA@ 10055050     LIBCMT:wsetloca.obj
 0002:00012064       ??_C@_1BI@PCKFNJFB@?$AAL?$AAC?$AA_?$AAM?$AAO?$AAN?$AAE?$AAT?$AAA?$AAR?$AAY?$AA?$AA@ 10055064     LIBCMT:wsetloca.obj
 0002:0001207c       ??_C@_1BG@ENIEDKID@?$AAL?$AAC?$AA_?$AAN?$AAU?$AAM?$AAE?$AAR?$AAI?$AAC?$AA?$AA@ 1005507c     LIBCMT:wsetloca.obj
 0002:00012094       ??_C@_1BA@HAAOMIIG@?$AAL?$AAC?$AA_?$AAT?$AAI?$AAM?$AAE?$AA?$AA@ 10055094     LIBCMT:wsetloca.obj
 0002:00012128       ??_C@_15NBPDDFIP@?$AA?$DN?$AA?$DL?$AA?$AA@ 10055128     LIBCMT:wsetloca.obj
 0002:00012130       ??_C@_13PJJBFPED@?$AA?$DL?$AA?$AA@ 10055130     LIBCMT:wsetloca.obj
 0002:00012134       ??_C@_13NMPKAAJP@?$AA?$DN?$AA?$AA@ 10055134     LIBCMT:wsetloca.obj
 0002:00012138       ??_C@_13FHBKNHDA@?$AAC?$AA?$AA@ 10055138     LIBCMT:wsetloca.obj
 0002:0001213c       ??_C@_17MBJJLFDM@?$AA_?$AA?4?$AA?0?$AA?$AA@ 1005513c     LIBCMT:wsetloca.obj
 0002:00012144       ??_C@_13ENNFDPBH@?$AA_?$AA?$AA@ 10055144     LIBCMT:wsetloca.obj
 0002:00012148       ??_C@_13JOFGPIOO@?$AA?4?$AA?$AA@ 10055148     LIBCMT:wsetloca.obj
 0002:0001214c       ??_C@_06PGGFOGJG@1?$CDSNAN?$AA@ 1005514c     LIBCMT:x10fout.obj
 0002:00012154       ??_C@_05PHHOCPM@1?$CDIND?$AA@ 10055154     LIBCMT:x10fout.obj
 0002:0001215c       ??_C@_05DNEBIAHO@1?$CDINF?$AA@ 1005515c     LIBCMT:x10fout.obj
 0002:00012164       ??_C@_06IMKFLFPG@1?$CDQNAN?$AA@ 10055164     LIBCMT:x10fout.obj
 0002:0001216c       ??_C@_0M@HHGEPIBF@CreateFile2?$AA@ 1005516c     LIBCMT:wopen.obj
 0002:00012178       ??_C@_1BA@BALFACEM@?$AAC?$AAO?$AAN?$AAO?$AAU?$AAT?$AA$?$AA?$AA@ 10055178     LIBCMT:initcon.obj
 0002:00012188       ___rg_language             10055188     LIBCMT:getqloc.obj
 0002:00012494       ??_C@_1BC@LLOKLNP@?$AAa?$AAm?$AAe?$AAr?$AAi?$AAc?$AAa?$AAn?$AA?$AA@ 10055494     LIBCMT:getqloc.obj
 0002:000124a8       ??_C@_1CC@HEIGCDGG@?$AAa?$AAm?$AAe?$AAr?$AAi?$AAc?$AAa?$AAn?$AA?5?$AAe?$AAn?$AAg?$AAl?$AAi?$AAs?$AAh?$AA?$AA@ 100554a8     LIBCMT:getqloc.obj
 0002:000124cc       ??_C@_1CC@IHCNOMIN@?$AAa?$AAm?$AAe?$AAr?$AAi?$AAc?$AAa?$AAn?$AA?9?$AAe?$AAn?$AAg?$AAl?$AAi?$AAs?$AAh?$AA?$AA@ 100554cc     LIBCMT:getqloc.obj
 0002:000124f0       ??_C@_1BG@GKAGPCGG@?$AAa?$AAu?$AAs?$AAt?$AAr?$AAa?$AAl?$AAi?$AAa?$AAn?$AA?$AA@ 100554f0     LIBCMT:getqloc.obj
 0002:00012508       ??_C@_1BA@GMENCENF@?$AAb?$AAe?$AAl?$AAg?$AAi?$AAa?$AAn?$AA?$AA@ 10055508     LIBCMT:getqloc.obj
 0002:00012518       ??_C@_1BC@PJMIIAAN@?$AAc?$AAa?$AAn?$AAa?$AAd?$AAi?$AAa?$AAn?$AA?$AA@ 10055518     LIBCMT:getqloc.obj
 0002:0001252c       ??_C@_17NOIMNFBF@?$AAc?$AAh?$AAh?$AA?$AA@ 1005552c     LIBCMT:getqloc.obj
 0002:00012534       ??_C@_17GGDALCHA@?$AAc?$AAh?$AAi?$AA?$AA@ 10055534     LIBCMT:getqloc.obj
 0002:0001253c       ??_C@_1BA@NPNJKIBL@?$AAc?$AAh?$AAi?$AAn?$AAe?$AAs?$AAe?$AA?$AA@ 1005553c     LIBCMT:getqloc.obj
 0002:0001254c       ??_C@_1CC@DINBAMMJ@?$AAc?$AAh?$AAi?$AAn?$AAe?$AAs?$AAe?$AA?9?$AAh?$AAo?$AAn?$AAg?$AAk?$AAo?$AAn?$AAg?$AA?$AA@ 1005554c     LIBCMT:getqloc.obj
 0002:00012570       ??_C@_1CG@IOBJPACO@?$AAc?$AAh?$AAi?$AAn?$AAe?$AAs?$AAe?$AA?9?$AAs?$AAi?$AAm?$AAp?$AAl?$AAi?$AAf?$AAi?$AAe?$AAd?$AA?$AA@ 10055570     LIBCMT:getqloc.obj
 0002:00012598       ??_C@_1CE@GAJNDCKG@?$AAc?$AAh?$AAi?$AAn?$AAe?$AAs?$AAe?$AA?9?$AAs?$AAi?$AAn?$AAg?$AAa?$AAp?$AAo?$AAr?$AAe?$AA?$AA@ 10055598     LIBCMT:getqloc.obj
 0002:000125bc       ??_C@_1CI@PAJPIOOD@?$AAc?$AAh?$AAi?$AAn?$AAe?$AAs?$AAe?$AA?9?$AAt?$AAr?$AAa?$AAd?$AAi?$AAt?$AAi?$AAo?$AAn?$AAa?$AAl?$AA?$AA@ 100555bc     LIBCMT:getqloc.obj
 0002:000125e4       ??_C@_1BM@NILJBMMD@?$AAd?$AAu?$AAt?$AAc?$AAh?$AA?9?$AAb?$AAe?$AAl?$AAg?$AAi?$AAa?$AAn?$AA?$AA@ 100555e4     LIBCMT:getqloc.obj
 0002:00012600       ??_C@_1CC@OOJPJNEJ@?$AAe?$AAn?$AAg?$AAl?$AAi?$AAs?$AAh?$AA?9?$AAa?$AAm?$AAe?$AAr?$AAi?$AAc?$AAa?$AAn?$AA?$AA@ 10055600     LIBCMT:getqloc.obj
 0002:00012624       ??_C@_1BI@IOLFEEM@?$AAe?$AAn?$AAg?$AAl?$AAi?$AAs?$AAh?$AA?9?$AAa?$AAu?$AAs?$AA?$AA@ 10055624     LIBCMT:getqloc.obj
 0002:0001263c       ??_C@_1BO@HFFNLENJ@?$AAe?$AAn?$AAg?$AAl?$AAi?$AAs?$AAh?$AA?9?$AAb?$AAe?$AAl?$AAi?$AAz?$AAe?$AA?$AA@ 1005563c     LIBCMT:getqloc.obj
 0002:0001265c       ??_C@_1BI@HAPKJMPO@?$AAe?$AAn?$AAg?$AAl?$AAi?$AAs?$AAh?$AA?9?$AAc?$AAa?$AAn?$AA?$AA@ 1005565c     LIBCMT:getqloc.obj
 0002:00012674       ??_C@_1CE@HLNDMIOJ@?$AAe?$AAn?$AAg?$AAl?$AAi?$AAs?$AAh?$AA?9?$AAc?$AAa?$AAr?$AAi?$AAb?$AAb?$AAe?$AAa?$AAn?$AA?$AA@ 10055674     LIBCMT:getqloc.obj
 0002:00012698       ??_C@_1BI@LDHJHHAC@?$AAe?$AAn?$AAg?$AAl?$AAi?$AAs?$AAh?$AA?9?$AAi?$AAr?$AAe?$AA?$AA@ 10055698     LIBCMT:getqloc.obj
 0002:000126b0       ??_C@_1CA@NJMMCFOC@?$AAe?$AAn?$AAg?$AAl?$AAi?$AAs?$AAh?$AA?9?$AAj?$AAa?$AAm?$AAa?$AAi?$AAc?$AAa?$AA?$AA@ 100556b0     LIBCMT:getqloc.obj
 0002:000126d0       ??_C@_1BG@BHJEBBGG@?$AAe?$AAn?$AAg?$AAl?$AAi?$AAs?$AAh?$AA?9?$AAn?$AAz?$AA?$AA@ 100556d0     LIBCMT:getqloc.obj
 0002:000126e8       ??_C@_1CK@FGOEJJCO@?$AAe?$AAn?$AAg?$AAl?$AAi?$AAs?$AAh?$AA?9?$AAs?$AAo?$AAu?$AAt?$AAh?$AA?5?$AAa?$AAf?$AAr?$AAi?$AAc?$AAa?$AA?$AA@ 100556e8     LIBCMT:getqloc.obj
 0002:00012714       ??_C@_1DE@PDBJPCJ@?$AAe?$AAn?$AAg?$AAl?$AAi?$AAs?$AAh?$AA?9?$AAt?$AAr?$AAi?$AAn?$AAi?$AAd?$AAa?$AAd?$AA?5?$AAy?$AA?5?$AAt?$AAo?$AAb?$AAa?$AAg?$AAo?$AA?$AA@ 10055714     LIBCMT:getqloc.obj
 0002:00012748       ??_C@_1BG@JGCANDME@?$AAe?$AAn?$AAg?$AAl?$AAi?$AAs?$AAh?$AA?9?$AAu?$AAk?$AA?$AA@ 10055748     LIBCMT:getqloc.obj
 0002:00012760       ??_C@_1BG@DINKMLE@?$AAe?$AAn?$AAg?$AAl?$AAi?$AAs?$AAh?$AA?9?$AAu?$AAs?$AA?$AA@ 10055760     LIBCMT:getqloc.obj
 0002:00012778       ??_C@_1BI@NMFDBHJE@?$AAe?$AAn?$AAg?$AAl?$AAi?$AAs?$AAh?$AA?9?$AAu?$AAs?$AAa?$AA?$AA@ 10055778     LIBCMT:getqloc.obj
 0002:00012790       ??_C@_1BO@OIHKJKII@?$AAf?$AAr?$AAe?$AAn?$AAc?$AAh?$AA?9?$AAb?$AAe?$AAl?$AAg?$AAi?$AAa?$AAn?$AA?$AA@ 10055790     LIBCMT:getqloc.obj
 0002:000127b0       ??_C@_1CA@NKAELJKI@?$AAf?$AAr?$AAe?$AAn?$AAc?$AAh?$AA?9?$AAc?$AAa?$AAn?$AAa?$AAd?$AAi?$AAa?$AAn?$AA?$AA@ 100557b0     LIBCMT:getqloc.obj
 0002:000127d0       ??_C@_1CE@MGKCNLGN@?$AAf?$AAr?$AAe?$AAn?$AAc?$AAh?$AA?9?$AAl?$AAu?$AAx?$AAe?$AAm?$AAb?$AAo?$AAu?$AAr?$AAg?$AA?$AA@ 100557d0     LIBCMT:getqloc.obj
 0002:000127f4       ??_C@_1BK@CEGEAILM@?$AAf?$AAr?$AAe?$AAn?$AAc?$AAh?$AA?9?$AAs?$AAw?$AAi?$AAs?$AAs?$AA?$AA@ 100557f4     LIBCMT:getqloc.obj
 0002:00012810       ??_C@_1CA@PAFKEOCC@?$AAg?$AAe?$AAr?$AAm?$AAa?$AAn?$AA?9?$AAa?$AAu?$AAs?$AAt?$AAr?$AAi?$AAa?$AAn?$AA?$AA@ 10055810     LIBCMT:getqloc.obj
 0002:00012830       ??_C@_1CI@HCFHGOFD@?$AAg?$AAe?$AAr?$AAm?$AAa?$AAn?$AA?9?$AAl?$AAi?$AAc?$AAh?$AAt?$AAe?$AAn?$AAs?$AAt?$AAe?$AAi?$AAn?$AA?$AA@ 10055830     LIBCMT:getqloc.obj
 0002:00012858       ??_C@_1CE@FEDDNPDG@?$AAg?$AAe?$AAr?$AAm?$AAa?$AAn?$AA?9?$AAl?$AAu?$AAx?$AAe?$AAm?$AAb?$AAo?$AAu?$AAr?$AAg?$AA?$AA@ 10055858     LIBCMT:getqloc.obj
 0002:0001287c       ??_C@_1BK@LIMINNMN@?$AAg?$AAe?$AAr?$AAm?$AAa?$AAn?$AA?9?$AAs?$AAw?$AAi?$AAs?$AAs?$AA?$AA@ 1005587c     LIBCMT:getqloc.obj
 0002:00012898       ??_C@_1BM@LGMDBEPD@?$AAi?$AAr?$AAi?$AAs?$AAh?$AA?9?$AAe?$AAn?$AAg?$AAl?$AAi?$AAs?$AAh?$AA?$AA@ 10055898     LIBCMT:getqloc.obj
 0002:000128b4       ??_C@_1BM@NNCFBAEE@?$AAi?$AAt?$AAa?$AAl?$AAi?$AAa?$AAn?$AA?9?$AAs?$AAw?$AAi?$AAs?$AAs?$AA?$AA@ 100558b4     LIBCMT:getqloc.obj
 0002:000128d0       ??_C@_1BE@FEDJNPIB@?$AAn?$AAo?$AAr?$AAw?$AAe?$AAg?$AAi?$AAa?$AAn?$AA?$AA@ 100558d0     LIBCMT:getqloc.obj
 0002:000128e4       ??_C@_1CC@CILKDEIE@?$AAn?$AAo?$AAr?$AAw?$AAe?$AAg?$AAi?$AAa?$AAn?$AA?9?$AAb?$AAo?$AAk?$AAm?$AAa?$AAl?$AA?$AA@ 100558e4     LIBCMT:getqloc.obj
 0002:00012908       ??_C@_1CE@DHMMHEPL@?$AAn?$AAo?$AAr?$AAw?$AAe?$AAg?$AAi?$AAa?$AAn?$AA?9?$AAn?$AAy?$AAn?$AAo?$AAr?$AAs?$AAk?$AA?$AA@ 10055908     LIBCMT:getqloc.obj
 0002:0001292c       ??_C@_1CK@OPNMHECD@?$AAp?$AAo?$AAr?$AAt?$AAu?$AAg?$AAu?$AAe?$AAs?$AAe?$AA?9?$AAb?$AAr?$AAa?$AAz?$AAi?$AAl?$AAi?$AAa?$AAn?$AA?$AA@ 1005592c     LIBCMT:getqloc.obj
 0002:00012958       ??_C@_1CE@KEEHCDB@?$AAs?$AAp?$AAa?$AAn?$AAi?$AAs?$AAh?$AA?9?$AAa?$AAr?$AAg?$AAe?$AAn?$AAt?$AAi?$AAn?$AAa?$AA?$AA@ 10055958     LIBCMT:getqloc.obj
 0002:0001297c       ??_C@_1CA@GIAOLHJD@?$AAs?$AAp?$AAa?$AAn?$AAi?$AAs?$AAh?$AA?9?$AAb?$AAo?$AAl?$AAi?$AAv?$AAi?$AAa?$AA?$AA@ 1005597c     LIBCMT:getqloc.obj
 0002:0001299c       ??_C@_1BM@OJNDFNPD@?$AAs?$AAp?$AAa?$AAn?$AAi?$AAs?$AAh?$AA?9?$AAc?$AAh?$AAi?$AAl?$AAe?$AA?$AA@ 1005599c     LIBCMT:getqloc.obj
 0002:000129b8       ??_C@_1CC@OCOLPALL@?$AAs?$AAp?$AAa?$AAn?$AAi?$AAs?$AAh?$AA?9?$AAc?$AAo?$AAl?$AAo?$AAm?$AAb?$AAi?$AAa?$AA?$AA@ 100559b8     LIBCMT:getqloc.obj
 0002:000129dc       ??_C@_1CG@BPOFMKBB@?$AAs?$AAp?$AAa?$AAn?$AAi?$AAs?$AAh?$AA?9?$AAc?$AAo?$AAs?$AAt?$AAa?$AA?5?$AAr?$AAi?$AAc?$AAa?$AA?$AA@ 100559dc     LIBCMT:getqloc.obj
 0002:00012a04       ??_C@_1DG@IGOBAPBB@?$AAs?$AAp?$AAa?$AAn?$AAi?$AAs?$AAh?$AA?9?$AAd?$AAo?$AAm?$AAi?$AAn?$AAi?$AAc?$AAa?$AAn?$AA?5?$AAr?$AAe?$AAp?$AAu?$AAb?$AAl?$AAi?$AAc?$AA?$AA@ 10055a04     LIBCMT:getqloc.obj
 0002:00012a3c       ??_C@_1CA@JHAPGEGI@?$AAs?$AAp?$AAa?$AAn?$AAi?$AAs?$AAh?$AA?9?$AAe?$AAc?$AAu?$AAa?$AAd?$AAo?$AAr?$AA?$AA@ 10055a3c     LIBCMT:getqloc.obj
 0002:00012a5c       ??_C@_1CI@LAPALJPP@?$AAs?$AAp?$AAa?$AAn?$AAi?$AAs?$AAh?$AA?9?$AAe?$AAl?$AA?5?$AAs?$AAa?$AAl?$AAv?$AAa?$AAd?$AAo?$AAr?$AA?$AA@ 10055a5c     LIBCMT:getqloc.obj
 0002:00012a84       ??_C@_1CE@PDGBOFOM@?$AAs?$AAp?$AAa?$AAn?$AAi?$AAs?$AAh?$AA?9?$AAg?$AAu?$AAa?$AAt?$AAe?$AAm?$AAa?$AAl?$AAa?$AA?$AA@ 10055a84     LIBCMT:getqloc.obj
 0002:00012aa8       ??_C@_1CC@NBEBAODI@?$AAs?$AAp?$AAa?$AAn?$AAi?$AAs?$AAh?$AA?9?$AAh?$AAo?$AAn?$AAd?$AAu?$AAr?$AAa?$AAs?$AA?$AA@ 10055aa8     LIBCMT:getqloc.obj
 0002:00012acc       ??_C@_1CA@LLKGHBMF@?$AAs?$AAp?$AAa?$AAn?$AAi?$AAs?$AAh?$AA?9?$AAm?$AAe?$AAx?$AAi?$AAc?$AAa?$AAn?$AA?$AA@ 10055acc     LIBCMT:getqloc.obj
 0002:00012aec       ??_C@_1BO@LKNDOIGD@?$AAs?$AAp?$AAa?$AAn?$AAi?$AAs?$AAh?$AA?9?$AAm?$AAo?$AAd?$AAe?$AAr?$AAn?$AA?$AA@ 10055aec     LIBCMT:getqloc.obj
 0002:00012b0c       ??_C@_1CE@NMDMOEEB@?$AAs?$AAp?$AAa?$AAn?$AAi?$AAs?$AAh?$AA?9?$AAn?$AAi?$AAc?$AAa?$AAr?$AAa?$AAg?$AAu?$AAa?$AA?$AA@ 10055b0c     LIBCMT:getqloc.obj
 0002:00012b30       ??_C@_1BO@LLCBEJGB@?$AAs?$AAp?$AAa?$AAn?$AAi?$AAs?$AAh?$AA?9?$AAp?$AAa?$AAn?$AAa?$AAm?$AAa?$AA?$AA@ 10055b30     LIBCMT:getqloc.obj
 0002:00012b50       ??_C@_1CC@FKPGGIHO@?$AAs?$AAp?$AAa?$AAn?$AAi?$AAs?$AAh?$AA?9?$AAp?$AAa?$AAr?$AAa?$AAg?$AAu?$AAa?$AAy?$AA?$AA@ 10055b50     LIBCMT:getqloc.obj
 0002:00012b74       ??_C@_1BK@CDEIHOOP@?$AAs?$AAp?$AAa?$AAn?$AAi?$AAs?$AAh?$AA?9?$AAp?$AAe?$AAr?$AAu?$AA?$AA@ 10055b74     LIBCMT:getqloc.obj
 0002:00012b90       ??_C@_1CI@GAHAKKGP@?$AAs?$AAp?$AAa?$AAn?$AAi?$AAs?$AAh?$AA?9?$AAp?$AAu?$AAe?$AAr?$AAt?$AAo?$AA?5?$AAr?$AAi?$AAc?$AAo?$AA?$AA@ 10055b90     LIBCMT:getqloc.obj
 0002:00012bb8       ??_C@_1CA@NKJBCAGP@?$AAs?$AAp?$AAa?$AAn?$AAi?$AAs?$AAh?$AA?9?$AAu?$AAr?$AAu?$AAg?$AAu?$AAa?$AAy?$AA?$AA@ 10055bb8     LIBCMT:getqloc.obj
 0002:00012bd8       ??_C@_1CE@ODILCONM@?$AAs?$AAp?$AAa?$AAn?$AAi?$AAs?$AAh?$AA?9?$AAv?$AAe?$AAn?$AAe?$AAz?$AAu?$AAe?$AAl?$AAa?$AA?$AA@ 10055bd8     LIBCMT:getqloc.obj
 0002:00012bfc       ??_C@_1CA@OBNMCGFO@?$AAs?$AAw?$AAe?$AAd?$AAi?$AAs?$AAh?$AA?9?$AAf?$AAi?$AAn?$AAl?$AAa?$AAn?$AAd?$AA?$AA@ 10055bfc     LIBCMT:getqloc.obj
 0002:00012c1c       ??_C@_1M@PIPDDPPI@?$AAs?$AAw?$AAi?$AAs?$AAs?$AA?$AA@ 10055c1c     LIBCMT:getqloc.obj
 0002:00012c28       ??_C@_15GMFIMNFM@?$AAu?$AAs?$AA?$AA@ 10055c28     LIBCMT:getqloc.obj
 0002:00012c30       ??_C@_17HAEBFAGL@?$AAu?$AAs?$AAa?$AA?$AA@ 10055c30     LIBCMT:getqloc.obj
 0002:00012c38       ___rg_country              10055c38     LIBCMT:getqloc.obj
 0002:00012d4c       ??_C@_1BA@DPFJEPHB@?$AAa?$AAm?$AAe?$AAr?$AAi?$AAc?$AAa?$AA?$AA@ 10055d4c     LIBCMT:getqloc.obj
 0002:00012d5c       ??_C@_1BA@ELOGGFK@?$AAb?$AAr?$AAi?$AAt?$AAa?$AAi?$AAn?$AA?$AA@ 10055d5c     LIBCMT:getqloc.obj
 0002:00012d6c       ??_C@_1M@GHBGIGDA@?$AAc?$AAh?$AAi?$AAn?$AAa?$AA?$AA@ 10055d6c     LIBCMT:getqloc.obj
 0002:00012d78       ??_C@_1M@NCHEJOPO@?$AAc?$AAz?$AAe?$AAc?$AAh?$AA?$AA@ 10055d78     LIBCMT:getqloc.obj
 0002:00012d84       ??_C@_1BA@BKPAPBLA@?$AAe?$AAn?$AAg?$AAl?$AAa?$AAn?$AAd?$AA?$AA@ 10055d84     LIBCMT:getqloc.obj
 0002:00012d94       ??_C@_1BM@HKBCKIPC@?$AAg?$AAr?$AAe?$AAa?$AAt?$AA?5?$AAb?$AAr?$AAi?$AAt?$AAa?$AAi?$AAn?$AA?$AA@ 10055d94     LIBCMT:getqloc.obj
 0002:00012db0       ??_C@_1BA@PPCHPGJB@?$AAh?$AAo?$AAl?$AAl?$AAa?$AAn?$AAd?$AA?$AA@ 10055db0     LIBCMT:getqloc.obj
 0002:00012dc0       ??_C@_1BE@JBMPEGDG@?$AAh?$AAo?$AAn?$AAg?$AA?9?$AAk?$AAo?$AAn?$AAg?$AA?$AA@ 10055dc0     LIBCMT:getqloc.obj
 0002:00012dd4       ??_C@_1BI@KOELBBPJ@?$AAn?$AAe?$AAw?$AA?9?$AAz?$AAe?$AAa?$AAl?$AAa?$AAn?$AAd?$AA?$AA@ 10055dd4     LIBCMT:getqloc.obj
 0002:00012dec       ??_C@_15HIEBHAIO@?$AAn?$AAz?$AA?$AA@ 10055dec     LIBCMT:getqloc.obj
 0002:00012df4       ??_C@_1BC@CHBCPFPI@?$AAp?$AAr?$AA?5?$AAc?$AAh?$AAi?$AAn?$AAa?$AA?$AA@ 10055df4     LIBCMT:getqloc.obj
 0002:00012e08       ??_C@_1BC@JAOIIFKD@?$AAp?$AAr?$AA?9?$AAc?$AAh?$AAi?$AAn?$AAa?$AA?$AA@ 10055e08     LIBCMT:getqloc.obj
 0002:00012e1c       ??_C@_1BI@BEHPPHKC@?$AAp?$AAu?$AAe?$AAr?$AAt?$AAo?$AA?9?$AAr?$AAi?$AAc?$AAo?$AA?$AA@ 10055e1c     LIBCMT:getqloc.obj
 0002:00012e34       ??_C@_1O@PAEOFKDI@?$AAs?$AAl?$AAo?$AAv?$AAa?$AAk?$AA?$AA@ 10055e34     LIBCMT:getqloc.obj
 0002:00012e44       ??_C@_1BK@FIHMCKAM@?$AAs?$AAo?$AAu?$AAt?$AAh?$AA?5?$AAa?$AAf?$AAr?$AAi?$AAc?$AAa?$AA?$AA@ 10055e44     LIBCMT:getqloc.obj
 0002:00012e60       ??_C@_1BI@NAEOODKB@?$AAs?$AAo?$AAu?$AAt?$AAh?$AA?5?$AAk?$AAo?$AAr?$AAe?$AAa?$AA?$AA@ 10055e60     LIBCMT:getqloc.obj
 0002:00012e78       ??_C@_1BK@FBDGGIFF@?$AAs?$AAo?$AAu?$AAt?$AAh?$AA?9?$AAa?$AAf?$AAr?$AAi?$AAc?$AAa?$AA?$AA@ 10055e78     LIBCMT:getqloc.obj
 0002:00012e94       ??_C@_1BI@GHLEJDPK@?$AAs?$AAo?$AAu?$AAt?$AAh?$AA?9?$AAk?$AAo?$AAr?$AAe?$AAa?$AA?$AA@ 10055e94     LIBCMT:getqloc.obj
 0002:00012eac       ??_C@_1CE@PLHLOMJF@?$AAt?$AAr?$AAi?$AAn?$AAi?$AAd?$AAa?$AAd?$AA?5?$AA?$CG?$AA?5?$AAt?$AAo?$AAb?$AAa?$AAg?$AAo?$AA?$AA@ 10055eac     LIBCMT:getqloc.obj
 0002:00012ed0       ??_C@_1BO@MODIMHHI@?$AAu?$AAn?$AAi?$AAt?$AAe?$AAd?$AA?9?$AAk?$AAi?$AAn?$AAg?$AAd?$AAo?$AAm?$AA?$AA@ 10055ed0     LIBCMT:getqloc.obj
 0002:00012ef0       ??_C@_1BM@FFHJONBJ@?$AAu?$AAn?$AAi?$AAt?$AAe?$AAd?$AA?9?$AAs?$AAt?$AAa?$AAt?$AAe?$AAs?$AA?$AA@ 10055ef0     LIBCMT:getqloc.obj
 0002:00012f0c       ___rg_language_count       10055f0c     LIBCMT:getqloc.obj
 0002:00012f10       ___rg_country_count        10055f10     LIBCMT:getqloc.obj
 0002:00012f14       ??_C@_17DNCLJFIF@?$AAA?$AAC?$AAP?$AA?$AA@ 10055f14     LIBCMT:getqloc.obj
 0002:00012f1c       ??_C@_17CIKBIHLH@?$AAO?$AAC?$AAP?$AA?$AA@ 10055f1c     LIBCMT:getqloc.obj
 0002:00012f24       ___rglangidNotDefault      10055f24     LIBCMT:getqloc_downlevel.obj
 0002:00012f38       __real@00000000            10055f38     LIBCMT:wcstoq.obj
 0002:00012f40       __load_config_used         10055f40     LIBCMT:loadcfg.obj
 0002:00015260       ___safe_se_handler_table   10058260     <linker-defined>
 0002:00015370       ___rtc_iaa                 10058370     LIBCMT:initsect.obj
 0002:00015474       ___rtc_izz                 10058474     LIBCMT:initsect.obj
 0002:00015578       ___rtc_taa                 10058578     LIBCMT:initsect.obj
 0002:0001567c       ___rtc_tzz                 1005867c     LIBCMT:initsect.obj
 0003:00000680       _FingerStrokeAssistance_P  1005a680     FingerStrokeAssistance_data.obj
 0003:00001080       _pci20041digout            1005b080     xpctarget.obj
 0003:00001084       _nipcdio24cnfg             1005b084     xpctarget.obj
 0003:00001088       _rtddm6604cnfg             1005b088     xpctarget.obj
 0003:000017b0       _DefaultCOMIOBase          1005b7b0     xpcruntime:xpcimports.obj
 0003:000017c0       _DefaultCOMIRQ             1005b7c0     xpcruntime:xpcimports.obj
 0003:000017d0       __fltused                  1005b7d0     LIBCMT:fpinit.obj
 0003:000017d4       __ldused                   1005b7d4     LIBCMT:fpinit.obj
 0003:000017e0       __iob                      1005b7e0     LIBCMT:_file.obj
 0003:00001a60       ___isa_enabled             1005ba60     LIBCMT:cpu_disp.obj
 0003:00001a64       ___security_cookie         1005ba64     LIBCMT:gs_cookie.obj
 0003:00001a68       ___security_cookie_complement 1005ba68     LIBCMT:gs_cookie.obj
 0003:00001c40       ___nullstring              1005bc40     LIBCMT:output.obj
 0003:00001c44       ___wnullstring             1005bc44     LIBCMT:output.obj
 0003:00001c54       __cfltcvt_tab              1005bc54     LIBCMT:cmiscdat.obj
 0003:00001da0       __mbctype                  1005bda0     LIBCMT:mbctype.obj
 0003:00001ea8       __mbcasemap                1005bea8     LIBCMT:mbctype.obj
 0003:00001fa8       ___initialmbcinfo          1005bfa8     LIBCMT:mbctype.obj
 0003:000021cc       ___ptmbcinfo               1005c1cc     LIBCMT:mbctype.obj
 0003:000022c0       ___badioinfo               1005c2c0     LIBCMT:ioinit.obj
 0003:00002300       __lookuptrailbytes         1005c300     LIBCMT:read.obj
 0003:00002400       __d_inf                    1005c400     LIBCMT:util.obj
 0003:00002408       __d_ind                    1005c408     LIBCMT:util.obj
 0003:00002410       __d_max                    1005c410     LIBCMT:util.obj
 0003:00002418       __d_min                    1005c418     LIBCMT:util.obj
 0003:00002420       __d_mzero                  1005c420     LIBCMT:util.obj
 0003:0000252c       ___abort_behavior          1005c52c     LIBCMT:abort.obj
 0003:00002530       ___flsindex                1005c530     LIBCMT:tidtable.obj
 0003:00002540       ___mb_cur_max              1005c540     LIBCMT:nlsdata.obj
 0003:00002544       ___wclocalestr             1005c544     LIBCMT:nlsdata.obj
 0003:00002548       ___lc_time_c               1005c548     LIBCMT:nlsdata.obj
 0003:000026ac       ___ptlocinfo               1005c6ac     LIBCMT:nlsdata.obj
 0003:000026b0       ___initiallocinfo          1005c6b0     LIBCMT:nlsdata.obj
 0003:00002768       ___initiallocalestructinfo 1005c768     LIBCMT:nlsdata.obj
 0003:00002770       ___globallocalestatus      1005c770     LIBCMT:glstatus.obj
 0003:00002774       __matherr_flag             1005c774     LIBCMT:matherr.obj
 0003:00002780       __NLG_Destination          1005c780     LIBCMT:exsup.obj
 0003:00002790       ___lconv                   1005c790     LIBCMT:lconv.obj
 0003:00002794       ___lconv_static_decimal    1005c794     LIBCMT:lconv.obj
 0003:00002798       ___lconv_c                 1005c798     LIBCMT:lconv.obj
 0003:000027e8       ___lconv_static_W_decimal  1005c7e8     LIBCMT:lconv.obj
 0003:000027ec       __pctype                   1005c7ec     LIBCMT:ctype.obj
 0003:000027f0       __pwctype                  1005c7f0     LIBCMT:ctype.obj
 0003:00002830       __confh                    1005c830     LIBCMT:initcon.obj
 0003:00002838       __pow10pos                 1005c838     LIBCMT:constpow.obj
 0003:00002998       __pow10neg                 1005c998     LIBCMT:constpow.obj
 0003:00002b00       __HUGE                     1005cb00     LIBCMT:huge.obj
 0003:00003070       ___isa_available_default   1005d070     rt_logging.obj
 0003:00003080       _pci20098PortA             1005d080     xpctarget.obj
 0003:00003084       _pci20098PortB             1005d084     xpctarget.obj
 0003:00003088       _siepowercan_firmware_initialized 1005d088     xpctarget.obj
 0003:0000308c       _siepowercan_port1_configured 1005d08c     xpctarget.obj
 0003:00003090       _siepowercan_port2_configured 1005d090     xpctarget.obj
 0003:00003094       _CANAC2_FIRMWARE_LOADED    1005d094     xpctarget.obj
 0003:00003098       _rs232ports                1005d098     xpctarget.obj
 0003:000030a8       _NI_AT_MIO_16F_5_commreg2  1005d0a8     xpctarget.obj
 0003:000030ac       _RTD_DM6430_init           1005d0ac     xpctarget.obj
 0003:000030b0       _RTD_DM6420_init           1005d0b0     xpctarget.obj
 0003:000030b4       _CANAC2_FIRMWARE_LOADED_mb1 1005d0b4     xpctarget.obj
 0003:000030b8       _CANAC2_FIRMWARE_LOADED_mb2 1005d0b8     xpctarget.obj
 0003:000030bc       _CANAC2_FIRMWARE_LOADED_mb3 1005d0bc     xpctarget.obj
 0003:000030c0       _xmlsize                   1005d0c0     xpctarget.obj
 0003:000037c8       ___fastflag                1005d7c8     LIBCMT:fpinit.obj
 0003:00003af0       __C_Exit_Done              1005daf0     LIBCMT:crt0dat.obj
 0003:00003af4       ___argc                    1005daf4     LIBCMT:crt0dat.obj
 0003:00003af8       ___argv                    1005daf8     LIBCMT:crt0dat.obj
 0003:00003afc       ___wargv                   1005dafc     LIBCMT:crt0dat.obj
 0003:00003b00       __environ                  1005db00     LIBCMT:crt0dat.obj
 0003:00003b04       __wenviron                 1005db04     LIBCMT:crt0dat.obj
 0003:00003b08       __pgmptr                   1005db08     LIBCMT:crt0dat.obj
 0003:00003b0c       __wpgmptr                  1005db0c     LIBCMT:crt0dat.obj
 0003:00003b10       __umaskval                 1005db10     LIBCMT:crt0dat.obj
 0003:00003b14       __exitflag                 1005db14     LIBCMT:crt0dat.obj
 0003:00003b18       __C_Termination_Done       1005db18     LIBCMT:crt0dat.obj
 0003:00003b1c       ___winitenv                1005db1c     LIBCMT:crt0dat.obj
 0003:00003b20       ___initenv                 1005db20     LIBCMT:crt0dat.obj
 0003:00003b24       __cflush                   1005db24     LIBCMT:_file.obj
 0003:00003b28       ___isa_available           1005db28     LIBCMT:cpu_disp.obj
 0003:00003b2c       ___favor                   1005db2c     LIBCMT:cpu_disp.obj
 0003:00003b34       __aenvptr                  1005db34     LIBCMT:dllcrt0.obj
 0003:00003b38       __wenvptr                  1005db38     LIBCMT:dllcrt0.obj
 0003:00003b3c       ?_pnhHeap@@3P6AHI@ZA       1005db3c     LIBCMT:handler.obj
 0003:00003b40       ___app_type                1005db40     LIBCMT:crt0msg.obj
 0003:00004170       __newmode                  1005e170     LIBCMT:_newmode.obj
 0003:00004174       __crtheap                  1005e174     LIBCMT:heapinit.obj
 0003:00004178       ___pInvalidArgHandler      1005e178     LIBCMT:invarg.obj
 0003:0000417c       __stdbuf                   1005e17c     LIBCMT:_sftbuf.obj
 0003:000042d8       __maxwait                  1005e2d8     LIBCMT:crtheap.obj
 0003:000042dc       ?__pInconsistency@@3P6AXXZA 1005e2dc     LIBCMT:hooks.obj
 0003:000042e0       ___pPurecall               1005e2e0     LIBCMT:inithelp.obj
 0003:000042fc       ___mbcodepage              1005e2fc     LIBCMT:mbctype.obj
 0003:00004300       ___ismbcodepage            1005e300     LIBCMT:mbctype.obj
 0003:00004304       ___mbulinfo                1005e304     LIBCMT:mbctype.obj
 0003:00004310       ___mblocalename            1005e310     LIBCMT:mbctype.obj
 0003:00004318       ___pioinfo                 1005e318     LIBCMT:ioinit.obj
 0003:00004418       ___error_mode              1005e418     LIBCMT:errmode.obj
 0003:00004538       __outputformat             1005e538     LIBCMT:outputformat.obj
 0003:00004540       __commode                  1005e540     LIBCMT:ncommode.obj
 0003:00004544       ___lconv_static_null       1005e544     LIBCMT:lconv.obj
 0003:00004548       ___lconv_static_W_null     1005e548     LIBCMT:lconv.obj
 0003:0000454c       ___locale_changed          1005e54c     LIBCMT:wsetloca.obj
 0003:00004550       __fmode                    1005e550     LIBCMT:txtmode.obj
 0003:00004560       _CANAC2_2_receiveindex_mb3 1005e560     <common>
 0003:00007634       _CANAC2_2_receivemaxindex_mb3 10061634     <common>
 0003:00007640       _CANAC2_2_sendindex_mb3    10061640     <common>
 0003:00007960       _CANAC2_2_sendmaxindex_mb3 10061960     <common>
 0003:00007980       _CANAC2_1_receiveindex_mb3 10061980     <common>
 0003:00007ca0       _CANAC2_1_receivemaxindex_mb3 10061ca0     <common>
 0003:00007cc0       _CANAC2_1_sendindex_mb3    10061cc0     <common>
 0003:00007fe0       _CANAC2_1_sendmaxindex_mb3 10061fe0     <common>
 0003:00008000       _CANAC2_2_receive_mb3      10062000     <common>
 0003:00008320       _CANAC2_2_send_mb3         10062320     <common>
 0003:00008640       _CANAC2_1_receive_mb3      10062640     <common>
 0003:00008960       _CANAC2_1_send_mb3         10062960     <common>
 0003:00008c80       _CANAC2_2_receiveindex_mb2 10062c80     <common>
 0003:00008fa0       _CANAC2_2_receivemaxindex_mb2 10062fa0     <common>
 0003:00008fc0       _CANAC2_2_sendindex_mb2    10062fc0     <common>
 0003:000092e0       _CANAC2_2_sendmaxindex_mb2 100632e0     <common>
 0003:00009300       _CANAC2_1_receiveindex_mb2 10063300     <common>
 0003:00009620       _CANAC2_1_receivemaxindex_mb2 10063620     <common>
 0003:00009640       _CANAC2_1_sendindex_mb2    10063640     <common>
 0003:00009960       _CANAC2_1_sendmaxindex_mb2 10063960     <common>
 0003:00009980       _CANAC2_2_receive_mb2      10063980     <common>
 0003:00009ca0       _CANAC2_2_send_mb2         10063ca0     <common>
 0003:00009fc0       _CANAC2_1_receive_mb2      10063fc0     <common>
 0003:0000a2e0       _CANAC2_1_send_mb2         100642e0     <common>
 0003:0000a600       _CANAC2_2_receiveindex_mb1 10064600     <common>
 0003:0000a920       _CANAC2_2_receivemaxindex_mb1 10064920     <common>
 0003:0000a940       _CANAC2_2_sendindex_mb1    10064940     <common>
 0003:0000ac60       _CANAC2_2_sendmaxindex_mb1 10064c60     <common>
 0003:0000ac80       _CANAC2_1_receiveindex_mb1 10064c80     <common>
 0003:0000afa0       _CANAC2_1_receivemaxindex_mb1 10064fa0     <common>
 0003:0000afc0       _CANAC2_1_sendindex_mb1    10064fc0     <common>
 0003:0000b2e0       _CANAC2_1_sendmaxindex_mb1 100652e0     <common>
 0003:0000b300       _CANAC2_2_receive_mb1      10065300     <common>
 0003:0000b620       _CANAC2_2_send_mb1         10065620     <common>
 0003:0000b940       _CANAC2_1_receive_mb1      10065940     <common>
 0003:0000bc60       _CANAC2_1_send_mb1         10065c60     <common>
 0003:0000bf80       _CANAC2_2_receiveindex     10065f80     <common>
 0003:0000c2a0       _CANAC2_2_receivemaxindex  100662a0     <common>
 0003:0000c2c0       _CANAC2_2_sendindex        100662c0     <common>
 0003:0000c5e0       _CANAC2_2_sendmaxindex     100665e0     <common>
 0003:0000c600       _CANAC2_1_receiveindex     10066600     <common>
 0003:0000c920       _CANAC2_1_receivemaxindex  10066920     <common>
 0003:0000c940       _CANAC2_1_sendindex        10066940     <common>
 0003:0000cc60       _CANAC2_1_sendmaxindex     10066c60     <common>
 0003:0000cc80       _CANAC2_2_receive          10066c80     <common>
 0003:0000cfa0       _CANAC2_2_send             10066fa0     <common>
 0003:0000d2c0       _CANAC2_1_receive          100672c0     <common>
 0003:0000d5e0       _CANAC2_1_send             100675e0     <common>
 0003:0000d900       _siepowercan_can_object_buffer_port2 10067900     <common>
 0003:00011920       _siepowercan_can_object_buffer_port1 1006b920     <common>
 0003:00015920       _rtNaNF                    1006f920     <common>
 0003:00015934       _rtMinusInfF               1006f934     <common>
 0003:00015938       _rtInfF                    1006f938     <common>
 0003:00015940       _rtNaN                     1006f940     <common>
 0003:00015948       _rtMinusInf                1006f948     <common>
 0003:00015950       _rtInf                     1006f950     <common>
 0003:00015960       _FingerStrokeAssistance_M_ 1006f960     <common>
 0003:000177da       _FingerStrokeAssistance_PrevZCX 100717da     <common>
 0003:000177e0       _FingerStrokeAssistance_Y  100717e0     <common>
 0003:00017820       _FingerStrokeAssistance_DW 10071820     <common>
 0003:00018260       _FingerStrokeAssistance_B  10072260     <common>
 0003:000188b8       _xpceaddEvent              100728b8     <common>
 0003:00018908       _xpceDeRegisterISR         10072908     <common>
 0003:0001890c       _xpceRegisterISR           1007290c     <common>
 0003:00018910       _xpcIsModelInit            10072910     <common>
 0003:00018914       _xpcGetElapsedTime         10072914     <common>
 0003:00018918       _xpcBusyWait               10072918     <common>
 0003:0001891c       _xpcFreePhysicalMemory     1007291c     <common>
 0003:00018920       _xpcAllocPhysicalMemory    10072920     <common>
 0003:00018924       _xpcReserveMemoryRegion    10072924     <common>
 0003:00018928       _xpcOutpB                  10072928     <common>
 0003:0001892c       _xpcOutpW                  1007292c     <common>
 0003:00018930       _xpcOutpDW                 10072930     <common>
 0003:00018934       _xpcInpB                   10072934     <common>
 0003:00018938       _xpcInpW                   10072938     <common>
 0003:0001893c       _xpcInpDW                  1007293c     <common>
 0003:00018940       _slTestRegAssessment       10072940     <common>
 0003:00018944       _slTestTerminate           10072944     <common>
 0003:00018948       _slTestEvalOnFail          10072948     <common>
 0003:0001894c       _slTestLogAssessments      1007294c     <common>
 0003:00018950       _slTestInitialize          10072950     <common>
 0003:00018954       _unRegisterPTPTimeRead     10072954     <common>
 0003:00018958       _registerPTPTimeRead       10072958     <common>
 0003:0001895c       _slrteGetCurrentStepSize   1007295c     <common>
 0003:00018960       _slrteSetStepSizeDelta     10072960     <common>
 0003:00018964       _xpceGetIntTimerGranularityNS 10072964     <common>
 0003:00018968       _sendToAsyncQueueTgtAppSvc 10072968     <common>
 0003:0001896c       _terminateToAsyncQueueTgtAppSvc 1007296c     <common>
 0003:00018970       _startToAsyncQueueTgtAppSvc 10072970     <common>
 0003:00018974       _getStatusFlags            10072974     <common>
 0003:00018978       _getCommService            10072978     <common>
 0003:0001897c       _getMemoryService          1007297c     <common>
 0003:00018980       _StreamVideo               10072980     <common>
 0003:00018984       _StopVideoDisplay          10072984     <common>
 0003:00018988       _StartVideoDisplay         10072988     <common>
 0003:0001898c       _DestroyVideoDisplay       1007298c     <common>
 0003:00018990       _CreateVideoDisplay        10072990     <common>
 0003:00018994       _ConvertUImage             10072994     <common>
 0003:00018998       _StopVideo                 10072998     <common>
 0003:0001899c       _ReadFrameBuffer           1007299c     <common>
 0003:000189a0       _StartVideo                100729a0     <common>
 0003:000189a4       _GetVideoConfigs           100729a4     <common>
 0003:000189a8       _FindUsbVideoDevice        100729a8     <common>
 0003:000189ac       _xpceDeleteSemaphore       100729ac     <common>
 0003:000189b0       _xpceSignalSemaphore       100729b0     <common>
 0003:000189b4       _xpceWaitSemaphore         100729b4     <common>
 0003:000189b8       _xpceCreateSemaphore       100729b8     <common>
 0003:000189bc       _TBGiveSpinFast            100729bc     <common>
 0003:000189c0       _TBTakeSpinFast            100729c0     <common>
 0003:000189c4       _TBDeleteSpin              100729c4     <common>
 0003:000189c8       _TBCreateSpin              100729c8     <common>
 0003:000189cc       _xpceScopeAcqOK            100729cc     <common>
 0003:000189d0       _rl32eRestartAcquisition   100729d0     <common>
 0003:000189d4       _rl32eSetTargetScopeSigFt  100729d4     <common>
 0003:000189d8       _rl32eSetTargetScope       100729d8     <common>
 0003:000189dc       _xpceFSScopeSet            100729dc     <common>
 0003:000189e0       _rl32eSetScope             100729e0     <common>
 0003:000189e4       _rl32eAddSignal            100729e4     <common>
 0003:000189e8       _rl32eGetSignalNo          100729e8     <common>
 0003:000189ec       _rl32eDefScope             100729ec     <common>
 0003:000189f0       _rl32eScopeExists          100729f0     <common>
 0003:000189f4       _xpceUDPClose              100729f4     <common>
 0003:000189f8       _xpceUDPReceive            100729f8     <common>
 0003:000189fc       _xpceUDPSend               100729fc     <common>
 0003:00018a00       _xpceUDPOpenReceive        10072a00     <common>
 0003:00018a04       _xpceUDPOpenSend           10072a04     <common>
 0003:00018a08       _rl32eSendBlock            10072a08     <common>
 0003:00018a0c       _rl32eLineStatus           10072a0c     <common>
 0003:00018a10       _rl32eReceiveBufferCount   10072a10     <common>
 0003:00018a14       _rl32eReceiveChar          10072a14     <common>
 0003:00018a18       _rl32eSendChar             10072a18     <common>
 0003:00018a1c       _rl32eCloseCOMPort         10072a1c     <common>
 0003:00018a20       _rl32eInitCOMPort          10072a20     <common>
 0003:00018a24       _xpceGetParamDims          10072a24     <common>
 0003:00018a28       _xpceGetParameter          10072a28     <common>
 0003:00018a2c       _xpceSetParameter          10072a2c     <common>
 0003:00018a30       _xpceGetSignalValue        10072a30     <common>
 0003:00018a34       _xpceAssignPCIInterrupt    10072a34     <common>
 0003:00018a38       _rl32eGetPCIInfoAtSlot     10072a38     <common>
 0003:00018a3c       _rl32eGetPCIInfo           10072a3c     <common>
 0003:00018a40       _rl32eShowPCIInfo          10072a40     <common>
 0003:00018a44       _rl32eShowPCIDev           10072a44     <common>
 0003:00018a48       _xpceGetTET                10072a48     <common>
 0003:00018a4c       _xpceFTSubtract            10072a4c     <common>
 0003:00018a50       _xpceFTAdd                 10072a50     <common>
 0003:00018a54       _xpceFTReadTime            10072a54     <common>
 0003:00018a58       ___unguarded_readlc_active 10072a58     <common>
 0003:00018a68       ___setlc_active            10072a68     <common>
 0003:00018a6c       __nhandle                  10072a6c     <common>
 0003:00018a80       _encodedKERNEL32Functions  10072a80     <common>
 0003:00018b28       __debugger_hook_dummy      10072b28     <common>
 0003:00018b34       ___use_sse2_mathfcns       10072b34     <common>
 0003:00018b40       __pmatherr                 10072b40     <common>
 0003:00018b4c       __pDestructExceptionObject 10072b4c     <common>
 0003:00018b58       __acmdln                   10072b58     <common>
 0003:00018b80       __bufin                    10072b80     <common>
 0003:00019ebc       ___piob                    10073ebc     <common>
 0003:00019ec0       __nstream                  10073ec0     <common>
 0003:00019ec4       ___dyn_tls_init_callback   10073ec4     <common>
 0003:00019ed4       ___onexitend               10073ed4     <common>
 0003:00019ed8       ___onexitbegin             10073ed8     <common>
 0003:00019edc       ___mbctype_initialized     10073edc     <common>
 0003:00019ee0       ___env_initialized         10073ee0     <common>
 0004:00000000       __imp__GetModuleHandleA@4  10074000     kernel32:KERNEL32.dll
 0004:00000004       __imp__GetProcAddress@8    10074004     kernel32:KERNEL32.dll
 0004:00000008       __imp__HeapAlloc@12        10074008     kernel32:KERNEL32.dll
 0004:0000000c       __imp__IsDebuggerPresent@0 1007400c     kernel32:KERNEL32.dll
 0004:00000010       __imp__IsProcessorFeaturePresent@4 10074010     kernel32:KERNEL32.dll
 0004:00000014       __imp__EncodePointer@4     10074014     kernel32:KERNEL32.dll
 0004:00000018       __imp__DecodePointer@4     10074018     kernel32:KERNEL32.dll
 0004:0000001c       __imp__GetLastError@0      1007401c     kernel32:KERNEL32.dll
 0004:00000020       __imp__ExitProcess@4       10074020     kernel32:KERNEL32.dll
 0004:00000024       __imp__GetModuleHandleExW@12 10074024     kernel32:KERNEL32.dll
 0004:00000028       __imp__AreFileApisANSI@0   10074028     kernel32:KERNEL32.dll
 0004:0000002c       __imp__MultiByteToWideChar@24 1007402c     kernel32:KERNEL32.dll
 0004:00000030       __imp__WideCharToMultiByte@32 10074030     kernel32:KERNEL32.dll
 0004:00000034       __imp__HeapFree@12         10074034     kernel32:KERNEL32.dll
 0004:00000038       __imp__HeapReAlloc@16      10074038     kernel32:KERNEL32.dll
 0004:0000003c       __imp__EnterCriticalSection@4 1007403c     kernel32:KERNEL32.dll
 0004:00000040       __imp__LeaveCriticalSection@4 10074040     kernel32:KERNEL32.dll
 0004:00000044       __imp__GetStdHandle@4      10074044     kernel32:KERNEL32.dll
 0004:00000048       __imp__GetFileType@4       10074048     kernel32:KERNEL32.dll
 0004:0000004c       __imp__GetModuleFileNameW@12 1007404c     kernel32:KERNEL32.dll
 0004:00000050       __imp__WriteConsoleW@20    10074050     kernel32:KERNEL32.dll
 0004:00000054       __imp__GetCommandLineA@0   10074054     kernel32:KERNEL32.dll
 0004:00000058       __imp__GetCurrentThreadId@0 10074058     kernel32:KERNEL32.dll
 0004:0000005c       __imp__WriteFile@20        1007405c     kernel32:KERNEL32.dll
 0004:00000060       __imp__GetProcessHeap@0    10074060     kernel32:KERNEL32.dll
 0004:00000064       __imp__UnhandledExceptionFilter@4 10074064     kernel32:KERNEL32.dll
 0004:00000068       __imp__SetUnhandledExceptionFilter@4 10074068     kernel32:KERNEL32.dll
 0004:0000006c       __imp__SetLastError@4      1007406c     kernel32:KERNEL32.dll
 0004:00000070       __imp__InitializeCriticalSectionAndSpinCount@8 10074070     kernel32:KERNEL32.dll
 0004:00000074       __imp__CreateEventW@16     10074074     kernel32:KERNEL32.dll
 0004:00000078       __imp__Sleep@4             10074078     kernel32:KERNEL32.dll
 0004:0000007c       __imp__GetCurrentProcess@0 1007407c     kernel32:KERNEL32.dll
 0004:00000080       __imp__TerminateProcess@8  10074080     kernel32:KERNEL32.dll
 0004:00000084       __imp__TlsAlloc@0          10074084     kernel32:KERNEL32.dll
 0004:00000088       __imp__TlsGetValue@4       10074088     kernel32:KERNEL32.dll
 0004:0000008c       __imp__TlsSetValue@8       1007408c     kernel32:KERNEL32.dll
 0004:00000090       __imp__TlsFree@4           10074090     kernel32:KERNEL32.dll
 0004:00000094       __imp__GetStartupInfoW@4   10074094     kernel32:KERNEL32.dll
 0004:00000098       __imp__GetTickCount@0      10074098     kernel32:KERNEL32.dll
 0004:0000009c       __imp__GetModuleHandleW@4  1007409c     kernel32:KERNEL32.dll
 0004:000000a0       __imp__CreateSemaphoreW@16 100740a0     kernel32:KERNEL32.dll
 0004:000000a4       __imp__DeleteCriticalSection@4 100740a4     kernel32:KERNEL32.dll
 0004:000000a8       __imp__FatalAppExitA@8     100740a8     kernel32:KERNEL32.dll
 0004:000000ac       __imp__SetConsoleCtrlHandler@8 100740ac     kernel32:KERNEL32.dll
 0004:000000b0       __imp__FreeLibrary@4       100740b0     kernel32:KERNEL32.dll
 0004:000000b4       __imp__LoadLibraryExW@12   100740b4     kernel32:KERNEL32.dll
 0004:000000b8       __imp__IsValidCodePage@4   100740b8     kernel32:KERNEL32.dll
 0004:000000bc       __imp__GetACP@0            100740bc     kernel32:KERNEL32.dll
 0004:000000c0       __imp__GetOEMCP@0          100740c0     kernel32:KERNEL32.dll
 0004:000000c4       __imp__GetCPInfo@8         100740c4     kernel32:KERNEL32.dll
 0004:000000c8       __imp__CloseHandle@4       100740c8     kernel32:KERNEL32.dll
 0004:000000cc       __imp__RtlUnwind@16        100740cc     kernel32:KERNEL32.dll
 0004:000000d0       __imp__ReadFile@20         100740d0     kernel32:KERNEL32.dll
 0004:000000d4       __imp__GetConsoleMode@8    100740d4     kernel32:KERNEL32.dll
 0004:000000d8       __imp__ReadConsoleW@20     100740d8     kernel32:KERNEL32.dll
 0004:000000dc       __imp__GetConsoleCP@0      100740dc     kernel32:KERNEL32.dll
 0004:000000e0       __imp__DeleteFileW@4       100740e0     kernel32:KERNEL32.dll
 0004:000000e4       __imp__SetFilePointerEx@20 100740e4     kernel32:KERNEL32.dll
 0004:000000e8       __imp__RaiseException@16   100740e8     kernel32:KERNEL32.dll
 0004:000000ec       __imp__OutputDebugStringW@4 100740ec     kernel32:KERNEL32.dll
 0004:000000f0       __imp__GetCurrentThread@0  100740f0     kernel32:KERNEL32.dll
 0004:000000f4       __imp__GetModuleFileNameA@12 100740f4     kernel32:KERNEL32.dll
 0004:000000f8       __imp__QueryPerformanceCounter@4 100740f8     kernel32:KERNEL32.dll
 0004:000000fc       __imp__GetCurrentProcessId@0 100740fc     kernel32:KERNEL32.dll
 0004:00000100       __imp__GetSystemTimeAsFileTime@4 10074100     kernel32:KERNEL32.dll
 0004:00000104       __imp__GetEnvironmentStringsW@0 10074104     kernel32:KERNEL32.dll
 0004:00000108       __imp__FreeEnvironmentStringsW@4 10074108     kernel32:KERNEL32.dll
 0004:0000010c       __imp__HeapSize@12         1007410c     kernel32:KERNEL32.dll
 0004:00000110       __imp__GetDateFormatW@24   10074110     kernel32:KERNEL32.dll
 0004:00000114       __imp__GetTimeFormatW@24   10074114     kernel32:KERNEL32.dll
 0004:00000118       __imp__CompareStringW@24   10074118     kernel32:KERNEL32.dll
 0004:0000011c       __imp__LCMapStringW@24     1007411c     kernel32:KERNEL32.dll
 0004:00000120       __imp__GetLocaleInfoW@16   10074120     kernel32:KERNEL32.dll
 0004:00000124       __imp__IsValidLocale@8     10074124     kernel32:KERNEL32.dll
 0004:00000128       __imp__GetUserDefaultLCID@0 10074128     kernel32:KERNEL32.dll
 0004:0000012c       __imp__EnumSystemLocalesW@8 1007412c     kernel32:KERNEL32.dll
 0004:00000130       __imp__GetStringTypeW@16   10074130     kernel32:KERNEL32.dll
 0004:00000134       __imp__FlushFileBuffers@4  10074134     kernel32:KERNEL32.dll
 0004:00000138       __imp__SetStdHandle@8      10074138     kernel32:KERNEL32.dll
 0004:0000013c       __imp__CreateFileW@28      1007413c     kernel32:KERNEL32.dll
 0004:00000140       __imp__SetEndOfFile@4      10074140     kernel32:KERNEL32.dll
 0004:00000144       \177KERNEL32_NULL_THUNK_DATA 10074144     kernel32:KERNEL32.dll
 0004:000001b0       __IMPORT_DESCRIPTOR_KERNEL32 100741b0     kernel32:KERNEL32.dll
 0004:000001c4       __NULL_IMPORT_DESCRIPTOR   100741c4     kernel32:KERNEL32.dll

 entry point at        0001:00017a23

