 FingerStrokeAssistance_xpc

 Timestamp is 5949b82a (Tue Jun 20 17:04:58 2017)

 Preferred load address is 10000000

 Start         Length     Name                   Class
 0001:00000000 000412afH .text$mn                CODE
 0002:00000000 00000104H .CRT$XCA                DATA
 0002:00000104 00000104H .CRT$XCZ                DATA
 0002:00000208 00000104H .CRT$XIA                DATA
 0002:0000030c 00000118H .CRT$XIC                DATA
 0002:00000424 00000104H .CRT$XIZ                DATA
 0002:00000528 00000104H .CRT$XPA                DATA
 0002:0000062c 00000109H .CRT$XPX                DATA
 0002:00000738 00000104H .CRT$XPXA               DATA
 0002:0000083c 00000104H .CRT$XPZ                DATA
 0002:00000940 00000104H .CRT$XTA                DATA
 0002:00000a44 00000104H .CRT$XTZ                DATA
 0002:00000b50 00014344H .rdata                  DATA
 0002:00014e94 000001bbH .rdata$debug            DATA
 0002:00015050 0000010eH .rdata$sxdata           DATA
 0002:00015160 00000104H .rtc$IAA                DATA
 0002:00015264 00000104H .rtc$IZZ                DATA
 0002:00015368 00000104H .rtc$TAA                DATA
 0002:0001546c 00000104H .rtc$TZZ                DATA
 0002:00015570 00000991H .xdata$x                DATA
 0002:00015f10 00000226H .edata                  DATA
 0003:00000000 00002fbeH .data                   DATA
 0003:00002fc0 00016ec4H .bss                    DATA
 0004:00000000 000001b0H .idata$5                DATA
 0004:000001b0 00000014H .idata$2                DATA
 0004:000001c4 00000014H .idata$3                DATA
 0004:000001d8 000001b0H .idata$4                DATA
 0004:00000388 0000076bH .idata$6                DATA

  Address         Publics by Value              Rva+Base       Lib:Object

 0000:00000000       __except_list              00000000     <absolute>
 0000:00000000       ___guard_fids_table        00000000     <absolute>
 0000:00000000       ___guard_flags             00000000     <absolute>
 0000:00000000       ___guard_fids_count        00000000     <absolute>
 0000:00000003       ___safe_se_handler_count   00000003     <absolute>
 0000:00000000       ___ImageBase               10000000     <linker-defined>
 0001:00000460       _FingerStrokeAssi_MATLABFunction 10001460 f   FingerStrokeAssistance.obj
 0001:000004c0       _FingerStrokeAssistance    100014c0 f   FingerStrokeAssistance.obj
 0001:00001700       _FingerStrokeAssistance_gainramp 10002700 f   FingerStrokeAssistance.obj
 0001:000049e0       _MdlInitialize             100059e0 f   FingerStrokeAssistance.obj
 0001:000049f0       _MdlInitializeSampleTimes  100059f0 f   FingerStrokeAssistance.obj
 0001:00004a00       _MdlInitializeSizes        10005a00 f   FingerStrokeAssistance.obj
 0001:00004a10       _MdlOutputs                10005a10 f   FingerStrokeAssistance.obj
 0001:00004a20       _MdlStart                  10005a20 f   FingerStrokeAssistance.obj
 0001:00004a30       _MdlTerminate              10005a30 f   FingerStrokeAssistance.obj
 0001:00004a90       _MdlUpdate                 10005a90 f   FingerStrokeAssistance.obj
 0001:00004aa0       _rt_powd_snf               10005aa0 f   FingerStrokeAssistance.obj
 0001:00004d30       _rt_roundd_snf             10005d30 f   FingerStrokeAssistance.obj
 0001:00004e30       _FingerStrokeAssistance_GetCAPIStaticMap 10005e30 f   FingerStrokeAssistance_capi.obj
 0001:00004e40       _FingerStrokeAssistance_InitializeDataMapInfo 10005e40 f   FingerStrokeAssistance_capi.obj
 0001:00004ed0       _TgtConnBackgroundTask     10005ed0 f   FingerStrokeAssistance_tgtconn.obj
 0001:00004ee0       _TgtConnInit               10005ee0 f   FingerStrokeAssistance_tgtconn.obj
 0001:00004f00       _TgtConnPostStep           10005f00 f   FingerStrokeAssistance_tgtconn.obj
 0001:00004f10       _TgtConnPreStep            10005f10 f   FingerStrokeAssistance_tgtconn.obj
 0001:00004f20       _TgtConnTerm               10005f20 f   FingerStrokeAssistance_tgtconn.obj
 0001:00004f30       _rtGetInf                  10005f30 f   rtGetInf.obj
 0001:00004f60       _rtGetInfF                 10005f60 f   rtGetInf.obj
 0001:00004f80       _rtGetMinusInf             10005f80 f   rtGetInf.obj
 0001:00004fb0       _rtGetMinusInfF            10005fb0 f   rtGetInf.obj
 0001:00004fd0       _rtGetNaN                  10005fd0 f   rtGetNaN.obj
 0001:00005000       _rtGetNaNF                 10006000 f   rtGetNaN.obj
 0001:00005930       _rt_CreateLogVar           10006930 f   rt_logging.obj
 0001:000059c0       _rt_CreateLogVarWithConvert 100069c0 f   rt_logging.obj
 0001:00006340       _rt_CreateStructLogVar     10007340 f   rt_logging.obj
 0001:000070b0       _rt_GetMxIdFromDTypeId     100080b0 f   rt_logging.obj
 0001:000070e0       _rt_GetMxIdFromDTypeIdForRSim 100080e0 f   rt_logging.obj
 0001:00009a20       _rt_StartDataLogging       1000aa20 f   rt_logging.obj
 0001:00009ee0       _rt_StartDataLoggingWithStartTime 1000aee0 f   rt_logging.obj
 0001:0000a840       _rt_StopDataLogging        1000b840 f   rt_logging.obj
 0001:0000a860       _rt_StopDataLoggingImpl    1000b860 f   rt_logging.obj
 0001:0000ab80       _rt_UpdateLogVar           1000bb80 f   rt_logging.obj
 0001:0000bf40       _rt_UpdateStructLogVar     1000cf40 f   rt_logging.obj
 0001:0000bfd0       _rt_UpdateTXXFYLogVars     1000cfd0 f   rt_logging.obj
 0001:0000c310       _rt_UpdateTXYLogVars       1000d310 f   rt_logging.obj
 0001:0000c560       _rt_CleanUpForStateLogWithMMI 1000d560 f   rt_logging_mmi.obj
 0001:0000c670       _rt_FillStateSigInfoFromMMI 1000d670 f   rt_logging_mmi.obj
 0001:0000ca20       _rt_mxCreateCharMatrixFromStrings 1000da20 f   rt_matrx.obj
 0001:0000cb70       _rt_mxCreateDoubleMatrix   1000db70 f   rt_matrx.obj
 0001:0000cbd0       _rt_mxCreateNumericArray   1000dbd0 f   rt_matrx.obj
 0001:0000cc50       _rt_mxCreateString         1000dc50 f   rt_matrx.obj
 0001:0000cce0       _rt_mxDuplicateArray       1000dce0 f   rt_matrx.obj
 0001:0000cd40       _rt_mxGetDimensions        1000dd40 f   rt_matrx.obj
 0001:0000cd80       _rt_mxGetEps               1000dd80 f   rt_matrx.obj
 0001:0000cd90       _rt_mxGetString            1000dd90 f   rt_matrx.obj
 0001:0000ce10       _rtIsInf                   1000de10 f   rt_nonfinite.obj
 0001:0000ce50       _rtIsInfF                  1000de50 f   rt_nonfinite.obj
 0001:0000ce90       _rtIsNaN                   1000de90 f   rt_nonfinite.obj
 0001:0000ceb0       _rtIsNaNF                  1000deb0 f   rt_nonfinite.obj
 0001:0000ced0       _rt_InitInfAndNaN          1000ded0 f   rt_nonfinite.obj
 0001:0000cf30       _rtPrintfNoOp              1000df30 f   rt_printf.obj
 0001:0000cf40       _rt_ZCFcn                  1000df40 f   rt_zcfcn.obj
 0001:0000d000       _rtwCAPI_CountSysRan       1000e000 f   rtw_modelmap_utils.obj
 0001:0000d0a0       _rtwCAPI_EncodePath        1000e0a0 f   rtw_modelmap_utils.obj
 0001:0000d190       _rtwCAPI_FillSysRan        1000e190 f   rtw_modelmap_utils.obj
 0001:0000d280       _rtwCAPI_FreeFullPaths     1000e280 f   rtw_modelmap_utils.obj
 0001:0000d310       _rtwCAPI_GetFullStateBlockPath 1000e310 f   rtw_modelmap_utils.obj
 0001:0000d4c0       _rtwCAPI_GetNumContStateRecords 1000e4c0 f   rtw_modelmap_utils.obj
 0001:0000d580       _rtwCAPI_GetNumSigLogRecords 1000e580 f   rtw_modelmap_utils.obj
 0001:0000d5d0       _rtwCAPI_GetNumSigLogRecordsForRTWLogging 1000e5d0 f   rtw_modelmap_utils.obj
 0001:0000d660       _rtwCAPI_GetNumStateRecords 1000e660 f   rtw_modelmap_utils.obj
 0001:0000d6b0       _rtwCAPI_GetNumStateRecordsForRTWLogging 1000e6b0 f   rtw_modelmap_utils.obj
 0001:0000d740       _rtwCAPI_GetSigAddrFromMap 1000e740 f   rtw_modelmap_utils.obj
 0001:0000d800       _rtwCAPI_GetSigLogRecordInfo 1000e800 f   rtw_modelmap_utils.obj
 0001:0000dc30       _rtwCAPI_GetStateRecordInfo 1000ec30 f   rtw_modelmap_utils.obj
 0001:0000e0e0       _rtwCAPI_GetStateWidth     1000f0e0 f   rtw_modelmap_utils.obj
 0001:0000e140       _rtwCAPI_HasStates         1000f140 f   rtw_modelmap_utils.obj
 0001:0000e1b0       _rtwCAPI_UpdateFullPaths   1000f1b0 f   rtw_modelmap_utils.obj
 0001:0000e390       _DllMain@12                1000f390 f   xpctarget.obj
 0001:0000e3a0       _FingerStrokeAssistance_ChangeStepSize 1000f3a0 f   xpctarget.obj
 0001:0000e3f0       _SLRTSetErrorStatus        1000f3f0 f   xpctarget.obj
 0001:0000e410       _changeStepSize            1000f410 f   xpctarget.obj
 0001:0000e460       _getDLMVersion             1000f460 f   xpctarget.obj
 0001:0000e470       _getRefMdlPath             1000f470 f   xpctarget.obj
 0001:0000e4f0       _getRefMdlSignalNumber     1000f4f0 f   xpctarget.obj
 0001:0000e5a0       _getrlmdlinfo              1000f5a0 f   xpctarget.obj
 0001:0000e780       _updateDiscreteEvents      1000f780 f   xpctarget.obj
 0001:0000e790       _getNumRef                 1000f790 f   appmappingData.obj
 0001:0000e7a0       _adnipcim                  1000f7a0 f   adnipcim.obj
 0001:0000f170       _encnipcim                 10010170 f   encnipcim.obj
 0001:0000f7a0       _danipcim                  100107a0 f   danipcim.obj
 0001:0000ffa0       _niMIdentify               10010fa0 f   xpcionim.obj
 0001:00010120       _niM_AISetup               10011120 f   xpcionim.obj
 0001:00010530       _niM_AO_Setup              10011530 f   xpcionim.obj
 0001:000106c0       _niM_Cont_Pulse_Train_Generation 100116c0 f   xpcionim.obj
 0001:00010800       _niM_Counter_Reset_All     10011800 f   xpcionim.obj
 0001:000108b0       _niM_CtrArm                100118b0 f   xpcionim.obj
 0001:000108d0       _niM_CtrDisarm             100118d0 f   xpcionim.obj
 0001:000108f0       _niM_CtrReadArm            100118f0 f   xpcionim.obj
 0001:00010910       _niM_CtrReadDisarm         10011910 f   xpcionim.obj
 0001:00010930       _niM_PeriodConfigure       10011930 f   xpcionim.obj
 0001:00010aa0       _niM_Private_Data          10011aa0 f   xpcionim.obj
 0001:00011080       _niM_SetPFIFilter          10012080 f   xpcionim.obj
 0001:00011100       _niM_SetPFI_DO             10012100 f   xpcionim.obj
 0001:00011150       _niM_SetPFI_Select         10012150 f   xpcionim.obj
 0001:000111d0       _niM_aiConfigureChannel    100121d0 f   xpcionim.obj
 0001:00011240       _niM_aiGetScalingCoefficients 10012240 f   xpcionim.obj
 0001:00011420       _niM_aiPolynomialScaler    10012420 f   xpcionim.obj
 0001:00011540       _niM_analogTriggerReset    10012540 f   xpcionim.obj
 0001:00011590       _niM_aoConfigureDAC        10012590 f   xpcionim.obj
 0001:000115e0       _niM_aoGetScalingCoefficients 100125e0 f   xpcionim.obj
 0001:00011690       _niM_aoLinearScaler        10012690 f   xpcionim.obj
 0001:000116c0       _niM_configureTimebase     100126c0 f   xpcionim.obj
 0001:000116e0       _niM_eepromReadMSeries     100126e0 f   xpcionim.obj
 0001:000117b0       _niM_pllReset              100127b0 f   xpcionim.obj
 0001:000117e0       _niM_resetCtr              100127e0 f   xpcionim.obj
 0001:00011800       _niM_whichBank             10012800 f   xpcionim.obj
 0001:00011840       _niMconfig                 10012840 f   xpcionim.obj
 0001:000118e0       _GetPCIDeviceFull          100128e0 f   xpcruntime:xpcimports.obj
 0001:00011910       _ShowPCIDevice             10012910 f   xpcruntime:xpcimports.obj
 0001:00011f80       _xpcGetPciConfigAtSlot     10012f80 f   xpcruntime:xpcimports.obj
 0001:00012200       _xpcInitProcs              10013200 f   xpcruntime:xpcimports.obj
 0001:00012d60       _xpceuploadevent           10013d60 f   xpcruntime:xpcimports.obj
 0001:00012d61       __heap_alloc               10013d61 f i LIBCMT:malloc.obj
 0001:00012d9e       _malloc                    10013d9e f   LIBCMT:malloc.obj
 0001:00012e30       __get_printf_count_output  10013e30 f   LIBCMT:printf.obj
 0001:00012e45       __printf_l                 10013e45 f   LIBCMT:printf.obj
 0001:00012e5c       __printf_p                 10013e5c f   LIBCMT:printf.obj
 0001:00012e72       __printf_p_l               10013e72 f   LIBCMT:printf.obj
 0001:00012e89       __printf_s_l               10013e89 f   LIBCMT:printf.obj
 0001:00012ea0       __set_printf_count_output  10013ea0 f   LIBCMT:printf.obj
 0001:00012ec8       _printf                    10013ec8 f   LIBCMT:printf.obj
 0001:00012f77       _printf_s                  10013f77 f   LIBCMT:printf.obj
 0001:00012f8d       ___libm_sse2_pow           10013f8d f   LIBCMT:pow_sse2.obj
 0001:00013a10       _ceil                      10014a10 f   LIBCMT:ceil_pentium4.obj
 0001:00013a50       __ceil_pentium4            10014a50 f   LIBCMT:ceil_pentium4.obj
 0001:00013b30       _memset                    10014b30 f   LIBCMT:memset.obj
 0001:00013bc0       __fpmath                   10014bc0 f   LIBCMT:fpinit.obj
 0001:00013bd7       ___setfflag                10014bd7 f   LIBCMT:fpinit.obj
 0001:00013bea       __cfltcvt_init             10014bea f   LIBCMT:fpinit.obj
 0001:00013c4a       ___raise_securityfailure   10014c4a f   LIBCMT:gs_report.obj
 0001:00013c87       ___report_gsfailure        10014c87 f   LIBCMT:gs_report.obj
 0001:00013d82       ___report_rangecheckfailure 10014d82 f   LIBCMT:gs_report.obj
 0001:00013d8e       ___report_securityfailure  10014d8e f   LIBCMT:gs_report.obj
 0001:00013e5e       ___report_securityfailureEx 10014e5e f   LIBCMT:gs_report.obj
 0001:00013f74       ___copy_path_to_wide_string 10014f74 f   LIBCMT:crt0dat.obj
 0001:00014026       ___copy_to_char            10015026 f   LIBCMT:crt0dat.obj
 0001:000140db       ___crtCorExitProcess       100150db f   LIBCMT:crt0dat.obj
 0001:0001410f       ___crtExitProcess          1001510f f   LIBCMT:crt0dat.obj
 0001:00014125       ___freeCrtMemory           10015125 f   LIBCMT:crt0dat.obj
 0001:00014232       __amsg_exit                10015232 f   LIBCMT:crt0dat.obj
 0001:0001424e       __c_exit                   1001524e f   LIBCMT:crt0dat.obj
 0001:0001425d       __cexit                    1001525d f   LIBCMT:crt0dat.obj
 0001:0001426c       __cinit                    1001526c f   LIBCMT:crt0dat.obj
 0001:000142f0       __exit                     100152f0 f   LIBCMT:crt0dat.obj
 0001:00014304       __exit_app                 10015304 f   LIBCMT:crt0dat.obj
 0001:00014312       __get_pgmptr               10015312 f   LIBCMT:crt0dat.obj
 0001:00014341       __get_wpgmptr              10015341 f   LIBCMT:crt0dat.obj
 0001:00014370       __init_pointers            10015370 f   LIBCMT:crt0dat.obj
 0001:000143de       __initterm_e               100153de f   LIBCMT:crt0dat.obj
 0001:00014400       __lockexit                 10015400 f   LIBCMT:crt0dat.obj
 0001:00014409       __unlockexit               10015409 f   LIBCMT:crt0dat.obj
 0001:00014541       _exit                      10015541 f   LIBCMT:crt0dat.obj
 0001:00014555       _calloc                    10015555 f   LIBCMT:calloc.obj
 0001:00014595       _free                      10015595 f   LIBCMT:free.obj
 0001:000145cd       _realloc                   100155cd f   LIBCMT:realloc.obj
 0001:00014680       _memmove                   10015680 f   LIBCMT:memmove.obj
 0001:00014cd0       _strchr                    10015cd0 f   LIBCMT:strchr.obj
 0001:00014d3e       ___from_strstr_to_strchr   10015d3e     LIBCMT:strchr.obj
 0001:00014e00       _strncat                   10015e00 f   LIBCMT:strncat.obj
 0001:00014f40       _strncpy                   10015f40 f   LIBCMT:strncpy.obj
 0001:00015064       ___initstdio               10016064 f   LIBCMT:_file.obj
 0001:000150d7       ___endstdio                100160d7 f   LIBCMT:_file.obj
 0001:000150fe       ___iob_func                100160fe f   LIBCMT:_file.obj
 0001:00015104       __lock_file                10016104 f   LIBCMT:_file.obj
 0001:00015143       __lock_file2               10016143 f   LIBCMT:_file.obj
 0001:00015173       __unlock_file              10016173 f   LIBCMT:_file.obj
 0001:000151ad       __unlock_file2             100161ad f   LIBCMT:_file.obj
 0001:000151da       __fclose_nolock            100161da f   LIBCMT:fclose.obj
 0001:00015246       _fclose                    10016246 f   LIBCMT:fclose.obj
 0001:000152bd       __fsopen                   100162bd f   LIBCMT:fopen.obj
 0001:00015381       _fopen                     10016381 f   LIBCMT:fopen.obj
 0001:00015396       _fopen_s                   10016396 f   LIBCMT:fopen.obj
 0001:000153db       __fprintf_l                100163db f   LIBCMT:fprintf.obj
 0001:000153f5       __fprintf_p                100163f5 f   LIBCMT:fprintf.obj
 0001:0001540e       __fprintf_p_l              1001640e f   LIBCMT:fprintf.obj
 0001:00015428       __fprintf_s_l              10016428 f   LIBCMT:fprintf.obj
 0001:00015442       _fprintf                   10016442 f   LIBCMT:fprintf.obj
 0001:00015554       _fprintf_s                 10016554 f   LIBCMT:fprintf.obj
 0001:0001556d       __fread_nolock             1001656d f   LIBCMT:fread.obj
 0001:00015588       __fread_nolock_s           10016588 f   LIBCMT:fread.obj
 0001:0001574d       _fread                     1001674d f   LIBCMT:fread.obj
 0001:00015768       _fread_s                   10016768 f   LIBCMT:fread.obj
 0001:000157f9       __fwrite_nolock            100167f9 f   LIBCMT:fwrite.obj
 0001:00015952       _fwrite                    10016952 f   LIBCMT:fwrite.obj
 0001:000159d4       __unlink                   100169d4 f   LIBCMT:unlink.obj
 0001:000159dd       _remove                    100169dd f   LIBCMT:unlink.obj
 0001:00015a1f       _rewind                    10016a1f f   LIBCMT:rewind.obj
 0001:00015ade       __scprintf                 10016ade f   LIBCMT:sprintf.obj
 0001:00015af1       __scprintf_l               10016af1 f   LIBCMT:sprintf.obj
 0001:00015b08       __scprintf_p               10016b08 f   LIBCMT:sprintf.obj
 0001:00015b1b       __scprintf_p_l             10016b1b f   LIBCMT:sprintf.obj
 0001:00015b32       __snprintf_s               10016b32 f   LIBCMT:sprintf.obj
 0001:00015b51       __snprintf_s_l             10016b51 f   LIBCMT:sprintf.obj
 0001:00015b71       __sprintf_l                10016b71 f   LIBCMT:sprintf.obj
 0001:00015b8b       __sprintf_p                10016b8b f   LIBCMT:sprintf.obj
 0001:00015ba7       __sprintf_p_l              10016ba7 f   LIBCMT:sprintf.obj
 0001:00015bc4       __sprintf_s_l              10016bc4 f   LIBCMT:sprintf.obj
 0001:00015be1       _sprintf                   10016be1 f   LIBCMT:sprintf.obj
 0001:00015c65       _sprintf_s                 10016c65 f   LIBCMT:sprintf.obj
 0001:00015c81       _ldexp                     10016c81 f   LIBCMT:ldexp.obj
 0001:00015e6d       @__security_check_cookie@4 10016e6d f   LIBCMT:secchk.obj
 0001:00015e80       __ftoui3                   10016e80 f   LIBCMT:ftol3.obj
 0001:00015e8f       __ftoul3                   10016e8f f   LIBCMT:ftol3.obj
 0001:00015e9e       __ftol3                    10016e9e f   LIBCMT:ftol3.obj
 0001:00015eab       __ftol3_NaN                10016eab f   LIBCMT:ftol3.obj
 0001:00015ec3       __ftol3_work               10016ec3 f   LIBCMT:ftol3.obj
 0001:00015f49       __ftol3_common             10016f49 f   LIBCMT:ftol3.obj
 0001:0001600b       __ftol3_arg_error          1001700b f   LIBCMT:ftol3.obj
 0001:0001601d       __ftol3_except             1001701d f   LIBCMT:ftol3.obj
 0001:0001605f       __dtoui3                   1001705f f   LIBCMT:ftol3.obj
 0001:0001606e       __dtoul3                   1001706e f   LIBCMT:ftol3.obj
 0001:0001607d       __dtol3                    1001707d f   LIBCMT:ftol3.obj
 0001:0001608a       __dtol3_NaN                1001708a f   LIBCMT:ftol3.obj
 0001:000160a7       __dtol3_work               100170a7 f   LIBCMT:ftol3.obj
 0001:0001618c       __ultod3                   1001718c f   LIBCMT:ftol3.obj
 0001:0001621d       __ltod3                    1001721d f   LIBCMT:ftol3.obj
 0001:00016250       _memcpy                    10017250 f   LIBCMT:memcpy.obj
 0001:00016894       ___isa_available_init      10017894 f   LIBCMT:cpu_disp.obj
 0001:00016a0d       __invoke_watson_if_error   10017a0d f i LIBCMT:wassert.obj
 0001:00016a2d       __wassert                  10017a2d f   LIBCMT:wassert.obj
 0001:000170d1       __CRT_INIT@12              100180d1 f   LIBCMT:dllcrt0.obj
 0001:00017243       __DllMainCRTStartup@12     10018243 f   LIBCMT:dllcrt0.obj
 0001:00017374       ___DllXcptFilter           10018374 f   LIBCMT:dllcrt0.obj
 0001:00017399       ?_query_new_handler@@YAP6AHI@ZXZ 10018399 f   LIBCMT:handler.obj
 0001:000173a6       ?_set_new_handler@@YAP6AHI@ZH@Z 100183a6 f   LIBCMT:handler.obj
 0001:000173af       ?_set_new_handler@@YAP6AHI@ZP6AHI@Z@Z 100183af f   LIBCMT:handler.obj
 0001:000173e4       __callnewh                 100183e4 f   LIBCMT:handler.obj
 0001:0001740a       __initp_heap_handler       1001840a f   LIBCMT:handler.obj
 0001:00017417       __FF_MSGBANNER             10018417 f   LIBCMT:crt0msg.obj
 0001:00017450       __GET_RTERRMSG             10018450 f   LIBCMT:crt0msg.obj
 0001:00017474       __NMSG_WRITE               10018474 f   LIBCMT:crt0msg.obj
 0001:00017631       ___doserrno                10018631 f   LIBCMT:dosmap.obj
 0001:00017644       __dosmaperr                10018644 f   LIBCMT:dosmap.obj
 0001:00017665       __errno                    10018665 f   LIBCMT:dosmap.obj
 0001:00017678       __get_doserrno             10018678 f   LIBCMT:dosmap.obj
 0001:0001769b       __get_errno                1001869b f   LIBCMT:dosmap.obj
 0001:000176be       __get_errno_from_oserr     100186be f   LIBCMT:dosmap.obj
 0001:000176ff       __set_doserrno             100186ff f   LIBCMT:dosmap.obj
 0001:0001771e       __set_errno                1001871e f   LIBCMT:dosmap.obj
 0001:0001773d       __get_heap_handle          1001873d f   LIBCMT:heapinit.obj
 0001:00017743       __heap_init                10018743 f   LIBCMT:heapinit.obj
 0001:00017758       __heap_term                10018758 f   LIBCMT:heapinit.obj
 0001:00017760       ?_invalid_parameter@@YAXPBG00II@Z 10018760 f   LIBCMT:invarg.obj
 0001:00017765       ?_invoke_watson@@YAXPBG00II@Z 10018765 f   LIBCMT:invarg.obj
 0001:0001777d       __call_reportfault         1001877d f   LIBCMT:invarg.obj
 0001:000178a2       __get_invalid_parameter_handler 100188a2 f   LIBCMT:invarg.obj
 0001:000178af       __initp_misc_invarg        100188af f   LIBCMT:invarg.obj
 0001:000178bc       __invalid_parameter        100188bc f   LIBCMT:invarg.obj
 0001:000178e7       __invalid_parameter_noinfo 100188e7 f   LIBCMT:invarg.obj
 0001:000178f7       __invalid_parameter_noinfo_noreturn 100188f7 f   LIBCMT:invarg.obj
 0001:00017912       __invoke_watson            10018912 f   LIBCMT:invarg.obj
 0001:0001793d       __set_invalid_parameter_handler 1001893d f   LIBCMT:invarg.obj
 0001:00017962       __vprintf_l                10018962 f   LIBCMT:vprintf.obj
 0001:0001797d       __vprintf_p                1001897d f   LIBCMT:vprintf.obj
 0001:00017997       __vprintf_p_l              10018997 f   LIBCMT:vprintf.obj
 0001:000179b2       __vprintf_s_l              100189b2 f   LIBCMT:vprintf.obj
 0001:000179cd       _vprintf                   100189cd f   LIBCMT:vprintf.obj
 0001:000179e7       _vprintf_helper            100189e7 f   LIBCMT:vprintf.obj
 0001:00017a74       _vprintf_s                 10018a74 f   LIBCMT:vprintf.obj
 0001:00017a8e       __ftbuf                    10018a8e f   LIBCMT:_sftbuf.obj
 0001:00017abf       __stbuf                    10018abf f   LIBCMT:_sftbuf.obj
 0001:00017b65       ??0_LocaleUpdate@@QAE@PAUlocaleinfo_struct@@@Z 10018b65 f i LIBCMT:output.obj
 0001:00017bed       ??1_LocaleUpdate@@QAE@XZ   10018bed f i LIBCMT:output.obj
 0001:00017bfb       ?GetLocaleT@_LocaleUpdate@@QAEPAUlocaleinfo_struct@@XZ 10018bfb f i LIBCMT:output.obj
 0001:00017bfe       __output_l                 10018bfe f   LIBCMT:output.obj
 0001:0001877e       _get_int64_arg             1001977e f i LIBCMT:output.obj
 0001:00018791       _get_int_arg               10019791 f i LIBCMT:output.obj
 0001:000187a1       _get_short_arg             100197a1 f i LIBCMT:output.obj
 0001:000188a0       __SEH_prolog4              100198a0 f   LIBCMT:sehprolg4.obj
 0001:000188e5       __SEH_epilog4              100198e5 f   LIBCMT:sehprolg4.obj
 0001:00018940       __except_handler4          10019940 f   LIBCMT:chandler4.obj
 0001:00018ad4       ___libm_error_support      10019ad4 f   LIBCMT:libm_error.obj
 0001:00018dbc       ___libm_setusermatherr     10019dbc f   LIBCMT:libm_error.obj
 0001:00018de8       __sse2_mathfcns_init       10019de8 f   LIBCMT:mathfcns.obj
 0001:00018df7       __set_SSE2_enable          10019df7 f   LIBCMT:mathfcns.obj
 0001:00018e16       __ceil_default             10019e16 f   LIBCMT:ceil.obj
 0001:00018eed       __VEC_memset               10019eed f   LIBCMT:p4_memset.obj
 0001:00018fb5       ?strrchr@@YAPADPADH@Z      10019fb5 f i LIBCMT:cvt.obj
 0001:00018fbe       __cfltcvt                  10019fbe f   LIBCMT:cvt.obj
 0001:00018fdf       __cfltcvt_l                10019fdf f   LIBCMT:cvt.obj
 0001:00019065       __cftoa                    1001a065 f   LIBCMT:cvt.obj
 0001:00019083       __cftoa_l                  1001a083 f   LIBCMT:cvt.obj
 0001:000193df       __cftoe                    1001a3df f   LIBCMT:cvt.obj
 0001:0001954e       __cftoe_l                  1001a54e f   LIBCMT:cvt.obj
 0001:0001961c       __cftof                    1001a61c f   LIBCMT:cvt.obj
 0001:00019723       __cftof_l                  1001a723 f   LIBCMT:cvt.obj
 0001:000197e4       __cftog                    1001a7e4 f   LIBCMT:cvt.obj
 0001:00019802       __cftog_l                  1001a802 f   LIBCMT:cvt.obj
 0001:00019901       __cropzeros                1001a901 f   LIBCMT:cvt.obj
 0001:00019912       __cropzeros_l              1001a912 f   LIBCMT:cvt.obj
 0001:00019992       __fassign                  1001a992 f   LIBCMT:cvt.obj
 0001:000199aa       __fassign_l                1001a9aa f   LIBCMT:cvt.obj
 0001:000199ec       __forcdecpt                1001a9ec f   LIBCMT:cvt.obj
 0001:000199fd       __forcdecpt_l              1001a9fd f   LIBCMT:cvt.obj
 0001:00019a71       __positive                 1001aa71 f   LIBCMT:cvt.obj
 0001:00019ab3       __setdefaultprecision      1001aab3 f   LIBCMT:fp8.obj
 0001:00019ada       __initp_misc_cfltcvt_tab   1001aada f   LIBCMT:cmiscdat.obj
 0001:00019af9       __crt_debugger_hook        1001aaf9 f   LIBCMT:dbghook.obj
 0001:00019b2e       ___crtCloseThreadpoolTimer 1001ab2e f   LIBCMT:winapisupp.obj
 0001:00019b45       ___crtCloseThreadpoolWait  1001ab45 f   LIBCMT:winapisupp.obj
 0001:00019b5c       ___crtCreateEventExW       1001ab5c f   LIBCMT:winapisupp.obj
 0001:00019b97       ___crtCreateSemaphoreExW   1001ab97 f   LIBCMT:winapisupp.obj
 0001:00019bd1       ___crtCreateSymbolicLinkW  1001abd1 f   LIBCMT:winapisupp.obj
 0001:00019bfa       ___crtCreateThreadpoolTimer 1001abfa f   LIBCMT:winapisupp.obj
 0001:00019c1b       ___crtCreateThreadpoolWait 1001ac1b f   LIBCMT:winapisupp.obj
 0001:00019c3c       ___crtFlsAlloc             1001ac3c f   LIBCMT:winapisupp.obj
 0001:00019c5a       ___crtFlsFree              1001ac5a f   LIBCMT:winapisupp.obj
 0001:00019c79       ___crtFlsGetValue          1001ac79 f   LIBCMT:winapisupp.obj
 0001:00019c98       ___crtFlsSetValue          1001ac98 f   LIBCMT:winapisupp.obj
 0001:00019cba       ___crtFlushProcessWriteBuffers 1001acba f   LIBCMT:winapisupp.obj
 0001:00019cca       ___crtFreeLibraryWhenCallbackReturns 1001acca f   LIBCMT:winapisupp.obj
 0001:00019ce4       ___crtGetCurrentProcessorNumber 1001ace4 f   LIBCMT:winapisupp.obj
 0001:00019cf6       ___crtGetFileInformationByHandleEx 1001acf6 f   LIBCMT:winapisupp.obj
 0001:00019d22       ___crtGetLogicalProcessorInformation 1001ad22 f   LIBCMT:winapisupp.obj
 0001:00019d48       ___crtGetShowWindowMode    1001ad48 f   LIBCMT:winapisupp.obj
 0001:00019d6b       ___crtGetTickCount64       1001ad6b f   LIBCMT:winapisupp.obj
 0001:00019d83       ___crtInitializeCriticalSectionEx 1001ad83 f   LIBCMT:winapisupp.obj
 0001:00019db1       ___crtIsPackagedApp        1001adb1 f   LIBCMT:winapisupp.obj
 0001:00019df1       ___crtLoadWinApiPointers   1001adf1 f   LIBCMT:winapisupp.obj
 0001:0001a07c       ___crtSetFileInformationByHandle 1001b07c f   LIBCMT:winapisupp.obj
 0001:0001a0a8       ___crtSetThreadStackGuarantee 1001b0a8 f   LIBCMT:winapisupp.obj
 0001:0001a0c3       ___crtSetThreadpoolTimer   1001b0c3 f   LIBCMT:winapisupp.obj
 0001:0001a0e3       ___crtSetThreadpoolWait    1001b0e3 f   LIBCMT:winapisupp.obj
 0001:0001a100       ___crtSetUnhandledExceptionFilter 1001b100 f   LIBCMT:winapisupp.obj
 0001:0001a10e       ___crtSleep                1001b10e f   LIBCMT:winapisupp.obj
 0001:0001a11c       ___crtTerminateProcess     1001b11c f   LIBCMT:winapisupp.obj
 0001:0001a131       ___crtUnhandledException   1001b131 f   LIBCMT:winapisupp.obj
 0001:0001a147       ___crtWaitForThreadpoolTimerCallbacks 1001b147 f   LIBCMT:winapisupp.obj
 0001:0001a161       __RTC_Initialize           1001b161 f   LIBCMT:initsect.obj
 0001:0001a181       __RTC_Terminate            1001b181 f   LIBCMT:initsect.obj
 0001:0001a1a1       __lock                     1001b1a1 f   LIBCMT:mlock.obj
 0001:0001a1d5       __lockerr_exit             1001b1d5 f   LIBCMT:mlock.obj
 0001:0001a1f5       __mtdeletelocks            1001b1f5 f   LIBCMT:mlock.obj
 0001:0001a249       __mtinitlocknum            1001b249 f   LIBCMT:mlock.obj
 0001:0001a2f2       __mtinitlocks              1001b2f2 f   LIBCMT:mlock.obj
 0001:0001a32b       __unlock                   1001b32b f   LIBCMT:mlock.obj
 0001:0001a340       __FindPESection            1001b340 f   LIBCMT:pesect.obj
 0001:0001a390       __IsNonwritableInCurrentImage 1001b390 f   LIBCMT:pesect.obj
 0001:0001a450       __ValidateImageBase        1001b450 f   LIBCMT:pesect.obj
 0001:0001a481       ___onexitinit              1001b481 f   LIBCMT:onexit.obj
 0001:0001a4b0       __onexit                   1001b4b0 f   LIBCMT:onexit.obj
 0001:0001a5ac       _atexit                    1001b5ac f   LIBCMT:onexit.obj
 0001:0001a5c1       __calloc_crt               1001b5c1 f   LIBCMT:crtheap.obj
 0001:0001a609       __malloc_crt               1001b609 f   LIBCMT:crtheap.obj
 0001:0001a650       __realloc_crt              1001b650 f   LIBCMT:crtheap.obj
 0001:0001a69a       __recalloc_crt             1001b69a f   LIBCMT:crtheap.obj
 0001:0001a6e8       __set_malloc_crt_max_wait  1001b6e8 f   LIBCMT:crtheap.obj
 0001:0001a6fb       _wait_a_bit                1001b6fb f i LIBCMT:crtheap.obj
 0001:0001a71f       ?_inconsistency@@YAXXZ     1001b71f f   LIBCMT:hooks.obj
 0001:0001a757       ?terminate@@YAXXZ          1001b757 f   LIBCMT:hooks.obj
 0001:0001a78b       ?unexpected@@YAXXZ         1001b78b f   LIBCMT:hooks.obj
 0001:0001a79e       __initp_eh_hooks           1001b79e f   LIBCMT:hooks.obj
 0001:0001a7af       ___getlocaleinfo           1001b7af f   LIBCMT:inithelp.obj
 0001:0001a988       __initp_misc_purevirt      1001b988 f   LIBCMT:inithelp.obj
 0001:0001a995       ___fpecode                 1001b995 f   LIBCMT:winsig.obj
 0001:0001a99e       ___get_sigabrt             1001b99e f   LIBCMT:winsig.obj
 0001:0001a9ab       ___pxcptinfoptrs           1001b9ab f   LIBCMT:winsig.obj
 0001:0001a9b4       __initp_misc_winsig        1001b9b4 f   LIBCMT:winsig.obj
 0001:0001aa75       _raise                     1001ba75 f   LIBCMT:winsig.obj
 0001:0001ac6a       _signal                    1001bc6a f   LIBCMT:winsig.obj
 0001:0001aec1       __initp_misc_rand_s        1001bec1 f   LIBCMT:rand_s.obj
 0001:0001aece       _rand_s                    1001bece f   LIBCMT:rand_s.obj
 0001:0001afd4       ___initmbctable            1001bfd4 f   LIBCMT:mbctype.obj
 0001:0001b28b       ___updatetmbcinfo          1001c28b f   LIBCMT:mbctype.obj
 0001:0001b331       __getmbcp                  1001c331 f   LIBCMT:mbctype.obj
 0001:0001b362       __setmbcp                  1001c362 f   LIBCMT:mbctype.obj
 0001:0001b50a       __setmbcp_nolock           1001c50a f   LIBCMT:mbctype.obj
 0001:0001b6f5       __calloc_impl              1001c6f5 f   LIBCMT:calloc_impl.obj
 0001:0001b76f       __fcloseall                1001c76f f   LIBCMT:closeall.obj
 0001:0001b80c       __fflush_nolock            1001c80c f   LIBCMT:fflush.obj
 0001:0001b852       __flush                    1001c852 f   LIBCMT:fflush.obj
 0001:0001b8b6       __flushall                 1001c8b6 f   LIBCMT:fflush.obj
 0001:0001b8bf       _fflush                    1001c8bf f   LIBCMT:fflush.obj
 0001:0001b9fc       __fileno                   1001c9fc f   LIBCMT:fileno.obj
 0001:0001ba20       __close                    1001ca20 f   LIBCMT:close.obj
 0001:0001bafb       __close_nolock             1001cafb f   LIBCMT:close.obj
 0001:0001bb95       __freebuf                  1001cb95 f   LIBCMT:_freebuf.obj
 0001:0001bbc5       __getstream                1001cbc5 f   LIBCMT:stream.obj
 0001:0001bce4       __openfile                 1001cce4 f   LIBCMT:_open.obj
 0001:0001bf60       __local_unwind4            1001cf60 f   LIBCMT:exsup4.obj
 0001:0001c036       __seh_longjmp_unwind4@4    1001d036 f   LIBCMT:exsup4.obj
 0001:0001c052       @_EH4_CallFilterFunc@8     1001d052 f   LIBCMT:exsup4.obj
 0001:0001c069       @_EH4_TransferToHandler@8  1001d069 f   LIBCMT:exsup4.obj
 0001:0001c082       @_EH4_GlobalUnwind2@8      1001d082 f   LIBCMT:exsup4.obj
 0001:0001c09b       @_EH4_LocalUnwind@16       1001d09b f   LIBCMT:exsup4.obj
 0001:0001c0b2       __vfprintf_l               1001d0b2 f   LIBCMT:vfprintf.obj
 0001:0001c0d0       __vfprintf_p               1001d0d0 f   LIBCMT:vfprintf.obj
 0001:0001c0ed       __vfprintf_p_l             1001d0ed f   LIBCMT:vfprintf.obj
 0001:0001c10b       __vfprintf_s_l             1001d10b f   LIBCMT:vfprintf.obj
 0001:0001c129       _vfprintf                  1001d129 f   LIBCMT:vfprintf.obj
 0001:0001c146       _vfprintf_helper           1001d146 f   LIBCMT:vfprintf.obj
 0001:0001c257       _vfprintf_s                1001d257 f   LIBCMT:vfprintf.obj
 0001:0001c274       __ioinit                   1001d274 f   LIBCMT:ioinit.obj
 0001:0001c528       __ioterm                   1001d528 f   LIBCMT:ioinit.obj
 0001:0001c57a       __filbuf                   1001d57a f   LIBCMT:_filbuf.obj
 0001:0001c69b       _memcpy_s                  1001d69b f   LIBCMT:memcpy_s.obj
 0001:0001c71a       __read                     1001d71a f   LIBCMT:read.obj
 0001:0001c82e       __read_nolock              1001d82e f   LIBCMT:read.obj
 0001:0001cfbf       __flsbuf                   1001dfbf f   LIBCMT:_flsbuf.obj
 0001:0001d10e       __write                    1001e10e f   LIBCMT:write.obj
 0001:0001d1fd       __write_nolock             1001e1fd f   LIBCMT:write.obj
 0001:0001da62       __wremove                  1001ea62 f   LIBCMT:wunlink.obj
 0001:0001da90       __wunlink                  1001ea90 f   LIBCMT:wunlink.obj
 0001:0001da99       __lseek                    1001ea99 f   LIBCMT:lseek.obj
 0001:0001db88       __lseek_nolock             1001eb88 f   LIBCMT:lseek.obj
 0001:0001dc2f       __vscprintf                1001ec2f f   LIBCMT:vsprintf.obj
 0001:0001dc49       __vscprintf_helper         1001ec49 f   LIBCMT:vsprintf.obj
 0001:0001dca5       __vscprintf_l              1001eca5 f   LIBCMT:vsprintf.obj
 0001:0001dcc0       __vscprintf_p              1001ecc0 f   LIBCMT:vsprintf.obj
 0001:0001dcda       __vscprintf_p_l            1001ecda f   LIBCMT:vsprintf.obj
 0001:0001dcf5       __vsprintf_l               1001ecf5 f   LIBCMT:vsprintf.obj
 0001:0001dd79       _vsprintf                  1001ed79 f   LIBCMT:vsprintf.obj
 0001:0001dd91       __vsnprintf_c              1001ed91 f   LIBCMT:vsnprnc.obj
 0001:0001ddb8       __vsnprintf_c_l            1001edb8 f   LIBCMT:vsnprnc.obj
 0001:0001dde0       __vsnprintf_helper         1001ede0 f   LIBCMT:vsnprnc.obj
 0001:0001deaa       __vsnprintf_s              1001eeaa f   LIBCMT:vsnprnc.obj
 0001:0001dec8       __vsnprintf_s_l            1001eec8 f   LIBCMT:vsnprnc.obj
 0001:0001dfc8       __vsprintf_p               1001efc8 f   LIBCMT:vsnprnc.obj
 0001:0001dfef       __vsprintf_p_l             1001efef f   LIBCMT:vsnprnc.obj
 0001:0001e017       __vsprintf_s_l             1001f017 f   LIBCMT:vsnprnc.obj
 0001:0001e08c       _vsprintf_s                1001f08c f   LIBCMT:vsnprnc.obj
 0001:0001e0a7       __chgsign                  1001f0a7 f   LIBCMT:ieeemisc.obj
 0001:0001e0d4       __chgsignf                 1001f0d4 f   LIBCMT:ieeemisc.obj
 0001:0001e0f5       __copysign                 1001f0f5 f   LIBCMT:ieeemisc.obj
 0001:0001e11d       __copysignf                1001f11d f   LIBCMT:ieeemisc.obj
 0001:0001e139       __finite                   1001f139 f   LIBCMT:ieeemisc.obj
 0001:0001e151       __fpclass                  1001f151 f   LIBCMT:ieeemisc.obj
 0001:0001e1ed       __isnan                    1001f1ed f   LIBCMT:ieeemisc.obj
 0001:0001e220       __logb                     1001f220 f   LIBCMT:ieeemisc.obj
 0001:0001e301       __nextafter                1001f301 f   LIBCMT:ieeemisc.obj
 0001:0001e5a1       __scalb                    1001f5a1 f   LIBCMT:ieeemisc.obj
 0001:0001e5b9       __add_exp                  1001f5b9 f   LIBCMT:util.obj
 0001:0001e5e8       __decomp                   1001f5e8 f   LIBCMT:util.obj
 0001:0001e6ba       __get_exp                  1001f6ba f   LIBCMT:util.obj
 0001:0001e6d3       __set_bexp                 1001f6d3 f   LIBCMT:util.obj
 0001:0001e6fc       __set_exp                  1001f6fc f   LIBCMT:util.obj
 0001:0001e72b       __sptype                   1001f72b f   LIBCMT:util.obj
 0001:0001e786       __errcode                  1001f786 f   LIBCMT:fpexcept.obj
 0001:0001e7b8       __except1                  1001f7b8 f   LIBCMT:fpexcept.obj
 0001:0001e880       __except2                  1001f880 f   LIBCMT:fpexcept.obj
 0001:0001e980       __handle_exc               1001f980 f   LIBCMT:fpexcept.obj
 0001:0001eb5e       __handle_qnan1             1001fb5e f   LIBCMT:fpexcept.obj
 0001:0001ebae       __handle_qnan2             1001fbae f   LIBCMT:fpexcept.obj
 0001:0001ec0e       __raise_exc                1001fc0e f   LIBCMT:fpexcept.obj
 0001:0001ec2f       __raise_exc_ex             1001fc2f f   LIBCMT:fpexcept.obj
 0001:0001ef14       __raise_excf               1001ff14 f   LIBCMT:fpexcept.obj
 0001:0001ef35       __set_errno_from_matherr   1001ff35 f   LIBCMT:fpexcept.obj
 0001:0001ef62       __umatherr                 1001ff62 f   LIBCMT:fpexcept.obj
 0001:0001f002       ___clrfp_sse2              10020002 f   LIBCMT:fpctrl.obj
 0001:0001f023       ___ctrlfp_sse2             10020023 f   LIBCMT:fpctrl.obj
 0001:0001f05c       ___fclrf_sse2              1002005c f   LIBCMT:fpctrl.obj
 0001:0001f079       ___get_fpsr_sse2           10020079 f   LIBCMT:fpctrl.obj
 0001:0001f095       ___set_fpsr_sse2           10020095 f   LIBCMT:fpctrl.obj
 0001:0001f10b       ___set_statfp_sse2         1002010b f   LIBCMT:fpctrl.obj
 0001:0001f124       ___statfp_sse2             10020124 f   LIBCMT:fpctrl.obj
 0001:0001f139       __clrfp                    10020139 f   LIBCMT:fpctrl.obj
 0001:0001f14a       __ctrlfp                   1002014a f   LIBCMT:fpctrl.obj
 0001:0001f175       __set_statfp               10020175 f   LIBCMT:fpctrl.obj
 0001:0001f1cd       __statfp                   100201cd f   LIBCMT:fpctrl.obj
 0001:0001f1dd       _wcscat_s                  100201dd f   LIBCMT:wcscat_s.obj
 0001:0001f249       _wcscpy_s                  10020249 f   LIBCMT:wcscpy_s.obj
 0001:0001f2a5       _wcslen                    100202a5 f   LIBCMT:wcslen.obj
 0001:0001f2be       _wcsncat_s                 100202be f   LIBCMT:wcsncat_s.obj
 0001:0001f38c       __set_abort_behavior       1002038c f   LIBCMT:abort.obj
 0001:0001f3ab       _abort                     100203ab f   LIBCMT:abort.obj
 0001:0001f3ee       ___set_app_type            100203ee f   LIBCMT:errmode.obj
 0001:0001f3fb       __set_error_mode           100203fb f   LIBCMT:errmode.obj
 0001:0001f557       __i64tow_s                 10020557 f   LIBCMT:xtows.obj
 0001:0001f588       __itow_s                   10020588 f   LIBCMT:xtows.obj
 0001:0001f5b1       __ltow_s                   100205b1 f   LIBCMT:xtows.obj
 0001:0001f5db       __ui64tow_s                100205db f   LIBCMT:xtows.obj
 0001:0001f5f6       __ultow_s                  100205f6 f   LIBCMT:xtows.obj
 0001:0001f701       _setvbuf                   10020701 f   LIBCMT:setvbuf.obj
 0001:0001f807       __fwprintf_l               10020807 f   LIBCMT:fwprintf.obj
 0001:0001f821       __fwprintf_p               10020821 f   LIBCMT:fwprintf.obj
 0001:0001f83a       __fwprintf_p_l             1002083a f   LIBCMT:fwprintf.obj
 0001:0001f854       __fwprintf_s_l             10020854 f   LIBCMT:fwprintf.obj
 0001:0001f86e       _fwprintf                  1002086e f   LIBCMT:fwprintf.obj
 0001:0001f902       _fwprintf_s                10020902 f   LIBCMT:fwprintf.obj
 0001:0001f91b       __vsnwprintf_s             1002091b f   LIBCMT:vswprnc.obj
 0001:0001f939       __vsnwprintf_s_l           10020939 f   LIBCMT:vswprnc.obj
 0001:0001fa3d       __vswprintf_c              10020a3d f   LIBCMT:vswprnc.obj
 0001:0001fa64       __vswprintf_c_l            10020a64 f   LIBCMT:vswprnc.obj
 0001:0001fa8c       __vswprintf_helper         10020a8c f   LIBCMT:vswprnc.obj
 0001:0001fb87       __vswprintf_p              10020b87 f   LIBCMT:vswprnc.obj
 0001:0001fbae       __vswprintf_p_l            10020bae f   LIBCMT:vswprnc.obj
 0001:0001fbd6       __vswprintf_s_l            10020bd6 f   LIBCMT:vswprnc.obj
 0001:0001fc4d       _vswprintf_s               10020c4d f   LIBCMT:vswprnc.obj
 0001:0001fc68       ___crtMessageBoxW          10020c68 f   LIBCMT:crtmboxw.obj
 0001:0001fe4e       ___crtMessageBoxWaitThreadW@4 10020e4e f   LIBCMT:crtmboxw.obj
 0001:0001fe6c       __XcptFilter               10020e6c f   LIBCMT:winxfltr.obj
 0001:0001ffc7       ___CppXcptFilter           10020fc7 f   LIBCMT:winxfltr.obj
 0001:00020019       ___get_flsindex            10021019 f   LIBCMT:tidtable.obj
 0001:0002001f       ___threadhandle            1002101f f   LIBCMT:tidtable.obj
 0001:00020025       ___threadid                10021025 f   LIBCMT:tidtable.obj
 0001:0002002b       __freefls@4                1002102b f   LIBCMT:tidtable.obj
 0001:00020160       __freeptd                  10021160 f   LIBCMT:tidtable.obj
 0001:00020196       __getptd                   10021196 f   LIBCMT:tidtable.obj
 0001:000201ae       __getptd_noexit            100211ae f   LIBCMT:tidtable.obj
 0001:0002021d       __initptd                  1002121d f   LIBCMT:tidtable.obj
 0001:000202d0       __mtinit                   100212d0 f   LIBCMT:tidtable.obj
 0001:00020346       __mtterm                   10021346 f   LIBCMT:tidtable.obj
 0001:00020363       __set_pgmptr               10021363 f i LIBCMT:stdargv.obj
 0001:00020370       __setargv                  10021370 f   LIBCMT:stdargv.obj
 0001:0002059f       __setenvp                  1002159f f   LIBCMT:stdenvp.obj
 0001:00020680       ___security_init_cookie    10021680 f   LIBCMT:gs_support.obj
 0001:0002071c       ___crtGetEnvironmentStringsA 1002171c f   LIBCMT:a_env.obj
 0001:000207b0       _strlen                    100217b0 f   LIBCMT:strlen.obj
 0001:0002083b       _wcsncpy_s                 1002183b f   LIBCMT:wcsncpy_s.obj
 0001:000208f9       __output_s_l               100218f9 f   LIBCMT:outputs.obj
 0001:00021581       __output_p_l               10022581 f   LIBCMT:outputp.obj
 0001:000228b9       __validate_param_reuseA    100238b9 f   LIBCMT:outputp.obj
 0001:000229ef       _get_crtdouble_arg         100239ef f i LIBCMT:outputp.obj
 0001:00022aee       __isatty                   10023aee f   LIBCMT:isatty.obj
 0001:00022b42       ___addlocaleref            10023b42 f   LIBCMT:localref.obj
 0001:00022bd7       ___freetlocinfo            10023bd7 f   LIBCMT:localref.obj
 0001:00022d31       ___removelocaleref         10023d31 f   LIBCMT:localref.obj
 0001:00022dd1       ___updatetlocinfo          10023dd1 f   LIBCMT:localref.obj
 0001:00022e51       __updatetlocinfoEx_nolock  10023e51 f   LIBCMT:localref.obj
 0001:00022e9c       ___iswcsym                 10023e9c f i LIBCMT:_wctype.obj
 0001:00022ec0       ___iswcsymf                10023ec0 f i LIBCMT:_wctype.obj
 0001:00022ee4       __isleadbyte_l             10023ee4 f i LIBCMT:_wctype.obj
 0001:00022f1e       __iswalnum_l               10023f1e f i LIBCMT:_wctype.obj
 0001:00022f32       __iswalpha_l               10023f32 f i LIBCMT:_wctype.obj
 0001:00022f46       __iswblank_l               10023f46 f i LIBCMT:_wctype.obj
 0001:00022f61       __iswcntrl_l               10023f61 f i LIBCMT:_wctype.obj
 0001:00022f72       __iswcsym_l                10023f72 f i LIBCMT:_wctype.obj
 0001:00022f96       __iswcsymf_l               10023f96 f i LIBCMT:_wctype.obj
 0001:00022fba       __iswdigit_l               10023fba f i LIBCMT:_wctype.obj
 0001:00022fcb       __iswgraph_l               10023fcb f i LIBCMT:_wctype.obj
 0001:00022fdf       __iswlower_l               10023fdf f i LIBCMT:_wctype.obj
 0001:00022ff0       __iswprint_l               10023ff0 f i LIBCMT:_wctype.obj
 0001:00023004       __iswpunct_l               10024004 f i LIBCMT:_wctype.obj
 0001:00023015       __iswspace_l               10024015 f i LIBCMT:_wctype.obj
 0001:00023026       __iswupper_l               10024026 f i LIBCMT:_wctype.obj
 0001:00023037       __iswxdigit_l              10024037 f i LIBCMT:_wctype.obj
 0001:0002304b       _isleadbyte                1002404b f i LIBCMT:_wctype.obj
 0001:0002305c       _iswalnum                  1002405c f i LIBCMT:_wctype.obj
 0001:00023070       _iswalpha                  10024070 f i LIBCMT:_wctype.obj
 0001:00023084       _iswascii                  10024084 f i LIBCMT:_wctype.obj
 0001:00023096       _iswblank                  10024096 f i LIBCMT:_wctype.obj
 0001:000230b1       _iswcntrl                  100240b1 f i LIBCMT:_wctype.obj
 0001:000230c2       _iswdigit                  100240c2 f i LIBCMT:_wctype.obj
 0001:000230d3       _iswgraph                  100240d3 f i LIBCMT:_wctype.obj
 0001:000230e7       _iswlower                  100240e7 f i LIBCMT:_wctype.obj
 0001:000230f8       _iswprint                  100240f8 f i LIBCMT:_wctype.obj
 0001:0002310c       _iswpunct                  1002410c f i LIBCMT:_wctype.obj
 0001:0002311d       _iswspace                  1002411d f i LIBCMT:_wctype.obj
 0001:0002312e       _iswupper                  1002412e f i LIBCMT:_wctype.obj
 0001:0002313f       _iswxdigit                 1002413f f i LIBCMT:_wctype.obj
 0001:00023153       __wctomb_l                 10024153 f   LIBCMT:wctomb.obj
 0001:000231a2       __wctomb_s_l               100241a2 f   LIBCMT:wctomb.obj
 0001:000232c6       _wctomb                    100242c6 f   LIBCMT:wctomb.obj
 0001:000232f9       _wctomb_s                  100242f9 f   LIBCMT:wctomb.obj
 0001:00023320       __aulldvrm                 10024320 f   LIBCMT:ulldvrm.obj
 0001:000233b5       __matherr                  100243b5 f   LIBCMT:matherr.obj
 0001:000233b8       __frnd                     100243b8 f   LIBCMT:frnd.obj
 0001:000233cc       ___isascii                 100243cc f i LIBCMT:_ctype.obj
 0001:000233dc       ___iscsym                  100243dc f i LIBCMT:_ctype.obj
 0001:000233fc       ___iscsymf                 100243fc f i LIBCMT:_ctype.obj
 0001:00023419       ___toascii                 10024419 f i LIBCMT:_ctype.obj
 0001:00023424       __isalnum_l                10024424 f i LIBCMT:_ctype.obj
 0001:0002347c       __isalpha_l                1002447c f i LIBCMT:_ctype.obj
 0001:000234d4       __isblank_l                100244d4 f i LIBCMT:_ctype.obj
 0001:0002352e       __iscntrl_l                1002452e f i LIBCMT:_ctype.obj
 0001:00023580       __iscsym_l                 10024580 f i LIBCMT:_ctype.obj
 0001:000235a1       __iscsymf_l                100245a1 f i LIBCMT:_ctype.obj
 0001:000235c2       __isdigit_l                100245c2 f i LIBCMT:_ctype.obj
 0001:00023614       __isgraph_l                10024614 f i LIBCMT:_ctype.obj
 0001:0002366c       __islower_l                1002466c f i LIBCMT:_ctype.obj
 0001:000236be       __isprint_l                100246be f i LIBCMT:_ctype.obj
 0001:00023716       __ispunct_l                10024716 f i LIBCMT:_ctype.obj
 0001:00023768       __isspace_l                10024768 f i LIBCMT:_ctype.obj
 0001:000237ba       __isupper_l                100247ba f i LIBCMT:_ctype.obj
 0001:0002380c       __isxdigit_l               1002480c f i LIBCMT:_ctype.obj
 0001:00023864       _isalnum                   10024864 f i LIBCMT:_ctype.obj
 0001:00023891       _isalpha                   10024891 f i LIBCMT:_ctype.obj
 0001:000238be       _isblank                   100248be f i LIBCMT:_ctype.obj
 0001:000238f3       _iscntrl                   100248f3 f i LIBCMT:_ctype.obj
 0001:0002391e       _isdigit                   1002491e f i LIBCMT:_ctype.obj
 0001:00023949       _isgraph                   10024949 f i LIBCMT:_ctype.obj
 0001:00023976       _islower                   10024976 f i LIBCMT:_ctype.obj
 0001:000239a1       _isprint                   100249a1 f i LIBCMT:_ctype.obj
 0001:000239ce       _ispunct                   100249ce f i LIBCMT:_ctype.obj
 0001:000239f9       _isspace                   100249f9 f i LIBCMT:_ctype.obj
 0001:00023a24       _isupper                   10024a24 f i LIBCMT:_ctype.obj
 0001:00023a4f       _isxdigit                  10024a4f f i LIBCMT:_ctype.obj
 0001:00023a7c       __tolower                  10024a7c f   LIBCMT:tolower.obj
 0001:00023a87       __tolower_l                10024a87 f   LIBCMT:tolower.obj
 0001:00023bca       _tolower                   10024bca f   LIBCMT:tolower.obj
 0001:00023bf6       _strcpy_s                  10024bf6 f   LIBCMT:strcpy_s.obj
 0001:00023c50       _strrchr                   10024c50 f   LIBCMT:strrchr.obj
 0001:00023d87       __fptostr                  10024d87 f   LIBCMT:_fptostr.obj
 0001:00023e37       ___crt_atoflt_l            10024e37 f   LIBCMT:atodbl.obj
 0001:00023edb       __atodbl                   10024edb f   LIBCMT:atodbl.obj
 0001:00023ef0       __atodbl_l                 10024ef0 f   LIBCMT:atodbl.obj
 0001:00023f7e       __atoflt                   10024f7e f   LIBCMT:atodbl.obj
 0001:00023f93       __atoflt_l                 10024f93 f   LIBCMT:atodbl.obj
 0001:00023fab       __atoldbl                  10024fab f   LIBCMT:atodbl.obj
 0001:00023fc0       __atoldbl_l                10024fc0 f   LIBCMT:atodbl.obj
 0001:0002404f       ___dtold                   1002504f f   LIBCMT:cfout.obj
 0001:00024117       __fltout2                  10025117 f   LIBCMT:cfout.obj
 0001:000241b0       __alldvrm                  100251b0 f   LIBCMT:lldvrm.obj
 0001:00024290       __aullshr                  10025290 f   LIBCMT:ullshr.obj
 0001:000242af       __get_output_format        100252af f   LIBCMT:outputformat.obj
 0001:000242b5       __set_output_format        100252b5 f   LIBCMT:outputformat.obj
 0001:000242e7       __controlfp_s              100252e7 f   LIBCMT:contrlfp.obj
 0001:00024344       __fptrap                   10025344 f   LIBCMT:crt0fp.obj
 0001:0002434d       __msize                    1002534d f   LIBCMT:msize.obj
 0001:0002437e       __recalloc                 1002537e f   LIBCMT:recalloc.obj
 0001:000243e7       _strncpy_s                 100253e7 f   LIBCMT:strncpy_s.obj
 0001:0002456f       __MallocaIsSizeInRange     1002556f f i LIBCMT:a_loc.obj
 0001:00024580       __MarkAllocaS              10025580 f i LIBCMT:a_loc.obj
 0001:00024594       ___crtGetLocaleInfoA       10025594 f   LIBCMT:a_loc.obj
 0001:000245ce       __freea                    100255ce f i LIBCMT:a_loc.obj
 0001:000245ec       _GetTableIndexFromLcid     100255ec f   LIBCMT:winapinls.obj
 0001:00024621       _GetTableIndexFromLocaleName 10025621 f   LIBCMT:winapinls.obj
 0001:0002466f       ___crtCompareStringEx      1002566f f   LIBCMT:winapinls.obj
 0001:000246bb       ___crtDownlevelLCIDToLocaleName 100256bb f   LIBCMT:winapinls.obj
 0001:00024737       ___crtDownlevelLocaleNameToLCID 10025737 f   LIBCMT:winapinls.obj
 0001:00024775       ___crtEnumSystemLocalesEx  10025775 f   LIBCMT:winapinls.obj
 0001:000247b2       ___crtGetDateFormatEx      100257b2 f   LIBCMT:winapinls.obj
 0001:000247fb       ___crtGetLocaleInfoEx      100257fb f   LIBCMT:winapinls.obj
 0001:0002482a       ___crtGetTimeFormatEx      1002582a f   LIBCMT:winapinls.obj
 0001:0002485f       ___crtGetUserDefaultLocaleName 1002585f f   LIBCMT:winapinls.obj
 0001:0002488a       ___crtIsValidLocaleName    1002588a f   LIBCMT:winapinls.obj
 0001:000248b5       ___crtLCMapStringEx        100258b5 f   LIBCMT:winapinls.obj
 0001:00024901       ___wcsnicmp_ascii          10025901 f   LIBCMT:winapinls.obj
 0001:00024b93       ___crtLCMapStringA         10025b93 f   LIBCMT:a_map.obj
 0001:00024cd1       ___crtGetStringTypeA       10025cd1 f   LIBCMT:a_str.obj
 0001:00024d11       __commit                   10025d11 f   LIBCMT:commit.obj
 0001:00024dfa       ___lock_fhandle            10025dfa f   LIBCMT:osfinfo.obj
 0001:00024e88       __alloc_osfhnd             10025e88 f   LIBCMT:osfinfo.obj
 0001:00025031       __free_osfhnd              10026031 f   LIBCMT:osfinfo.obj
 0001:000250b7       __get_osfhandle            100260b7 f   LIBCMT:osfinfo.obj
 0001:0002511e       __open_osfhandle           1002611e f   LIBCMT:osfinfo.obj
 0001:00025234       __set_osfhnd               10026234 f   LIBCMT:osfinfo.obj
 0001:000252b6       __unlock_fhandle           100262b6 f   LIBCMT:osfinfo.obj
 0001:000252dc       __open                     100262dc f   LIBCMT:open.obj
 0001:0002538c       __sopen                    1002638c f   LIBCMT:open.obj
 0001:000253bf       __sopen_helper             100263bf f   LIBCMT:open.obj
 0001:00025488       __sopen_nolock             10026488 f   LIBCMT:open.obj
 0001:000254d6       __sopen_s                  100264d6 f   LIBCMT:open.obj
 0001:000254f4       __mbsnbcmp                 100264f4 f   LIBCMT:mbsnbcmp.obj
 0001:0002550c       __mbsnbcmp_l               1002650c f   LIBCMT:mbsnbcmp.obj
 0001:00025623       __mbsnbicmp                10026623 f   LIBCMT:mbsnbicm.obj
 0001:0002563b       __mbsnbicmp_l              1002663b f   LIBCMT:mbsnbicm.obj
 0001:00025800       __global_unwind2           10026800 f   LIBCMT:exsup.obj
 0001:00025865       __local_unwind2            10026865 f   LIBCMT:exsup.obj
 0001:000258e9       __abnormal_termination     100268e9 f   LIBCMT:exsup.obj
 0001:0002590c       __NLG_Notify1              1002690c f   LIBCMT:exsup.obj
 0001:00025915       __NLG_Notify               10026915 f   LIBCMT:exsup.obj
 0001:0002592c       __NLG_Dispatch2            1002692c     LIBCMT:exsup.obj
 0001:0002592c       __NLG_Dispatch             1002692c     LIBCMT:exsup.obj
 0001:00025934       __NLG_Call                 10026934 f   LIBCMT:exsup.obj
 0001:00025936       __NLG_Return2              10026936     LIBCMT:exsup.obj
 0001:00025937       __getbuf                   10026937 f   LIBCMT:_getbuf.obj
 0001:0002597d       __lseeki64                 1002697d f   LIBCMT:lseeki64.obj
 0001:00025a79       __lseeki64_nolock          10026a79 f   LIBCMT:lseeki64.obj
 0001:00025aec       __mbtowc_l                 10026aec f   LIBCMT:mbtowc.obj
 0001:00025be1       _mbtowc                    10026be1 f   LIBCMT:mbtowc.obj
 0001:00025bf9       __putwch                   10026bf9 f   LIBCMT:putwch.obj
 0001:00025c45       __putwch_nolock            10026c45 f   LIBCMT:putwch.obj
 0001:00025c90       __alloca_probe             10026c90 f   LIBCMT:chkstk.obj
 0001:00025c90       __chkstk                   10026c90 f   LIBCMT:chkstk.obj
 0001:00025cbb       __vfwprintf_l              10026cbb f   LIBCMT:vfwprint.obj
 0001:00025cd9       __vfwprintf_p              10026cd9 f   LIBCMT:vfwprint.obj
 0001:00025cf6       __vfwprintf_p_l            10026cf6 f   LIBCMT:vfwprint.obj
 0001:00025d14       __vfwprintf_s_l            10026d14 f   LIBCMT:vfwprint.obj
 0001:00025d32       _vfwprintf                 10026d32 f   LIBCMT:vfwprint.obj
 0001:00025d4f       _vfwprintf_helper          10026d4f f   LIBCMT:vfwprint.obj
 0001:00025de2       _vfwprintf_s               10026de2 f   LIBCMT:vfwprint.obj
 0001:00025dff       __woutput_l                10026dff f   LIBCMT:woutput.obj
 0001:00026ade       __woutput_s_l              10027ade f   LIBCMT:woutputs.obj
 0001:000277f5       __validate_param_reuseW    100287f5 f   LIBCMT:woutputp.obj
 0001:0002796d       __woutput_p_l              1002896d f   LIBCMT:woutputp.obj
 0001:00028d96       __ismbbalnum               10029d96 f   LIBCMT:ismbbyte.obj
 0001:00028daf       __ismbbalnum_l             10029daf f   LIBCMT:ismbbyte.obj
 0001:00028dc9       __ismbbalpha               10029dc9 f   LIBCMT:ismbbyte.obj
 0001:00028de2       __ismbbalpha_l             10029de2 f   LIBCMT:ismbbyte.obj
 0001:00028dfc       __ismbbblank               10029dfc f   LIBCMT:ismbbyte.obj
 0001:00028e1d       __ismbbblank_l             10029e1d f   LIBCMT:ismbbyte.obj
 0001:00028e3f       __ismbbgraph               10029e3f f   LIBCMT:ismbbyte.obj
 0001:00028e58       __ismbbgraph_l             10029e58 f   LIBCMT:ismbbyte.obj
 0001:00028e72       __ismbbkalnum              10029e72 f   LIBCMT:ismbbyte.obj
 0001:00028e88       __ismbbkalnum_l            10029e88 f   LIBCMT:ismbbyte.obj
 0001:00028e9f       __ismbbkana                10029e9f f   LIBCMT:ismbbyte.obj
 0001:00028eb0       __ismbbkana_l              10029eb0 f   LIBCMT:ismbbyte.obj
 0001:00028efc       __ismbbkprint              10029efc f   LIBCMT:ismbbyte.obj
 0001:00028f12       __ismbbkprint_l            10029f12 f   LIBCMT:ismbbyte.obj
 0001:00028f29       __ismbbkpunct              10029f29 f   LIBCMT:ismbbyte.obj
 0001:00028f3f       __ismbbkpunct_l            10029f3f f   LIBCMT:ismbbyte.obj
 0001:00028f56       __ismbblead                10029f56 f   LIBCMT:ismbbyte.obj
 0001:00028f6c       __ismbblead_l              10029f6c f   LIBCMT:ismbbyte.obj
 0001:00028f83       __ismbbprint               10029f83 f   LIBCMT:ismbbyte.obj
 0001:00028f9c       __ismbbprint_l             10029f9c f   LIBCMT:ismbbyte.obj
 0001:00028fb6       __ismbbpunct               10029fb6 f   LIBCMT:ismbbyte.obj
 0001:00028fcc       __ismbbpunct_l             10029fcc f   LIBCMT:ismbbyte.obj
 0001:00028fe3       __ismbbtrail               10029fe3 f   LIBCMT:ismbbyte.obj
 0001:00028ff9       __ismbbtrail_l             10029ff9 f   LIBCMT:ismbbyte.obj
 0001:00029236       __strtol_l                 1002a236 f   LIBCMT:strtol.obj
 0001:00029251       __strtoul_l                1002a251 f   LIBCMT:strtol.obj
 0001:0002926c       _strtol                    1002a26c f   LIBCMT:strtol.obj
 0001:00029296       _strtoul                   1002a296 f   LIBCMT:strtol.obj
 0001:000292c0       ___free_lconv_mon          1002a2c0 f   LIBCMT:initmon.obj
 0001:000293bc       ___init_monetary           1002a3bc f   LIBCMT:initmon.obj
 0001:00029795       ___free_lconv_num          1002a795 f   LIBCMT:initnum.obj
 0001:000297fc       ___init_numeric            1002a7fc f   LIBCMT:initnum.obj
 0001:00029a3a       ___free_lc_time            1002aa3a f   LIBCMT:inittime.obj
 0001:00029dba       ___init_time               1002adba f   LIBCMT:inittime.obj
 0001:0002a629       _localeconv                1002b629 f   LIBCMT:lconv.obj
 0001:0002a64f       __iswctype_l               1002b64f f   LIBCMT:iswctype.obj
 0001:0002a661       _is_wctype                 1002b661 f   LIBCMT:iswctype.obj
 0001:0002a66a       _iswctype                  1002b66a f   LIBCMT:iswctype.obj
 0001:0002a6c0       ____lc_codepage_func       1002b6c0 f   LIBCMT:initctyp.obj
 0001:0002a6e6       ____lc_collate_cp_func     1002b6e6 f   LIBCMT:initctyp.obj
 0001:0002a70c       ____lc_locale_name_func    1002b70c f   LIBCMT:initctyp.obj
 0001:0002a734       ____mb_cur_max_func        1002b734 f   LIBCMT:initctyp.obj
 0001:0002a75a       ____mb_cur_max_l_func      1002b75a f   LIBCMT:initctyp.obj
 0001:0002a771       ___init_ctype              1002b771 f   LIBCMT:initctyp.obj
 0001:0002ab09       ___pctype_func             1002bb09 f   LIBCMT:ctype.obj
 0001:0002ab32       ___pwctype_func            1002bb32 f   LIBCMT:ctype.obj
 0001:0002ab38       __isctype                  1002bb38 f   LIBCMT:isctype.obj
 0001:0002ab67       __isctype_l                1002bb67 f   LIBCMT:isctype.obj
 0001:0002ac18       ___init_dummy              1002bc18 f   LIBCMT:wsetloca.obj
 0001:0002ac1b       __locterm                  1002bc1b f   LIBCMT:wsetloca.obj
 0001:0002ac6d       ____setlc_active_func      1002bc6d f   LIBCMT:wsetloca.obj
 0001:0002ac73       ____unguarded_readlc_active_add_func 1002bc73 f   LIBCMT:wsetloca.obj
 0001:0002ac79       ___copy_locale_name        1002bc79 f   LIBCMT:wsetloca.obj
 0001:0002acdd       ___create_locale           1002bcdd f   LIBCMT:wsetloca.obj
 0001:0002ace6       ___free_locale             1002bce6 f   LIBCMT:wsetloca.obj
 0001:0002aceb       ___get_current_locale      1002bceb f   LIBCMT:wsetloca.obj
 0001:0002acf0       ___lc_lctowcs              1002bcf0 f   LIBCMT:wsetloca.obj
 0001:0002ad5e       ___lc_wcstolc              1002bd5e f   LIBCMT:wsetloca.obj
 0001:0002ae8a       __configthreadlocale       1002be8a f   LIBCMT:wsetloca.obj
 0001:0002af10       __create_locale            1002bf10 f   LIBCMT:wsetloca.obj
 0001:0002af72       __expandlocale             1002bf72 f   LIBCMT:wsetloca.obj
 0001:0002b269       __free_locale              1002c269 f   LIBCMT:wsetloca.obj
 0001:0002b320       __get_current_locale       1002c320 f   LIBCMT:wsetloca.obj
 0001:0002b3cf       __wcreate_locale           1002c3cf f   LIBCMT:wsetloca.obj
 0001:0002b4a6       __wcscats                  1002c4a6 f   LIBCMT:wsetloca.obj
 0001:0002b4e5       __wsetlocale               1002c4e5 f   LIBCMT:wsetloca.obj
 0001:0002be27       __CopyMan                  1002ce27 f i LIBCMT:intrncvt.obj
 0001:0002be44       __FillZeroMan              1002ce44 f i LIBCMT:intrncvt.obj
 0001:0002be53       __IncMan                   1002ce53 f i LIBCMT:intrncvt.obj
 0001:0002beb5       __IsZeroMan                1002ceb5 f i LIBCMT:intrncvt.obj
 0001:0002bed2       __RoundMan                 1002ced2 f i LIBCMT:intrncvt.obj
 0001:0002bfd3       __ShrMan                   1002cfd3 f i LIBCMT:intrncvt.obj
 0001:0002c061       __ZeroTail                 1002d061 f i LIBCMT:intrncvt.obj
 0001:0002c0a9       ___addl                    1002d0a9 f i LIBCMT:intrncvt.obj
 0001:0002c0cd       __ld12cvt                  1002d0cd f i LIBCMT:intrncvt.obj
 0001:0002c638       __ld12tod                  1002d638 f   LIBCMT:intrncvt.obj
 0001:0002cbaa       __ld12tof                  1002dbaa f   LIBCMT:intrncvt.obj
 0001:0002d11c       __ld12told                 1002e11c f   LIBCMT:intrncvt.obj
 0001:0002d1eb       ___STRINGTOLD_L            1002e1eb f   LIBCMT:strgtold.obj
 0001:0002d246       ___ld12mul                 1002e246 f i LIBCMT:strgtold.obj
 0001:0002d512       ___multtenpow12            1002e512 f i LIBCMT:strgtold.obj
 0001:0002d865       ___shl_12                  1002e865 f i LIBCMT:strgtold.obj
 0001:0002d896       ___shr_12                  1002e896 f i LIBCMT:strgtold.obj
 0001:0002d8c6       ___strgtold12_l            1002e8c6 f   LIBCMT:strgtold.obj
 0001:0002e06e       _$I10_OUTPUT               1002f06e f   LIBCMT:x10fout.obj
 0001:0002ea42       ___add_12                  1002fa42 f i LIBCMT:x10fout.obj
 0001:0002ebee       ___control87_2             1002fbee f   LIBCMT:ieee87.obj
 0001:0002f262       __clearfp                  10030262 f   LIBCMT:ieee87.obj
 0001:0002f342       __control87                10030342 f i LIBCMT:ieee87.obj
 0001:0002f644       __controlfp                10030644 f   LIBCMT:ieee87.obj
 0001:0002f94f       __fpreset                  1003094f f   LIBCMT:ieee87.obj
 0001:0002fa1c       __set_controlfp            10030a1c f   LIBCMT:ieee87.obj
 0001:0002fa8f       __statusfp                 10030a8f f   LIBCMT:ieee87.obj
 0001:0002fb29       __statusfp2                10030b29 f   LIBCMT:ieee87.obj
 0001:0002fb90       __alloca_probe_16          10030b90 f   LIBCMT:alloca16.obj
 0001:0002fba6       __alloca_probe_8           10030ba6     LIBCMT:alloca16.obj
 0001:0002fbbc       _wcsnlen                   10030bbc f   LIBCMT:wcslen_s.obj
 0001:0002fc63       __wopen                    10030c63 f   LIBCMT:wopen.obj
 0001:0002fd13       __wsopen                   10030d13 f   LIBCMT:wopen.obj
 0001:0002fd46       __wsopen_helper            10030d46 f   LIBCMT:wopen.obj
 0001:0002fe0f       __wsopen_nolock            10030e0f f   LIBCMT:wopen.obj
 0001:00030562       __wsopen_s                 10031562 f   LIBCMT:wopen.obj
 0001:00030580       _strncmp                   10031580 f   LIBCMT:strncmp.obj
 0001:000305f8       __strnicmp                 100315f8 f   LIBCMT:strnicmp.obj
 0001:00030663       __strnicmp_l               10031663 f   LIBCMT:strnicmp.obj
 0001:00030714       ___termconout              10031714 f   LIBCMT:initcon.obj
 0001:0003072b       ___initconout              1003172b f   LIBCMT:initcon.obj
 0001:0003074a       __fputwc_nolock            1003174a f   LIBCMT:fputwc.obj
 0001:000308d0       _fputwc                    100318d0 f   LIBCMT:fputwc.obj
 0001:00030947       _putwc                     10031947 f   LIBCMT:fputwc.obj
 0001:00030b31       __wcstol_l                 10031b31 f   LIBCMT:wcstol.obj
 0001:00030b49       __wcstoul_l                10031b49 f   LIBCMT:wcstol.obj
 0001:00030b61       _wcstol                    10031b61 f   LIBCMT:wcstol.obj
 0001:00030b79       _wcstoul                   10031b79 f   LIBCMT:wcstol.obj
 0001:00030b91       ___init_collate            10031b91 f   LIBCMT:initcoll.obj
 0001:00030cb1       _memcmp                    10031cb1 f   LIBCMT:memcmp.obj
 0001:00033bc5       _wcscmp                    10034bc5 f   LIBCMT:wcscmp.obj
 0001:00033c03       _wcscspn                   10034c03 f   LIBCMT:wcscspn.obj
 0001:00033c4e       _wcsncmp                   10034c4e f   LIBCMT:wcsncmp.obj
 0001:00033c84       _wcspbrk                   10034c84 f   LIBCMT:wcspbrk.obj
 0001:00034288       ___get_qualified_locale    10035288 f   LIBCMT:getqloc.obj
 0001:00034af8       ___get_qualified_locale_downlevel 10035af8 f   LIBCMT:getqloc_downlevel.obj
 0001:00034d14       ___mtold12                 10035d14 f   LIBCMT:mantold.obj
 0001:00034ef4       __chsize                   10035ef4 f   LIBCMT:chsize.obj
 0001:00034f0e       __chsize_nolock            10035f0e f   LIBCMT:chsize.obj
 0001:000350c4       __chsize_s                 100360c4 f   LIBCMT:chsize.obj
 0001:000351b2       __get_fmode                100361b2 f   LIBCMT:setmode.obj
 0001:000351dc       __set_fmode                100361dc f   LIBCMT:setmode.obj
 0001:00035217       __setmode                  10036217 f   LIBCMT:setmode.obj
 0001:0003531c       __setmode_nolock           1003631c f   LIBCMT:setmode.obj
 0001:000353f0       ___ascii_strnicmp          100363f0 f   LIBCMT:_strnicm.obj
 0001:00035451       __flswbuf                  10036451 f   LIBCMT:_flswbuf.obj
 0001:000355b3       __wchartodigit             100365b3 f   LIBCMT:wchtodig.obj
 0001:00035752       __wtoi                     10036752 f   LIBCMT:wtox.obj
 0001:0003575b       __wtoi64                   1003675b f   LIBCMT:wtox.obj
 0001:0003576f       __wtoi64_l                 1003676f f   LIBCMT:wtox.obj
 0001:00035786       __wtoi_l                   10036786 f   LIBCMT:wtox.obj
 0001:0003578f       __wtol                     1003678f f   LIBCMT:wtox.obj
 0001:000357a3       __wtol_l                   100367a3 f   LIBCMT:wtox.obj
 0001:000357ba       __wtoll                    100367ba f   LIBCMT:wtox.obj
 0001:000357ce       __wtoll_l                  100367ce f   LIBCMT:wtox.obj
 0001:000357e5       _wcschr                    100367e5 f   LIBCMT:wcschr.obj
 0001:00035893       __wcsicmp                  10036893 f   LIBCMT:wcsicmp.obj
 0001:00035926       __wcsicmp_l                10036926 f   LIBCMT:wcsicmp.obj
 0001:00035a01       __wcsnicmp                 10036a01 f   LIBCMT:wcsnicmp.obj
 0001:00035ab7       __wcsnicmp_l               10036ab7 f   LIBCMT:wcsnicmp.obj
 0001:00035e80       __wcstof_l                 10036e80 f   LIBCMT:wcstoq.obj
 0001:00035f33       __wcstoi64                 10036f33 f   LIBCMT:wcstoq.obj
 0001:00035f5d       __wcstoi64_l               10036f5d f   LIBCMT:wcstoq.obj
 0001:00035f78       __wcstoimax_l              10036f78 f   LIBCMT:wcstoq.obj
 0001:00035f81       __wcstold_l                10036f81 f   LIBCMT:wcstoq.obj
 0001:00035f8a       __wcstoll_l                10036f8a f   LIBCMT:wcstoq.obj
 0001:00035f93       __wcstoui64                10036f93 f   LIBCMT:wcstoq.obj
 0001:00035fbd       __wcstoui64_l              10036fbd f   LIBCMT:wcstoq.obj
 0001:00035fd8       __wcstoull_l               10036fd8 f   LIBCMT:wcstoq.obj
 0001:00035fe1       __wcstoumax_l              10036fe1 f   LIBCMT:wcstoq.obj
 0001:00035fea       _wcstof                    10036fea f   LIBCMT:wcstoq.obj
 0001:00035fff       _wcstoimax                 10036fff f   LIBCMT:wcstoq.obj
 0001:00036008       _wcstold                   10037008 f   LIBCMT:wcstoq.obj
 0001:00036011       _wcstoll                   10037011 f   LIBCMT:wcstoq.obj
 0001:0003601a       _wcstoull                  1003701a f   LIBCMT:wcstoq.obj
 0001:00036023       _wcstoumax                 10037023 f   LIBCMT:wcstoq.obj
 0001:0003602c       __towlower_l               1003702c f   LIBCMT:towlower.obj
 0001:000360dd       _towlower                  100370dd f   LIBCMT:towlower.obj
 0001:000360ee       __wcstod_l                 100370ee f   LIBCMT:wcstod.obj
 0001:000361e9       _wcstod                    100371e9 f   LIBCMT:wcstod.obj
 0001:00036200       __allmul                   10037200 f   LIBCMT:llmul.obj
 0001:00036234       ___crtLCMapStringW         10037234 f   LIBCMT:w_map.obj
 0001:00036263       __wfltin2                  10037263 f   LIBCMT:wcfin.obj
 0001:00036310       ___WSTRINGTOLD_L           10037310 f   LIBCMT:wstrgtold.obj
 0001:0003636b       ___wstrgtold12_l           1003736b f   LIBCMT:wstrgtold.obj
 0001:00036bbc       _GetModuleHandleA@4        10037bbc f   kernel32:KERNEL32.dll
 0001:00036bc2       _GetProcAddress@8          10037bc2 f   kernel32:KERNEL32.dll
 0001:00036bc8       _HeapAlloc@12              10037bc8 f   kernel32:KERNEL32.dll
 0001:00036bce       _IsDebuggerPresent@0       10037bce f   kernel32:KERNEL32.dll
 0001:00036bd4       _IsProcessorFeaturePresent@4 10037bd4 f   kernel32:KERNEL32.dll
 0001:00036bda       _EncodePointer@4           10037bda f   kernel32:KERNEL32.dll
 0001:00036be0       _DecodePointer@4           10037be0 f   kernel32:KERNEL32.dll
 0001:00036be6       _GetLastError@0            10037be6 f   kernel32:KERNEL32.dll
 0001:00036bec       _ExitProcess@4             10037bec f   kernel32:KERNEL32.dll
 0001:00036bf2       _GetModuleHandleExW@12     10037bf2 f   kernel32:KERNEL32.dll
 0001:00036bf8       _AreFileApisANSI@0         10037bf8 f   kernel32:KERNEL32.dll
 0001:00036bfe       _MultiByteToWideChar@24    10037bfe f   kernel32:KERNEL32.dll
 0001:00036c04       _WideCharToMultiByte@32    10037c04 f   kernel32:KERNEL32.dll
 0001:00036c0a       _HeapFree@12               10037c0a f   kernel32:KERNEL32.dll
 0001:00036c10       _HeapReAlloc@16            10037c10 f   kernel32:KERNEL32.dll
 0001:00036c16       _EnterCriticalSection@4    10037c16 f   kernel32:KERNEL32.dll
 0001:00036c1c       _LeaveCriticalSection@4    10037c1c f   kernel32:KERNEL32.dll
 0001:00036c22       _GetStdHandle@4            10037c22 f   kernel32:KERNEL32.dll
 0001:00036c28       _GetFileType@4             10037c28 f   kernel32:KERNEL32.dll
 0001:00036c2e       _GetModuleFileNameW@12     10037c2e f   kernel32:KERNEL32.dll
 0001:00036c34       _WriteConsoleW@20          10037c34 f   kernel32:KERNEL32.dll
 0001:00036c3a       _GetCommandLineA@0         10037c3a f   kernel32:KERNEL32.dll
 0001:00036c40       _GetCurrentThreadId@0      10037c40 f   kernel32:KERNEL32.dll
 0001:00036c46       _WriteFile@20              10037c46 f   kernel32:KERNEL32.dll
 0001:00036c4c       _GetProcessHeap@0          10037c4c f   kernel32:KERNEL32.dll
 0001:00036c52       _UnhandledExceptionFilter@4 10037c52 f   kernel32:KERNEL32.dll
 0001:00036c58       _SetUnhandledExceptionFilter@4 10037c58 f   kernel32:KERNEL32.dll
 0001:00036c5e       _SetLastError@4            10037c5e f   kernel32:KERNEL32.dll
 0001:00036c64       _InitializeCriticalSectionAndSpinCount@8 10037c64 f   kernel32:KERNEL32.dll
 0001:00036c6a       _CreateEventW@16           10037c6a f   kernel32:KERNEL32.dll
 0001:00036c70       _Sleep@4                   10037c70 f   kernel32:KERNEL32.dll
 0001:00036c76       _GetCurrentProcess@0       10037c76 f   kernel32:KERNEL32.dll
 0001:00036c7c       _TerminateProcess@8        10037c7c f   kernel32:KERNEL32.dll
 0001:00036c82       _TlsAlloc@0                10037c82 f   kernel32:KERNEL32.dll
 0001:00036c88       _TlsGetValue@4             10037c88 f   kernel32:KERNEL32.dll
 0001:00036c8e       _TlsSetValue@8             10037c8e f   kernel32:KERNEL32.dll
 0001:00036c94       _TlsFree@4                 10037c94 f   kernel32:KERNEL32.dll
 0001:00036c9a       _GetStartupInfoW@4         10037c9a f   kernel32:KERNEL32.dll
 0001:00036ca0       _GetTickCount@0            10037ca0 f   kernel32:KERNEL32.dll
 0001:00036ca6       _GetModuleHandleW@4        10037ca6 f   kernel32:KERNEL32.dll
 0001:00036cac       _CreateSemaphoreW@16       10037cac f   kernel32:KERNEL32.dll
 0001:00036cb2       _DeleteCriticalSection@4   10037cb2 f   kernel32:KERNEL32.dll
 0001:00036cb8       _FatalAppExitA@8           10037cb8 f   kernel32:KERNEL32.dll
 0001:00036cbe       _SetConsoleCtrlHandler@8   10037cbe f   kernel32:KERNEL32.dll
 0001:00036cc4       _FreeLibrary@4             10037cc4 f   kernel32:KERNEL32.dll
 0001:00036cca       _LoadLibraryExW@12         10037cca f   kernel32:KERNEL32.dll
 0001:00036cd0       _IsValidCodePage@4         10037cd0 f   kernel32:KERNEL32.dll
 0001:00036cd6       _GetACP@0                  10037cd6 f   kernel32:KERNEL32.dll
 0001:00036cdc       _GetOEMCP@0                10037cdc f   kernel32:KERNEL32.dll
 0001:00036ce2       _GetCPInfo@8               10037ce2 f   kernel32:KERNEL32.dll
 0001:00036ce8       _CloseHandle@4             10037ce8 f   kernel32:KERNEL32.dll
 0001:00036cee       _RtlUnwind@16              10037cee f   kernel32:KERNEL32.dll
 0001:00036cf4       _ReadFile@20               10037cf4 f   kernel32:KERNEL32.dll
 0001:00036cfa       _GetConsoleMode@8          10037cfa f   kernel32:KERNEL32.dll
 0001:00036d00       _ReadConsoleW@20           10037d00 f   kernel32:KERNEL32.dll
 0001:00036d06       _GetConsoleCP@0            10037d06 f   kernel32:KERNEL32.dll
 0001:00036d0c       _DeleteFileW@4             10037d0c f   kernel32:KERNEL32.dll
 0001:00036d12       _SetFilePointerEx@20       10037d12 f   kernel32:KERNEL32.dll
 0001:00036d18       _RaiseException@16         10037d18 f   kernel32:KERNEL32.dll
 0001:00036d1e       _OutputDebugStringW@4      10037d1e f   kernel32:KERNEL32.dll
 0001:00036d24       _GetCurrentThread@0        10037d24 f   kernel32:KERNEL32.dll
 0001:00036d2a       _GetModuleFileNameA@12     10037d2a f   kernel32:KERNEL32.dll
 0001:00036d30       _QueryPerformanceCounter@4 10037d30 f   kernel32:KERNEL32.dll
 0001:00036d36       _GetCurrentProcessId@0     10037d36 f   kernel32:KERNEL32.dll
 0001:00036d3c       _GetSystemTimeAsFileTime@4 10037d3c f   kernel32:KERNEL32.dll
 0001:00036d42       _GetEnvironmentStringsW@0  10037d42 f   kernel32:KERNEL32.dll
 0001:00036d48       _FreeEnvironmentStringsW@4 10037d48 f   kernel32:KERNEL32.dll
 0001:00036d4e       _HeapSize@12               10037d4e f   kernel32:KERNEL32.dll
 0001:00036d54       _GetDateFormatW@24         10037d54 f   kernel32:KERNEL32.dll
 0001:00036d5a       _GetTimeFormatW@24         10037d5a f   kernel32:KERNEL32.dll
 0001:00036d60       _CompareStringW@24         10037d60 f   kernel32:KERNEL32.dll
 0001:00036d66       _LCMapStringW@24           10037d66 f   kernel32:KERNEL32.dll
 0001:00036d6c       _GetLocaleInfoW@16         10037d6c f   kernel32:KERNEL32.dll
 0001:00036d72       _IsValidLocale@8           10037d72 f   kernel32:KERNEL32.dll
 0001:00036d78       _GetUserDefaultLCID@0      10037d78 f   kernel32:KERNEL32.dll
 0001:00036d7e       _EnumSystemLocalesW@8      10037d7e f   kernel32:KERNEL32.dll
 0001:00036d84       _GetStringTypeW@16         10037d84 f   kernel32:KERNEL32.dll
 0001:00036d8a       _FlushFileBuffers@4        10037d8a f   kernel32:KERNEL32.dll
 0001:00036d90       _SetStdHandle@8            10037d90 f   kernel32:KERNEL32.dll
 0001:00036d96       _CreateFileW@28            10037d96 f   kernel32:KERNEL32.dll
 0001:00036d9c       _SetEndOfFile@4            10037d9c f   kernel32:KERNEL32.dll
 0002:00000000       ___xc_a                    10043000     LIBCMT:crt0init.obj
 0002:00000104       ___xc_z                    10043104     LIBCMT:crt0init.obj
 0002:00000208       ___xi_a                    10043208     LIBCMT:crt0init.obj
 0002:00000424       ___xi_z                    10043424     LIBCMT:crt0init.obj
 0002:00000528       ___xp_a                    10043528     LIBCMT:crt0init.obj
 0002:0000083c       ___xp_z                    1004383c     LIBCMT:crt0init.obj
 0002:00000940       ___xt_a                    10043940     LIBCMT:crt0init.obj
 0002:00000a44       ___xt_z                    10043a44     LIBCMT:crt0init.obj
 0002:00000b88       _FingerStrokeAssistance_M  10043b88     FingerStrokeAssistance.obj
 0002:00000b8c       ??_C@_00CNPNBAHC@?$AA@     10043b8c     FingerStrokeAssistance.obj
 0002:00000b90       ??_C@_0BM@BHPPCGOM@FingerStrokeAssistance?1Out1?$AA@ 10043b90     FingerStrokeAssistance.obj
 0002:00000bb4       ??_C@_0BI@PEBACBDB@Error?5creating?5scope?53?6?$AA@ 10043bb4     FingerStrokeAssistance.obj
 0002:00000bd0       ??_C@_0O@KPAEFEKK@signals?1Gain2?$AA@ 10043bd0     FingerStrokeAssistance.obj
 0002:00000be0       ??_C@_0DB@GGNMPEDP@Robot?1account?5for?5handedness1?1MA@ 10043be0     FingerStrokeAssistance.obj
 0002:00000c1c       ??_C@_0O@LNGALFC@Robot?1Gain?1s1?$AA@ 10043c1c     FingerStrokeAssistance.obj
 0002:00000c2c       ??_C@_0BG@DKHKBHDL@MATLAB?5Function?1p8?1s1?$AA@ 10043c2c     FingerStrokeAssistance.obj
 0002:00000c48       ??_C@_0N@CGBNOIGO@Robot?1Sum?1s1?$AA@ 10043c48     FingerStrokeAssistance.obj
 0002:00000c58       ??_C@_0BA@MKGFJNCI@f_ref1?3?$CF15?46f?5N?$AA@ 10043c58     FingerStrokeAssistance.obj
 0002:00000c6c       ??_C@_0P@JDGPLDCK@enc_raw?3?$CF15?46f?$AA@ 10043c6c     FingerStrokeAssistance.obj
 0002:00000c80       ??_C@_0BA@ELCINL@enc_norm?3?$CF15?46f?$AA@ 10043c80     FingerStrokeAssistance.obj
 0002:00000c94       ??_C@_0BB@FMBPFFLE@pos_ref_1?3?$CF15?46f?$AA@ 10043c94     FingerStrokeAssistance.obj
 0002:00000ca8       ??_C@_0BC@DJAOFMOF@pos_meas_1?3?$CF15?46f?$AA@ 10043ca8     FingerStrokeAssistance.obj
 0002:00000cc0       ??_C@_0BI@PHJEPFFP@Error?5creating?5scope?51?6?$AA@ 10043cc0     FingerStrokeAssistance.obj
 0002:00000cdc       ??_C@_0BD@KDGDPNDI@MATLAB?5Function?1p1?$AA@ 10043cdc     FingerStrokeAssistance.obj
 0002:00000cf4       ??_C@_0BA@KHHDAHD@signals?1Gain?1s1?$AA@ 10043cf4     FingerStrokeAssistance.obj
 0002:00000d08       ??_C@_0BA@CBFKGDLA@signals?1Gain?1s2?$AA@ 10043d08     FingerStrokeAssistance.obj
 0002:00000d1c       ??_C@_0N@NEDGIMDD@state?3?$CF15?46f?$AA@ 10043d1c     FingerStrokeAssistance.obj
 0002:00000d2c       ??_C@_0BH@DNEEKCDA@f_ref_limited_1?3?$CF15?46f?$AA@ 10043d2c     FingerStrokeAssistance.obj
 0002:00000d48       ??_C@_0BH@EMJJOPF@f_ref_limited_2?3?$CF15?46f?$AA@ 10043d48     FingerStrokeAssistance.obj
 0002:00000d64       ??_C@_0BI@PFNCELAG@Error?5creating?5scope?52?6?$AA@ 10043d64     FingerStrokeAssistance.obj
 0002:00000d80       ??_C@_0BG@BLHIHKBK@Robot?1MATLAB?5Function?$AA@ 10043d80     FingerStrokeAssistance.obj
 0002:00000d9c       ??_C@_0BH@DLCEIGLC@Robot?1MATLAB?5Function1?$AA@ 10043d9c     FingerStrokeAssistance.obj
 0002:00000db8       ??_C@_0BH@MPAPDKAB@Robot?1PCI?96221?5AD1?1p12?$AA@ 10043db8     FingerStrokeAssistance.obj
 0002:00000dd4       ??_C@_0BF@LFMOHJPF@Raw_GripForce?3?$CF15?46f?$AA@ 10043dd4     FingerStrokeAssistance.obj
 0002:00000df0       ??_C@_0BK@MACLGGNB@Raw_Pressure_Value?3?$CF15?46f?$AA@ 10043df0     FingerStrokeAssistance.obj
 0002:00000e10       ??_C@_06KFNFIEK@?$CF15?46f?$AA@ 10043e10     FingerStrokeAssistance.obj
 0002:00000e18       ??_C@_0BI@PBFPDHLE@Error?5creating?5scope?54?6?$AA@ 10043e18     FingerStrokeAssistance.obj
 0002:00000e34       ??_C@_0BH@GNHOCBDE@Robot?1MATLAB?5Function7?$AA@ 10043e34     FingerStrokeAssistance.obj
 0002:00000e50       ??_C@_0BH@OKOGDNPL@Robot?1MATLAB?5Function8?$AA@ 10043e50     FingerStrokeAssistance.obj
 0002:00000e6c       ??_C@_0BH@HEGFBAHF@Robot?1MATLAB?5Function6?$AA@ 10043e6c     FingerStrokeAssistance.obj
 0002:00000e88       ??_C@_0N@OFFFIF@Raw_X?3?$CF15?46f?$AA@ 10043e88     FingerStrokeAssistance.obj
 0002:00000e98       ??_C@_0N@BHJOEBMG@Raw_Y?3?$CF15?46f?$AA@ 10043e98     FingerStrokeAssistance.obj
 0002:00000ea8       ??_C@_0N@COBDHNAD@Raw_Z?3?$CF15?46f?$AA@ 10043ea8     FingerStrokeAssistance.obj
 0002:00000eb8       ??_C@_0BC@OJJPBDHH@FixedStepDiscrete?$AA@ 10043eb8     FingerStrokeAssistance.obj
 0002:00000ed0       ??_C@_04EPKDLPPB@tout?$AA@ 10043ed0     FingerStrokeAssistance.obj
 0002:00000ed8       ??_C@_03HBFGMJOD@rt_?$AA@  10043ed8     FingerStrokeAssistance.obj
 0002:00000edc       ??_C@_04LHDDHLEA@yout?$AA@ 10043edc     FingerStrokeAssistance.obj
 0002:00000ee4       ??_C@_0N@JAOEPLNP@PCI?96221?5AD1?$AA@ 10043ee4     FingerStrokeAssistance.obj
 0002:00000ef4       ??_C@_0CK@LAFKNGLI@FingerStrokeAssistance?1Robot?1PCI@ 10043ef4     FingerStrokeAssistance.obj
 0002:00000f28       ??_C@_0O@IFKELIIB@PCI?56221?5ENC?5?$AA@ 10043f28     FingerStrokeAssistance.obj
 0002:00000f38       ??_C@_0CL@FGFCPCFH@FingerStrokeAssistance?1Robot?1PCI@ 10043f38     FingerStrokeAssistance.obj
 0002:00000f6c       ??_C@_0P@FMGHBALM@PCI?56221?5ENC?51?$AA@ 10043f6c     FingerStrokeAssistance.obj
 0002:00000f80       ??_C@_0CM@DDAEJBBH@FingerStrokeAssistance?1Robot?1PCI@ 10043f80     FingerStrokeAssistance.obj
 0002:00000fb4       ??_C@_0M@HBIEHIJL@PCI?96221?5DA?$AA@ 10043fb4     FingerStrokeAssistance.obj
 0002:00000fc4       ??_C@_0CJ@KACMKMOO@FingerStrokeAssistance?1Robot?1PCI@ 10043fc4     FingerStrokeAssistance.obj
 0002:00000ff8       __real@0000000000000000    10043ff8     FingerStrokeAssistance.obj
 0002:00001008       __real@3f50624dd2f1a9fc    10044008     FingerStrokeAssistance.obj
 0002:00001018       __real@3f947ae147ae147b    10044018     FingerStrokeAssistance.obj
 0002:00001028       __real@3f9eb851eb851eb8    10044028     FingerStrokeAssistance.obj
 0002:00001038       __real@3fb999999999999a    10044038     FingerStrokeAssistance.obj
 0002:00001048       __real@3fe0000000000000    10044048     FingerStrokeAssistance.obj
 0002:00001058       __real@3ff0000000000000    10044058     FingerStrokeAssistance.obj
 0002:00001068       __real@3ff3d70a3d70a3d7    10044068     FingerStrokeAssistance.obj
 0002:00001078       __real@3ff3eb851eb851ec    10044078     FingerStrokeAssistance.obj
 0002:00001088       __real@3ff4834834834836    10044088     FingerStrokeAssistance.obj
 0002:00001098       __real@3ff5333333333334    10044098     FingerStrokeAssistance.obj
 0002:000010a8       __real@4000000000000000    100440a8     FingerStrokeAssistance.obj
 0002:000010b8       __real@400370a3d70a3d71    100440b8     FingerStrokeAssistance.obj
 0002:000010c8       __real@4004000000000000    100440c8     FingerStrokeAssistance.obj
 0002:000010d8       __real@4008000000000000    100440d8     FingerStrokeAssistance.obj
 0002:000010e8       __real@400e000000000000    100440e8     FingerStrokeAssistance.obj
 0002:000010f8       __real@4010000000000000    100440f8     FingerStrokeAssistance.obj
 0002:00001108       __real@40105397829cbc17    10044108     FingerStrokeAssistance.obj
 0002:00001118       __real@4010aaaaaaaaaaab    10044118     FingerStrokeAssistance.obj
 0002:00001128       __real@4014000000000000    10044128     FingerStrokeAssistance.obj
 0002:00001138       __real@4018000000000000    10044138     FingerStrokeAssistance.obj
 0002:00001148       __real@40239d013b88a70c    10044148     FingerStrokeAssistance.obj
 0002:00001158       __real@4024000000000000    10044158     FingerStrokeAssistance.obj
 0002:00001168       __real@402e000000000000    10044168     FingerStrokeAssistance.obj
 0002:00001178       __real@4049000000000000    10044178     FingerStrokeAssistance.obj
 0002:00001188       __real@41f0000000000000    10044188     FingerStrokeAssistance.obj
 0002:00001198       __real@4330000000000000    10044198     FingerStrokeAssistance.obj
 0002:000011a8       __real@8000000000000000    100441a8     FingerStrokeAssistance.obj
 0002:000011b8       __real@bfe0000000000000    100441b8     FingerStrokeAssistance.obj
 0002:000011c8       __real@bff0000000000000    100441c8     FingerStrokeAssistance.obj
 0002:000011d8       __real@c004000000000000    100441d8     FingerStrokeAssistance.obj
 0002:000011e8       __real@c014000000000000    100441e8     FingerStrokeAssistance.obj
 0002:00001200       __xmm@00000000000000003f50624dd2f1a9fc 10044200     FingerStrokeAssistance.obj
 0002:00001220       __xmm@00000000000000003ff0000000000000 10044220     FingerStrokeAssistance.obj
 0002:00001240       __xmm@00000109000000910000009b00000001 10044240     FingerStrokeAssistance.obj
 0002:00001260       __xmm@3ff00000000000000000000000000000 10044260     FingerStrokeAssistance.obj
 0002:00001280       __xmm@41f00000000000000000000000000000 10044280     FingerStrokeAssistance.obj
 0002:000012a0       __xmm@7fffffffffffffff7fffffffffffffff 100442a0     FingerStrokeAssistance.obj
 0002:000033b8       ??_C@_0BD@IIEOKOPL@MATLAB?5Function?1p2?$AA@ 100463b8     FingerStrokeAssistance_capi.obj
 0002:000033d0       ??_C@_0BD@JBFFJPLK@MATLAB?5Function?1p3?$AA@ 100463d0     FingerStrokeAssistance_capi.obj
 0002:000033e8       ??_C@_0BD@NOBEAJHN@MATLAB?5Function?1p4?$AA@ 100463e8     FingerStrokeAssistance_capi.obj
 0002:00003400       ??_C@_0BD@MHAPDIDM@MATLAB?5Function?1p5?$AA@ 10046400     FingerStrokeAssistance_capi.obj
 0002:00003418       ??_C@_0BD@OMCCGLPP@MATLAB?5Function?1p6?$AA@ 10046418     FingerStrokeAssistance_capi.obj
 0002:00003430       ??_C@_0BD@PFDJFKLO@MATLAB?5Function?1p7?$AA@ 10046430     FingerStrokeAssistance_capi.obj
 0002:00003448       ??_C@_0BD@HCKBEGHB@MATLAB?5Function?1p8?$AA@ 10046448     FingerStrokeAssistance_capi.obj
 0002:00003460       ??_C@_0BD@GLLKHHDA@MATLAB?5Function?1p9?$AA@ 10046460     FingerStrokeAssistance_capi.obj
 0002:00003478       ??_C@_0BE@PHOHONJA@MATLAB?5Function?1p10?$AA@ 10046478     FingerStrokeAssistance_capi.obj
 0002:00003490       ??_C@_0BF@GGMNNFDC@Data?5Type?5Conversion?$AA@ 10046490     FingerStrokeAssistance_capi.obj
 0002:000034ac       ??_C@_0BG@OOMJLOH@Data?5Type?5Conversion1?$AA@ 100464ac     FingerStrokeAssistance_capi.obj
 0002:000034c8       ??_C@_0L@EGNLABOL@Unit?5Delay?$AA@ 100464c8     FingerStrokeAssistance_capi.obj
 0002:000034d8       ??_C@_0M@PBMDOHED@Unit?5Delay1?$AA@ 100464d8     FingerStrokeAssistance_capi.obj
 0002:000034e8       ??_C@_0M@NKOOLEIA@Unit?5Delay2?$AA@ 100464e8     FingerStrokeAssistance_capi.obj
 0002:000034f8       ??_C@_0M@MDPFIFMB@Unit?5Delay3?$AA@ 100464f8     FingerStrokeAssistance_capi.obj
 0002:00003508       ??_C@_0CD@GLAMPGEM@HL?5Controller?1Data?5Type?5Conversi@ 10046508     FingerStrokeAssistance_capi.obj
 0002:00003534       ??_C@_0CH@PENCCFNF@HL?5Controller?1Discrete?9Time?5Inte@ 10046534     FingerStrokeAssistance_capi.obj
 0002:00003564       ??_C@_0BG@JLDBOJPN@HL?5Controller?1Damping?$AA@ 10046564     FingerStrokeAssistance_capi.obj
 0002:00003580       ??_C@_0BE@OJENBPFA@HL?5Controller?1Gain1?$AA@ 10046580     FingerStrokeAssistance_capi.obj
 0002:00003598       ??_C@_0BE@JOHLLJDM@HL?5Controller?1Delay?$AA@ 10046598     FingerStrokeAssistance_capi.obj
 0002:000035b0       ??_C@_0BF@OJKMAAIM@HL?5Controller?1Delay1?$AA@ 100465b0     FingerStrokeAssistance_capi.obj
 0002:000035cc       ??_C@_0BP@PNFNPGMG@HL?5Controller?1Discrete?5Filter1?$AA@ 100465cc     FingerStrokeAssistance_capi.obj
 0002:000035f4       ??_C@_0BJ@ELDEKLE@LL?5Force?5Controller?1Gain?$AA@ 100465f4     FingerStrokeAssistance_capi.obj
 0002:00003614       ??_C@_0BL@CCMCIEEP@LL?5Position?5Controller?1Sum?$AA@ 10046614     FingerStrokeAssistance_capi.obj
 0002:00003634       ??_C@_0BM@CABMJJDH@LL?5Position?5Controller?1Sum1?$AA@ 10046634     FingerStrokeAssistance_capi.obj
 0002:00003658       ??_C@_0BH@BAAJNFHB@Robot?1MATLAB?5Function2?$AA@ 10046658     FingerStrokeAssistance_capi.obj
 0002:00003674       ??_C@_0BH@JBCOEDA@Robot?1MATLAB?5Function3?$AA@ 10046674     FingerStrokeAssistance_capi.obj
 0002:00003690       ??_C@_0BH@EGFDHCPH@Robot?1MATLAB?5Function4?$AA@ 10046690     FingerStrokeAssistance_capi.obj
 0002:000036ac       ??_C@_0BH@FPEIEDLG@Robot?1MATLAB?5Function5?$AA@ 100466ac     FingerStrokeAssistance_capi.obj
 0002:000036c8       ??_C@_0L@NEPEIPFM@Robot?1Gain?$AA@ 100466c8     FingerStrokeAssistance_capi.obj
 0002:000036d8       ??_C@_0M@KEFEOOOC@Robot?1Gain1?$AA@ 100466d8     FingerStrokeAssistance_capi.obj
 0002:000036e8       ??_C@_0BE@OMELOOBD@Robot?1PCI?56221?5ENC?5?$AA@ 100466e8     FingerStrokeAssistance_capi.obj
 0002:00003700       ??_C@_0BF@ECAPANIC@Robot?1PCI?56221?5ENC?51?$AA@ 10046700     FingerStrokeAssistance_capi.obj
 0002:0000371c       ??_C@_0BG@HNHIMJLG@Robot?1PCI?96221?5AD1?1p1?$AA@ 1004671c     FingerStrokeAssistance_capi.obj
 0002:00003738       ??_C@_0BG@FGFFJKHF@Robot?1PCI?96221?5AD1?1p2?$AA@ 10046738     FingerStrokeAssistance_capi.obj
 0002:00003754       ??_C@_0BG@EPEOKLDE@Robot?1PCI?96221?5AD1?1p3?$AA@ 10046754     FingerStrokeAssistance_capi.obj
 0002:00003770       ??_C@_0BG@PDNPD@Robot?1PCI?96221?5AD1?1p4?$AA@ 10046770     FingerStrokeAssistance_capi.obj
 0002:0000378c       ??_C@_0BG@BJBEAMLC@Robot?1PCI?96221?5AD1?1p5?$AA@ 1004678c     FingerStrokeAssistance_capi.obj
 0002:000037a8       ??_C@_0BG@DCDJFPHB@Robot?1PCI?96221?5AD1?1p6?$AA@ 100467a8     FingerStrokeAssistance_capi.obj
 0002:000037c4       ??_C@_0BG@CLCCGODA@Robot?1PCI?96221?5AD1?1p7?$AA@ 100467c4     FingerStrokeAssistance_capi.obj
 0002:000037e0       ??_C@_0BG@KMLKHCPP@Robot?1PCI?96221?5AD1?1p8?$AA@ 100467e0     FingerStrokeAssistance_capi.obj
 0002:000037fc       ??_C@_0BG@LFKBEDLO@Robot?1PCI?96221?5AD1?1p9?$AA@ 100467fc     FingerStrokeAssistance_capi.obj
 0002:00003818       ??_C@_0BH@PNDJFIID@Robot?1PCI?96221?5AD1?1p10?$AA@ 10046818     FingerStrokeAssistance_capi.obj
 0002:00003834       ??_C@_0BH@OECCGJMC@Robot?1PCI?96221?5AD1?1p11?$AA@ 10046834     FingerStrokeAssistance_capi.obj
 0002:00003850       ??_C@_09EFINPMFM@Robot?1Sum?$AA@ 10046850     FingerStrokeAssistance_capi.obj
 0002:0000385c       ??_C@_0BH@LHMPPFDF@Robot?1Discrete?5Filter1?$AA@ 1004685c     FingerStrokeAssistance_capi.obj
 0002:00003878       ??_C@_0BB@ONCKFKHP@Robot?1Unit?5Delay?$AA@ 10046878     FingerStrokeAssistance_capi.obj
 0002:0000388c       ??_C@_0BC@GAKEBEF@Robot?1Unit?5Delay1?$AA@ 1004688c     FingerStrokeAssistance_capi.obj
 0002:000038a4       ??_C@_0BP@HDIBGFHC@Subsystem?1Data?5Type?5Conversion?$AA@ 100468a4     FingerStrokeAssistance_capi.obj
 0002:000038cc       ??_C@_0CD@IGDCNCLO@Subsystem?1Discrete?9Time?5Integrat@ 100468cc     FingerStrokeAssistance_capi.obj
 0002:000038f8       ??_C@_0BG@DAMAHEPC@Subsystem?1Unit?5Delay1?$AA@ 100468f8     FingerStrokeAssistance_capi.obj
 0002:00003914       ??_C@_0BG@BLONCHDB@Subsystem?1Unit?5Delay2?$AA@ 10046914     FingerStrokeAssistance_capi.obj
 0002:00003930       ??_C@_0CA@EBCNJBOK@Subsystem1?1Data?5Type?5Conversion?$AA@ 10046930     FingerStrokeAssistance_capi.obj
 0002:00003958       ??_C@_0CE@IGGOGCJM@Subsystem1?1Discrete?9Time?5Integra@ 10046958     FingerStrokeAssistance_capi.obj
 0002:00003984       ??_C@_0BH@OCBAAL@Subsystem1?1Unit?5Delay1?$AA@ 10046984     FingerStrokeAssistance_capi.obj
 0002:000039a0       ??_C@_0BH@CLMPEDMI@Subsystem1?1Unit?5Delay2?$AA@ 100469a0     FingerStrokeAssistance_capi.obj
 0002:000039bc       ??_C@_0BJ@LDIJMIN@parameters?1parChangeRate?$AA@ 100469bc     FingerStrokeAssistance_capi.obj
 0002:000039dc       ??_C@_0BG@MANKCMPG@parameters?1parFThresh?$AA@ 100469dc     FingerStrokeAssistance_capi.obj
 0002:000039f8       ??_C@_0BH@GKLAKHLL@parameters?1parFixedDur?$AA@ 100469f8     FingerStrokeAssistance_capi.obj
 0002:00003a14       ??_C@_0BL@EGOKLGEF@parameters?1parForceTrigger?$AA@ 10046a14     FingerStrokeAssistance_capi.obj
 0002:00003a34       ??_C@_0BC@FKHIPIEO@parameters?1parKd1?$AA@ 10046a34     FingerStrokeAssistance_capi.obj
 0002:00003a4c       ??_C@_0BC@HBFFKLIN@parameters?1parKd2?$AA@ 10046a4c     FingerStrokeAssistance_capi.obj
 0002:00003a64       ??_C@_0BD@BKPLMOHI@parameters?1parKdV1?$AA@ 10046a64     FingerStrokeAssistance_capi.obj
 0002:00003a7c       ??_C@_0BD@DBNGJNLL@parameters?1parKdV2?$AA@ 10046a7c     FingerStrokeAssistance_capi.obj
 0002:00003a94       ??_C@_0BC@EBFHPDOC@parameters?1parKp1?$AA@ 10046a94     FingerStrokeAssistance_capi.obj
 0002:00003aac       ??_C@_0BC@GKHKKACB@parameters?1parKp2?$AA@ 10046aac     FingerStrokeAssistance_capi.obj
 0002:00003ac4       ??_C@_0BH@PENPCGFM@parameters?1parLeftMode?$AA@ 10046ac4     FingerStrokeAssistance_capi.obj
 0002:00003ae0       ??_C@_0BF@GLMDNGIG@parameters?1parMarker?$AA@ 10046ae0     FingerStrokeAssistance_capi.obj
 0002:00003afc       ??_C@_0BJ@BNLOJEEL@parameters?1parMaxTrajDur?$AA@ 10046afc     FingerStrokeAssistance_capi.obj
 0002:00003b1c       ??_C@_0BE@GHPCIJPH@parameters?1parPStop?$AA@ 10046b1c     FingerStrokeAssistance_capi.obj
 0002:00003b34       ??_C@_0BH@GJMCKDGC@parameters?1parTrajMode?$AA@ 10046b34     FingerStrokeAssistance_capi.obj
 0002:00003b50       ??_C@_0BG@LMGBBNNN@parameters?1parVThresh?$AA@ 10046b50     FingerStrokeAssistance_capi.obj
 0002:00003b6c       ??_C@_0BI@PBEPHEEP@parameters?1parWiggleAmp?$AA@ 10046b6c     FingerStrokeAssistance_capi.obj
 0002:00003b88       ??_C@_0BN@BNDFGDOE@parameters?1Rounding?5Function?$AA@ 10046b88     FingerStrokeAssistance_capi.obj
 0002:00003bac       ??_C@_0BG@KKGOACNA@parameters?1Saturation?$AA@ 10046bac     FingerStrokeAssistance_capi.obj
 0002:00003bc8       ??_C@_0BH@EACELLGE@parameters?1Saturation1?$AA@ 10046bc8     FingerStrokeAssistance_capi.obj
 0002:00003be4       ??_C@_0BH@GLAJOIKH@parameters?1Saturation2?$AA@ 10046be4     FingerStrokeAssistance_capi.obj
 0002:00003c00       ??_C@_0N@MGJILHCJ@signals?1Gain?$AA@ 10046c00     FingerStrokeAssistance_capi.obj
 0002:00003c10       ??_C@_0DG@IOBGNGCJ@HL?5Controller?1Detect?5Change?1FixP@ 10046c10     FingerStrokeAssistance_capi.obj
 0002:00003c50       ??_C@_0CJ@CLPCMDPG@HL?5Controller?1Detect?5Change?1Dela@ 10046c50     FingerStrokeAssistance_capi.obj
 0002:00003c84       ??_C@_06CFNEEADJ@U?$CIk?91?$CJ?$AA@ 10046c84     FingerStrokeAssistance_capi.obj
 0002:00003c8c       ??_C@_0DG@KEKODAM@LL?5Position?5Controller?1Discrete?5@ 10046c8c     FingerStrokeAssistance_capi.obj
 0002:00003ccc       ??_C@_0DK@FEAOEOMF@LL?5Position?5Controller?1Discrete?5@ 10046ccc     FingerStrokeAssistance_capi.obj
 0002:00003d14       ??_C@_0DP@BEAACIAJ@LL?5Position?5Controller?1Discrete?5@ 10046d14     FingerStrokeAssistance_capi.obj
 0002:00003d60       ??_C@_0EC@JPHJHLOK@LL?5Position?5Controller?1Discrete?5@ 10046d60     FingerStrokeAssistance_capi.obj
 0002:00003db0       ??_C@_0DN@OCDKGAHF@LL?5Position?5Controller?1Discrete?5@ 10046db0     FingerStrokeAssistance_capi.obj
 0002:00003e00       ??_C@_0EB@MFGGOBNC@LL?5Position?5Controller?1Discrete?5@ 10046e00     FingerStrokeAssistance_capi.obj
 0002:00003e50       ??_C@_0DD@GAMJPEHE@LL?5Position?5Controller?1Discrete?5@ 10046e50     FingerStrokeAssistance_capi.obj
 0002:00003e90       ??_C@_0DE@MDBNPGNA@LL?5Position?5Controller?1Discrete?5@ 10046e90     FingerStrokeAssistance_capi.obj
 0002:00003ed0       ??_C@_0DH@KBAOACOF@LL?5Position?5Controller?1Saturatio@ 10046ed0     FingerStrokeAssistance_capi.obj
 0002:00003f14       ??_C@_0DG@OJDANGHJ@LL?5Position?5Controller?1Saturatio@ 10046f14     FingerStrokeAssistance_capi.obj
 0002:00003f54       ??_C@_0DC@BEODJEFG@LL?5Position?5Controller?1Saturatio@ 10046f54     FingerStrokeAssistance_capi.obj
 0002:00003f90       ??_C@_0DD@GPGMEDCE@LL?5Position?5Controller?1Saturatio@ 10046f90     FingerStrokeAssistance_capi.obj
 0002:00003fd0       ??_C@_0DH@NNGPCHDO@LL?5Position?5Controller?1Saturatio@ 10046fd0     FingerStrokeAssistance_capi.obj
 0002:00004014       ??_C@_0DG@FEPKLKLH@LL?5Position?5Controller?1Saturatio@ 10047014     FingerStrokeAssistance_capi.obj
 0002:00004054       ??_C@_0DC@CNGOKIJD@LL?5Position?5Controller?1Saturatio@ 10047054     FingerStrokeAssistance_capi.obj
 0002:00004090       ??_C@_0DD@IEFLPICH@LL?5Position?5Controller?1Saturatio@ 10047090     FingerStrokeAssistance_capi.obj
 0002:000040d0       ??_C@_0BP@DAEPAEBF@Robot?1Discrete?5Derivative?1Diff?$AA@ 100470d0     FingerStrokeAssistance_capi.obj
 0002:000040f8       ??_C@_0CA@DLBHKHPN@Robot?1Discrete?5Derivative?1TSamp?$AA@ 100470f8     FingerStrokeAssistance_capi.obj
 0002:00004120       ??_C@_0BN@GNNONLLN@Robot?1Discrete?5Derivative?1UD?$AA@ 10047120     FingerStrokeAssistance_capi.obj
 0002:00004144       ??_C@_0CF@JOKCEMIH@Robot?1Saturation?5Dynamic?1LowerRe@ 10047144     FingerStrokeAssistance_capi.obj
 0002:00004170       ??_C@_0CE@PAHIGJNP@Robot?1Saturation?5Dynamic?1UpperRe@ 10047170     FingerStrokeAssistance_capi.obj
 0002:0000419c       ??_C@_0CA@NDOLBHN@Robot?1Saturation?5Dynamic?1Switch?$AA@ 1004719c     FingerStrokeAssistance_capi.obj
 0002:000041c4       ??_C@_0CB@MDMJGHEB@Robot?1Saturation?5Dynamic?1Switch2@ 100471c4     FingerStrokeAssistance_capi.obj
 0002:000041ec       ??_C@_0BO@KMPBMPBM@Robot?1Triggered?5Subsystem?1In1?$AA@ 100471ec     FingerStrokeAssistance_capi.obj
 0002:00004210       ??_C@_0BP@KHFLLFDO@Robot?1Triggered?5Subsystem1?1In1?$AA@ 10047210     FingerStrokeAssistance_capi.obj
 0002:00004238       ??_C@_0DA@IHGHECDK@Robot?1account?5for?5handedness?1MAT@ 10047238     FingerStrokeAssistance_capi.obj
 0002:00004274       ??_C@_0DA@KMEKBBPJ@Robot?1account?5for?5handedness?1MAT@ 10047274     FingerStrokeAssistance_capi.obj
 0002:000042b0       ??_C@_0DB@ENPBKHPM@Robot?1account?5for?5handedness1?1MA@ 100472b0     FingerStrokeAssistance_capi.obj
 0002:000042ec       ??_C@_0DB@BNMCHGNM@Robot?1account?5for?5handedness2?1MA@ 100472ec     FingerStrokeAssistance_capi.obj
 0002:00004328       ??_C@_0DB@DGOPCFBP@Robot?1account?5for?5handedness2?1MA@ 10047328     FingerStrokeAssistance_capi.obj
 0002:00004364       ??_C@_0CM@LEIBMJGE@Robot?1filtered?5force?5output?1Low?5@ 10047364     FingerStrokeAssistance_capi.obj
 0002:00004398       ??_C@_0CN@IMDGCDDK@Robot?1filtered?5force?5output?1Low?5@ 10047398     FingerStrokeAssistance_capi.obj
 0002:000043d0       ??_C@_0CD@NAELEMPL@Robot?1filtered?5force?5output?1Memo@ 100473d0     FingerStrokeAssistance_capi.obj
 0002:000043fc       ??_C@_0CE@OMOCGHGK@Robot?1filtered?5force?5output?1Memo@ 100473fc     FingerStrokeAssistance_capi.obj
 0002:00004428       ??_C@_0DC@HIOFCDHB@Subsystem?1Detect?5Change?1FixPt?5Re@ 10047428     FingerStrokeAssistance_capi.obj
 0002:00004464       ??_C@_0CF@IOCCGEMF@Subsystem?1Detect?5Change?1Delay?5In@ 10047464     FingerStrokeAssistance_capi.obj
 0002:00004490       ??_C@_0DD@ODDDIJKC@Subsystem1?1Detect?5Change?1FixPt?5R@ 10047490     FingerStrokeAssistance_capi.obj
 0002:000044d0       ??_C@_0CG@OCPBJBDF@Subsystem1?1Detect?5Change?1Delay?5I@ 100474d0     FingerStrokeAssistance_capi.obj
 0002:00004500       ??_C@_0CH@KJDMLLPO@parameters?1gain?5transition?1gainr@ 10047500     FingerStrokeAssistance_capi.obj
 0002:00004530       ??_C@_0CH@ICBBOIDN@parameters?1gain?5transition?1gainr@ 10047530     FingerStrokeAssistance_capi.obj
 0002:00004560       ??_C@_0CC@BDCPHDEE@parameters?1gain?5transition?1Memor@ 10047560     FingerStrokeAssistance_capi.obj
 0002:00004588       ??_C@_0CI@PJCJMMGB@parameters?1gain?5transition1?1gain@ 10047588     FingerStrokeAssistance_capi.obj
 0002:000045b8       ??_C@_0CI@NCAEJPKC@parameters?1gain?5transition1?1gain@ 100475b8     FingerStrokeAssistance_capi.obj
 0002:000045e8       ??_C@_0CD@LNHEJADF@parameters?1gain?5transition1?1Memo@ 100475e8     FingerStrokeAssistance_capi.obj
 0002:00004614       ??_C@_0CI@IFEIOJLK@parameters?1gain?5transition2?1gain@ 10047614     FingerStrokeAssistance_capi.obj
 0002:00004644       ??_C@_0CI@KOGFLKHJ@parameters?1gain?5transition2?1gain@ 10047644     FingerStrokeAssistance_capi.obj
 0002:00004674       ??_C@_0CD@IEPJKMPA@parameters?1gain?5transition2?1Memo@ 10047674     FingerStrokeAssistance_capi.obj
 0002:000046a0       ??_C@_0CI@BIEHAIMM@parameters?1gain?5transition3?1gain@ 100476a0     FingerStrokeAssistance_capi.obj
 0002:000046d0       ??_C@_0CI@DDGKFLAP@parameters?1gain?5transition3?1gain@ 100476d0     FingerStrokeAssistance_capi.obj
 0002:00004700       ??_C@_0CD@JDICLILD@parameters?1gain?5transition3?1Memo@ 10047700     FingerStrokeAssistance_capi.obj
 0002:0000472c       ??_C@_0CI@HNIKKCAM@parameters?1gain?5transition4?1gain@ 1004772c     FingerStrokeAssistance_capi.obj
 0002:0000475c       ??_C@_0CI@FGKHPBMP@parameters?1gain?5transition4?1gain@ 1004775c     FingerStrokeAssistance_capi.obj
 0002:0000478c       ??_C@_0CD@PHODNFHK@parameters?1gain?5transition4?1Memo@ 1004778c     FingerStrokeAssistance_capi.obj
 0002:000047b8       ??_C@_0CI@OAIFEDHK@parameters?1gain?5transition5?1gain@ 100477b8     FingerStrokeAssistance_capi.obj
 0002:000047e8       ??_C@_0CI@MLKIBALJ@parameters?1gain?5transition5?1gain@ 100477e8     FingerStrokeAssistance_capi.obj
 0002:00004818       ??_C@_0CD@OAJIMBDJ@parameters?1gain?5transition5?1Memo@ 10047818     FingerStrokeAssistance_capi.obj
 0002:00004844       ??_C@_09IIHOELEE@Constant1?$AA@ 10047844     FingerStrokeAssistance_capi.obj
 0002:00004850       ??_C@_05LPIJGKJ@Value?$AA@ 10047850     FingerStrokeAssistance_capi.obj
 0002:00004858       ??_C@_09KDFDBIIH@Constant2?$AA@ 10047858     FingerStrokeAssistance_capi.obj
 0002:00004864       ??_C@_09LKEICJMG@Constant3?$AA@ 10047864     FingerStrokeAssistance_capi.obj
 0002:00004870       ??_C@_09PFAJLPAB@Constant4?$AA@ 10047870     FingerStrokeAssistance_capi.obj
 0002:0000487c       ??_C@_09OMBCIOEA@Constant5?$AA@ 1004787c     FingerStrokeAssistance_capi.obj
 0002:00004888       ??_C@_09MHDPNNID@Constant6?$AA@ 10047888     FingerStrokeAssistance_capi.obj
 0002:00004894       ??_C@_09NOCEOMMC@Constant7?$AA@ 10047894     FingerStrokeAssistance_capi.obj
 0002:000048a0       ??_C@_09FJLMPAAN@Constant8?$AA@ 100478a0     FingerStrokeAssistance_capi.obj
 0002:000048ac       ??_C@_0BB@CFEOEMDC@InitialCondition?$AA@ 100478ac     FingerStrokeAssistance_capi.obj
 0002:000048c0       ??_C@_0BM@NNJFPEF@HL?5Controller?1Detect?5Change?$AA@ 100478c0     FingerStrokeAssistance_capi.obj
 0002:000048e4       ??_C@_05NAMIGJNB@vinit?$AA@ 100478e4     FingerStrokeAssistance_capi.obj
 0002:000048ec       ??_C@_07KKMCCDCH@gainval?$AA@ 100478ec     FingerStrokeAssistance_capi.obj
 0002:000048f8       ??_C@_0BF@GLIOIDJM@UpperSaturationLimit?$AA@ 100478f8     FingerStrokeAssistance_capi.obj
 0002:00004914       ??_C@_0BF@EMCFELNH@LowerSaturationLimit?$AA@ 10047914     FingerStrokeAssistance_capi.obj
 0002:00004930       ??_C@_04OMOMKKFL@Gain?$AA@ 10047930     FingerStrokeAssistance_capi.obj
 0002:00004938       ??_C@_0M@KNNCJG@DelayLength?$AA@ 10047938     FingerStrokeAssistance_capi.obj
 0002:00004948       ??_C@_09OMDFKCLN@Numerator?$AA@ 10047948     FingerStrokeAssistance_capi.obj
 0002:00004954       ??_C@_0M@KDILNJPK@Denominator?$AA@ 10047954     FingerStrokeAssistance_capi.obj
 0002:00004964       ??_C@_0O@KHJPNGBD@InitialStates?$AA@ 10047964     FingerStrokeAssistance_capi.obj
 0002:00004974       ??_C@_0CP@MNGHIGCN@LL?5Position?5Controller?1Discrete?5@ 10047974     FingerStrokeAssistance_capi.obj
 0002:000049ac       ??_C@_01EJNLAFE@P?$AA@     100479ac     FingerStrokeAssistance_capi.obj
 0002:000049b0       ??_C@_01JPJNBJEM@I?$AA@    100479b0     FingerStrokeAssistance_capi.obj
 0002:000049b4       ??_C@_01CKDDGHAB@D?$AA@    100479b4     FingerStrokeAssistance_capi.obj
 0002:000049b8       ??_C@_01NANMIPIL@N?$AA@    100479b8     FingerStrokeAssistance_capi.obj
 0002:000049bc       ??_C@_0CA@PGDGGMCL@LL?5Position?5Controller?1Constant?$AA@ 100479bc     FingerStrokeAssistance_capi.obj
 0002:000049e4       ??_C@_0BB@BPKEPNND@ON?1?1OFF?1Constant?$AA@ 100479e4     FingerStrokeAssistance_capi.obj
 0002:000049f8       ??_C@_0CL@IJMAEGGM@Position?5Control?5?1?1?5Force?5Contro@ 100479f8     FingerStrokeAssistance_capi.obj
 0002:00004a2c       ??_C@_0BK@MMODBLJF@Robot?1Discrete?5Derivative?$AA@ 10047a2c     FingerStrokeAssistance_capi.obj
 0002:00004a4c       ??_C@_0BC@DNAKAAEE@ICPrevScaledInput?$AA@ 10047a4c     FingerStrokeAssistance_capi.obj
 0002:00004a64       ??_C@_02KKFPAPOP@P1?$AA@   10047a64     FingerStrokeAssistance_capi.obj
 0002:00004a68       ??_C@_02IBHCFMCM@P2?$AA@   10047a68     FingerStrokeAssistance_capi.obj
 0002:00004a6c       ??_C@_02JIGJGNGN@P3?$AA@   10047a6c     FingerStrokeAssistance_capi.obj
 0002:00004a70       ??_C@_02NHCIPLKK@P4?$AA@   10047a70     FingerStrokeAssistance_capi.obj
 0002:00004a74       ??_C@_02MODDMKOL@P5?$AA@   10047a74     FingerStrokeAssistance_capi.obj
 0002:00004a78       ??_C@_02OFBOJJCI@P6?$AA@   10047a78     FingerStrokeAssistance_capi.obj
 0002:00004a7c       ??_C@_02PMAFKIGJ@P7?$AA@   10047a7c     FingerStrokeAssistance_capi.obj
 0002:00004a80       ??_C@_02HLJNLEKG@P8?$AA@   10047a80     FingerStrokeAssistance_capi.obj
 0002:00004a84       ??_C@_02GCIGIFOH@P9?$AA@   10047a84     FingerStrokeAssistance_capi.obj
 0002:00004a88       ??_C@_03OPFJJGBF@P10?$AA@  10047a88     FingerStrokeAssistance_capi.obj
 0002:00004a8c       ??_C@_0BD@HJHAJHEM@Robot?1PCI?96221?5AD1?$AA@ 10047a8c     FingerStrokeAssistance_capi.obj
 0002:00004aa4       ??_C@_0BC@IGENNOJN@Robot?1PCI?96221?5DA?$AA@ 10047aa4     FingerStrokeAssistance_capi.obj
 0002:00004abc       ??_C@_0BI@CCIOLKMP@Subsystem?1Detect?5Change?$AA@ 10047abc     FingerStrokeAssistance_capi.obj
 0002:00004ad8       ??_C@_0BJ@KNCPHFFI@Subsystem1?1Detect?5Change?$AA@ 10047ad8     FingerStrokeAssistance_capi.obj
 0002:00004af8       ??_C@_0CD@NBHNHEJB@parameters?1paremeters_?5must_be_o@ 10047af8     FingerStrokeAssistance_capi.obj
 0002:00004b24       ??_C@_0L@FBCGKKEN@UpperLimit?$AA@ 10047b24     FingerStrokeAssistance_capi.obj
 0002:00004b34       ??_C@_0L@DGFJOHKP@LowerLimit?$AA@ 10047b34     FingerStrokeAssistance_capi.obj
 0002:00004b44       ??_C@_04GKLBNPCL@WtEt?$AA@ 10047b44     FingerStrokeAssistance_capi.obj
 0002:00004b4c       ??_C@_0BP@KMPJMACH@Robot?1Triggered?5Subsystem?1Out1?$AA@ 10047b4c     FingerStrokeAssistance_capi.obj
 0002:00004b74       ??_C@_0O@LILIEJBO@InitialOutput?$AA@ 10047b74     FingerStrokeAssistance_capi.obj
 0002:00004b84       ??_C@_0CA@HJJCCLLJ@Robot?1Triggered?5Subsystem1?1Out1?$AA@ 10047b84     FingerStrokeAssistance_capi.obj
 0002:00004bac       ??_C@_02LNFHGPBG@X0?$AA@   10047bac     FingerStrokeAssistance_capi.obj
 0002:00004bb0       ??_C@_04OELFCIM@Alow?$AA@  10047bb0     FingerStrokeAssistance_capi.obj
 0002:00004bb8       ??_C@_04EJOLCIFM@Blow?$AA@ 10047bb8     FingerStrokeAssistance_capi.obj
 0002:00004bc0       ??_C@_04HEILABOM@Clow?$AA@ 10047bc0     FingerStrokeAssistance_capi.obj
 0002:00004bc8       ??_C@_04MGKLNNPM@Dlow?$AA@ 10047bc8     FingerStrokeAssistance_capi.obj
 0002:00004bd0       ??_C@_05FKGIECOB@x0low?$AA@ 10047bd0     FingerStrokeAssistance_capi.obj
 0002:00004bd8       ??_C@_06BNJCAIGJ@double?$AA@ 10047bd8     FingerStrokeAssistance_capi.obj
 0002:00004be0       ??_C@_06CNMIJIPB@real_T?$AA@ 10047be0     FingerStrokeAssistance_capi.obj
 0002:00004be8       ??_C@_0O@PPAIJIHF@unsigned?5char?$AA@ 10047be8     FingerStrokeAssistance_capi.obj
 0002:00004bf8       ??_C@_09JBMFCIMO@boolean_T?$AA@ 10047bf8     FingerStrokeAssistance_capi.obj
 0002:00004c04       ??_C@_0N@OFHMGPAL@unsigned?5int?$AA@ 10047c04     FingerStrokeAssistance_capi.obj
 0002:00004c14       ??_C@_08CCMIKNJF@uint32_T?$AA@ 10047c14     FingerStrokeAssistance_capi.obj
 0002:00004c20       ??_C@_05KNFBNCOH@float?$AA@ 10047c20     FingerStrokeAssistance_capi.obj
 0002:00004c28       ??_C@_0CJ@GGPBKPNK@Could?5not?5start?5ToAsyncQueue?5app@ 10047c28     FingerStrokeAssistance_tgtconn.obj
 0002:000054c0       ??_C@_0DJ@FHKINPLE@Unexpected?5itemKind?5?$DN?5DATA_ITEM?5@ 100484c0     rt_logging.obj
 0002:00005504       ??_C@_0DA@IEHFPFCJ@Unexpected?5itemKind?$DN?$CFd?5in?5rt_Pro@ 10048504     rt_logging.obj
 0002:00005540       ??_C@_0DA@IFLHJPBO@Unexpected?5itemKind?$DN?$CFd?5in?5rt_Pro@ 10048540     rt_logging.obj
 0002:0000557c       ??_C@_0DA@IAPIIJJL@Unexpected?5itemKind?$DN?$CFd?5in?5rt_Pro@ 1004857c     rt_logging.obj
 0002:000055b8       ??_C@_0BE@LCIGPJIG@MATLAB?55?40?5MAT?9file?$AA@ 100485b8     rt_logging.obj
 0002:000055d0       ??_C@_0FB@PCJEAJIB@?$CK?$CK?$CK?5Log?5variable?5?$CFs?5has?5wrapped?5@ 100485d0     rt_logging.obj
 0002:00005638       ??_C@_0MG@NKMLMOGF@?$CK?$CK?$CK?5To?5avoid?5wrapping?0?5explicitl@ 10048638     rt_logging.obj
 0002:00005728       ??_C@_0N@IPAEOLLP@_rtw_tmw?4tmw?$AA@ 10048728     rt_logging.obj
 0002:00005738       ??_C@_04HDOCAJNK@?$CFs?$CFs?$AA@ 10048738     rt_logging.obj
 0002:00005740       ??_C@_03ELIABIOC@w?$CLb?$AA@ 10048740     rt_logging.obj
 0002:00005744       ??_C@_0BF@JPILDDFA@?$CK?$CK?$CK?5Error?5opening?5?$CFs?$AA@ 10048744     rt_logging.obj
 0002:00005760       ??_C@_0BK@EEMDELA@unable?5to?5open?5data?5file?6?$AA@ 10048760     rt_logging.obj
 0002:00005780       ??_C@_04CGFJFPFD@none?$AA@ 10048780     rt_logging.obj
 0002:00005788       ??_C@_0EE@LCGFPNON@?$CK?$CK?$CK?5Error?5creating?5signals?5struc@ 10048788     rt_logging.obj
 0002:000057dc       ??_C@_0CE@NHECEDMK@?$CK?$CK?$CK?5Error?5creating?5log?5variable?5@ 100487dc     rt_logging.obj
 0002:00005808       ??_C@_0DB@IOCGKAGH@?$CK?$CK?$CK?5Errors?5occurred?5when?5startin@ 10048808     rt_logging.obj
 0002:00005844       ??_C@_0BO@BBLOGEBK@?$CK?$CK?$CK?5Memory?5allocation?5error?4?6?$AA@ 10048844     rt_logging.obj
 0002:00005868       ??_C@_0N@LGFBAGEL@?5?$CIreal?5part?$CJ?$AA@ 10048868     rt_logging.obj
 0002:00005878       ??_C@_0KH@CGNMHNFE@?5?5?5?5varName?5?5?5?5?5?5?5?5?5?5?$DN?5?$CFs?$CFs?6?5?5?5?5@ 10048878     rt_logging.obj
 0002:00005940       ??_C@_0LE@OALKKEFM@?5?5?5?5varName?5?5?5?5?5?5?5?5?5?5?$DN?5?$CFs?5?$CIcompl@ 10048940     rt_logging.obj
 0002:00005a18       ??_C@_0KF@JDDLEOKO@?5?5?5?5varName?5?5?5?5?5?5?5?5?5?5?$DN?5?$CFs?6?5?5?5?5nR@ 10048a18     rt_logging.obj
 0002:00005ae0       ??_C@_0DP@HPDMIOFM@?$CK?$CK?$CK?5Using?5a?5default?5buffer?5of?5si@ 10048ae0     rt_logging.obj
 0002:00005b30       ??_C@_0KE@JEFOLKNF@?6?$CK?$CK?$CK?5Memory?5required?5to?5log?5vari@ 10048b30     rt_logging.obj
 0002:00005bf8       ??_C@_0JP@DKLMHCBI@?$CK?$CK?$CK?5Details?3?6?5?5?5?5?5?5?5varName?5?5?5?5?5@ 10048bf8     rt_logging.obj
 0002:00005cb8       ??_C@_0CM@CAMILBED@?$CK?$CK?$CK?5Error?5allocating?5memory?5for?5@ 10048cb8     rt_logging.obj
 0002:00005cec       ??_C@_0DF@BBCNMOPM@?$CK?$CK?$CK?5Error?5allocating?5memory?5for?5@ 10048cec     rt_logging.obj
 0002:00005d30       ??_C@_0JP@DBCLPCCI@?$CK?$CK?$CK?5Details?3?6?5?5?5?5?5?5?5varName?5?5?5?5?5@ 10048d30     rt_logging.obj
 0002:00005df0       ??_C@_0FK@DPGAOBGA@?$CK?$CK?$CK?5Error?5allocating?5memory?5for?5@ 10048df0     rt_logging.obj
 0002:00005e5c       ??_C@_0BI@GGDNPHLJ@?$CK?$CK?$CK?5Error?5writing?5to?5?$CFs?$AA@ 10048e5c     rt_logging.obj
 0002:00005e78       ??_C@_0CB@IBGJGELG@?$CK?$CK?$CK?5Error?5writing?5?$CFs?5due?5to?3?5?$CFs?6@ 10048e78     rt_logging.obj
 0002:00005ea0       ??_C@_0CN@FLMCHCPB@?$CK?$CK?$CK?5Error?5writing?5log?5variable?5?$CF@ 10048ea0     rt_logging.obj
 0002:00005ed8       ??_C@_0DH@GAJCNOJP@?$CK?$CK?$CK?5Error?5writing?5structure?5log?5@ 10048ed8     rt_logging.obj
 0002:00005f1c       ??_C@_0BD@POEALECL@?$CK?$CK?5created?5?$CFs?5?$CK?$CK?6?6?$AA@ 10048f1c     rt_logging.obj
 0002:00005f38       __real@4020000000000000    10048f38     rt_logging.obj
 0002:00005f48       __real@41dfffffffc00000    10048f48     rt_logging.obj
 0002:00005f58       __real@41efffffffe00000    10048f58     rt_logging.obj
 0002:00005f68       __real@bfbf9add3afd2773    10048f68     rt_logging.obj
 0002:00005f78       __real@c000000000000000    10048f78     rt_logging.obj
 0002:00005f90       __xmm@20202020202020202020202020202020 10048f90     rt_logging.obj
 0002:00005fc0       __real@3cb0000000000000    10048fc0     rt_matrx.obj
 0002:00005fe0       ??_C@_0BI@INNPNFJN@Memory?5Allocation?5Error?$AA@ 10048fe0     rtw_modelmap_utils.obj
 0002:00006000       ??_C@_1HC@OAPLBLFC@?$AAC?$AA?3?$AA?2?$AAP?$AAR?$AAO?$AAG?$AAR?$AAA?$AA?$HO?$AA1?$AA?2?$AAM?$AAA?$AAT?$AAL?$AAA?$AAB?$AA?2?$AAR?$AA2?$AA0?$AA1?$AA6?$AAa?$AA?2?$AAr?$AAt?$AAw?$AA?2?$AAc?$AA?2@ 10049000     rtw_modelmap_utils.obj
 0002:00006088       ??_C@_1CI@OEAJCJND@?$AAj?$AA?5?$AA?$DN?$AA?$DN?$AA?5?$AAe?$AAn?$AAc?$AAo?$AAd?$AAe?$AAd?$AAP?$AAa?$AAt?$AAh?$AAL?$AAe?$AAn?$AA?$AA@ 10049088     rtw_modelmap_utils.obj
 0002:000060b8       ??_C@_1DC@NFAOIFKB@?$AAe?$AAn?$AAc?$AAo?$AAd?$AAe?$AAd?$AAP?$AAa?$AAt?$AAh?$AA?$FL?$AAj?$AA?9?$AA1?$AA?$FN?$AA?5?$AA?$DN?$AA?$DN?$AA?5?$AA?8?$AA?2?$AA0?$AA?8?$AA?$AA@ 100490b8     rtw_modelmap_utils.obj
 0002:000060f4       ??_C@_1DI@FLNJGPEE@?$AAs?$AAi?$AAg?$AAC?$AAo?$AAm?$AAp?$AAl?$AAe?$AAx?$AAi?$AAt?$AAy?$AA?$FL?$AA?$CK?$AAs?$AAi?$AAg?$AAI?$AAd?$AAx?$AA?$FN?$AA?5?$AA?$CB?$AA?$DN?$AA?5?$AA1?$AA?$AA@ 100490f4     rtw_modelmap_utils.obj
 0002:00006138       ??_C@_1KI@OFELMGBG@?$AA?$CI?$AA?$CI?$AA?$CI?$AAd?$AAa?$AAt?$AAa?$AAT?$AAy?$AAp?$AAe?$AAM?$AAa?$AAp?$AA?$CJ?$AA?$FL?$AA?$CI?$AA?$CI?$AA?$CI?$AAs?$AAt?$AAa?$AAt?$AAe?$AAs?$AA?$CJ?$AA?$FL?$AA?$CI?$AAi?$AA?$CJ?$AA?$FN?$AA?4@ 10049138     rtw_modelmap_utils.obj
 0002:00006204       ??_C@_1DA@ILCMPHNE@?$AAf?$AAu?$AAl?$AAl?$AAP?$AAa?$AAt?$AAh?$AA?5?$AA?$CB?$AA?$DN?$AA?5?$AA?$CI?$AA?$CI?$AAv?$AAo?$AAi?$AAd?$AA?5?$AA?$CK?$AA?$CJ?$AA0?$AA?$CJ?$AA?$AA@ 10049204     rtw_modelmap_utils.obj
 0002:00006240       ??_C@_1CI@OEPPFCCA@?$AAp?$AAa?$AAt?$AAh?$AA?5?$AA?$CB?$AA?$DN?$AA?5?$AA?$CI?$AA?$CI?$AAv?$AAo?$AAi?$AAd?$AA?5?$AA?$CK?$AA?$CJ?$AA0?$AA?$CJ?$AA?$AA@ 10049240     rtw_modelmap_utils.obj
 0002:00006270       ??_C@_1FK@GLJIMFHB@?$AA?$CI?$AA?$CI?$AAm?$AAm?$AAi?$AA?$CJ?$AA?9?$AA?$DO?$AAI?$AAn?$AAs?$AAt?$AAa?$AAn?$AAc?$AAe?$AAM?$AAa?$AAp?$AA?4?$AAf?$AAu?$AAl?$AAl?$AAP?$AAa?$AAt?$AAh?$AA?$CJ?$AA?5?$AA?$DN?$AA?$DN@ 10049270     rtw_modelmap_utils.obj
 0002:000062dc       ??_C@_1DG@HPCJGNCE@?$AAm?$AAm?$AAi?$AAP?$AAa?$AAt?$AAh?$AA?$FL?$AAp?$AAa?$AAt?$AAh?$AAL?$AAe?$AAn?$AA?9?$AA1?$AA?$FN?$AA?5?$AA?$DN?$AA?$DN?$AA?5?$AA?8?$AA?2?$AA0?$AA?8?$AA?$AA@ 100492dc     rtw_modelmap_utils.obj
 0002:0000631c       ??_C@_1DM@DBAOGGOO@?$AAm?$AAm?$AAi?$AAP?$AAa?$AAt?$AAh?$AA?$FL?$AAm?$AAm?$AAi?$AAP?$AAa?$AAt?$AAh?$AAL?$AAe?$AAn?$AA?9?$AA1?$AA?$FN?$AA?5?$AA?$DN?$AA?$DN?$AA?5?$AA?8?$AA?2?$AA0?$AA?8?$AA?$AA@ 1004931c     rtw_modelmap_utils.obj
 0002:00006364       ??_C@_1DC@LHIAKAFE@?$AAb?$AAl?$AAo?$AAc?$AAk?$AAP?$AAa?$AAt?$AAh?$AA?5?$AA?$CB?$AA?$DN?$AA?5?$AA?$CI?$AA?$CI?$AAv?$AAo?$AAi?$AAd?$AA?5?$AA?$CK?$AA?$CJ?$AA0?$AA?$CJ?$AA?$AA@ 10049364     rtw_modelmap_utils.obj
 0002:000063a0       ??_C@_1GI@KIEJKPGC@?$AAf?$AAu?$AAl?$AAl?$AAS?$AAt?$AAa?$AAt?$AAe?$AAB?$AAl?$AAo?$AAc?$AAk?$AAP?$AAa?$AAt?$AAh?$AA?$FL?$AAf?$AAu?$AAl?$AAl?$AAS?$AAt?$AAa?$AAt?$AAe?$AAB?$AAl?$AAo?$AAc@ 100493a0     rtw_modelmap_utils.obj
 0002:00006420       ??_C@_1EE@DNPIBJHC@?$AA?$CI?$AA?$CI?$AAd?$AAi?$AAm?$AAM?$AAa?$AAp?$AA?$CJ?$AA?$FL?$AA?$CI?$AAm?$AAa?$AAp?$AAI?$AAd?$AAx?$AA?$CJ?$AA?$FN?$AA?4?$AAn?$AAu?$AAm?$AAD?$AAi?$AAm?$AAs?$AA?$CJ?$AA?5?$AA?$DN?$AA?$DN?$AA?5@ 10049420     rtw_modelmap_utils.obj
 0002:00006474       ??_C@_06JFOKFOED@CSTATE?$AA@ 10049474     rtw_modelmap_utils.obj
 0002:0000647c       ??_C@_06FAENGAMN@DSTATE?$AA@ 1004947c     rtw_modelmap_utils.obj
 0002:00006484       ??_C@_1BI@LEBJNOGG@?$AAc?$AAs?$AAv?$AAI?$AAd?$AAx?$AA?5?$AA?$DO?$AA?$DN?$AA?5?$AA0?$AA?$AA@ 10049484     rtw_modelmap_utils.obj
 0002:000064a0       ??_C@_1BA@KDMGHCHP@?$AAT?$AAI?$AAD?$AA?$DN?$AA?$DN?$AA?9?$AA1?$AA?$AA@ 100494a0     rtw_modelmap_utils.obj
 0002:000064b4       ??_C@_1DM@DHGKBPCE@?$AAs?$AAi?$AAg?$AAP?$AAa?$AAt?$AAh?$AA?$FL?$AAs?$AAi?$AAg?$AAP?$AAa?$AAt?$AAh?$AAL?$AAe?$AAn?$AA?9?$AA1?$AA?$FN?$AA?5?$AA?$DN?$AA?$DN?$AA?5?$AA?8?$AA?2?$AA0?$AA?8?$AA?$AA@ 100494b4     rtw_modelmap_utils.obj
 0002:000064fc       _serialfifoground          100494fc     xpc_datatype_ground.obj
 0002:00006508       _bcmsg1553ground           10049508     xpc_datatype_ground.obj
 0002:00006518       _bcstatground              10049518     xpc_datatype_ground.obj
 0002:00006530       _bmmsg1553ground           10049530     xpc_datatype_ground.obj
 0002:00006550       _ptsetfilename             10049550     xpctarget.obj
 0002:00006554       _xmlfile                   10049554     xpctarget.obj
 0002:0000655c       ??_C@_0BH@DNMKOCPI@FingerStrokeAssistance?$AA@ 1004955c     xpctarget.obj
 0002:00006578       ??_C@_0L@CHBJKKFC@xpceSetVar?$AA@ 10049578     xpctarget.obj
 0002:00006588       ??_C@_03ICACBPID@6?44?$AA@ 10049588     xpctarget.obj
 0002:00006590       __real@408f400000000000    10049590     xpctarget.obj
 0002:000065a0       _FingerStrokeAssistance_BIOMAP 100495a0     appmappingData.obj
 0002:00006c78       _FingerStrokeAssistance_LBLMAP 10049c78     appmappingData.obj
 0002:00007350       _FingerStrokeAssistance_SIDMAP 1004a350     appmappingData.obj
 0002:00007a28       _FingerStrokeAssistance_SBIO 1004aa28     appmappingData.obj
 0002:00007c70       _FingerStrokeAssistance_SLBL 1004ac70     appmappingData.obj
 0002:00007eb8       _FingerStrokeAssistance_PTIDSMAP 1004aeb8     appmappingData.obj
 0002:000082e0       _FingerStrokeAssistance_PTNAMESMAP 1004b2e0     appmappingData.obj
 0002:00008708       _FingerStrokeAssistance_SPTMAP 1004b708     appmappingData.obj
 0002:0000891c       _FingerStrokeAssistance_dtmap 1004b91c     appmappingData.obj
 0002:00008940       _appInfo                   1004b940     appmappingData.obj
 0002:000090c0       ??_C@_0ED@LKHIFFLC@Wrong?5number?5of?5input?5arguments?5@ 1004c0c0     adnipcim.obj
 0002:00009110       ??_C@_0CI@FOFDKLAN@NI?5?$CFs?3?5Can?8t?5allocate?5temporary?5@ 1004c110     adnipcim.obj
 0002:00009140       ??_C@_0CK@PIIIKEIH@NI?5M?5series?3?5Channel?5?$CFf?5out?5of?5r@ 1004c140     adnipcim.obj
 0002:00009174       ??_C@_0CF@LKNEFAOG@NI?5M?5series?3?5Timeout?5waiting?5for@ 1004c174     adnipcim.obj
 0002:000091a0       __real@417312d000000000    1004c1a0     adnipcim.obj
 0002:000091ac       ??_C@_0CC@FIFFDAB@?$CFd?5input?5args?5expected?0?5?$CFd?5passe@ 1004c1ac     encnipcim.obj
 0002:000091d4       ??_C@_0BN@JIEFLHEB@?$CFs?3?5Too?5many?5M?5series?5boards?$AA@ 1004c1d4     encnipcim.obj
 0002:000091f8       ??_C@_0DB@HFHLNKLE@Channel?5?$CFd?5exceeds?5the?5max?5DA?5ch@ 1004c1f8     danipcim.obj
 0002:00009234       ??_C@_0CL@GCJHHCMG@Output?5range?5?$CFd?5is?5not?5supported@ 1004c234     danipcim.obj
 0002:00009268       ??_C@_0M@IMCLKBPP@NI?5PCI?96220?$AA@ 1004c268     xpcionim.obj
 0002:00009278       ??_C@_0M@JFDAJALO@NI?5PCI?96221?$AA@ 1004c278     xpcionim.obj
 0002:00009288       ??_C@_0P@NGCDCNKM@NI?5PCI?96221?137?$AA@ 1004c288     xpcionim.obj
 0002:0000929c       ??_C@_0M@OIEHGEPL@NI?5PCI?96224?$AA@ 1004c29c     xpcionim.obj
 0002:000092ac       ??_C@_0M@PBFMFFLK@NI?5PCI?96225?$AA@ 1004c2ac     xpcionim.obj
 0002:000092bc       ??_C@_0M@FNOJBKLG@NI?5PCI?96229?$AA@ 1004c2bc     xpcionim.obj
 0002:000092cc       ??_C@_0M@INOJMLMI@NI?5PCI?96230?$AA@ 1004c2cc     xpcionim.obj
 0002:000092dc       ??_C@_0M@LPNPKJEK@NI?5PCI?96232?$AA@ 1004c2dc     xpcionim.obj
 0002:000092ec       ??_C@_0M@KGMEJIAL@NI?5PCI?96233?$AA@ 1004c2ec     xpcionim.obj
 0002:000092fc       ??_C@_0M@NLLDGMEO@NI?5PCI?96236?$AA@ 1004c2fc     xpcionim.obj
 0002:0000930c       ??_C@_0M@EFDAEBMA@NI?5PCI?96238?$AA@ 1004c30c     xpcionim.obj
 0002:0000931c       ??_C@_0M@FMCLHAIB@NI?5PCI?96239?$AA@ 1004c31c     xpcionim.obj
 0002:0000932c       ??_C@_0M@IJGELHHK@NI?5PCI?96250?$AA@ 1004c32c     xpcionim.obj
 0002:0000933c       ??_C@_0M@JAHPIGDL@NI?5PCI?96251?$AA@ 1004c33c     xpcionim.obj
 0002:0000934c       ??_C@_0M@ONAIHCHO@NI?5PCI?96254?$AA@ 1004c34c     xpcionim.obj
 0002:0000935c       ??_C@_0M@PEBDEDDP@NI?5PCI?96255?$AA@ 1004c35c     xpcionim.obj
 0002:0000936c       ??_C@_0M@FIKGAMDD@NI?5PCI?96259?$AA@ 1004c36c     xpcionim.obj
 0002:0000937c       ??_C@_0M@IBLMCECJ@NI?5PCI?96280?$AA@ 1004c37c     xpcionim.obj
 0002:0000938c       ??_C@_0M@JIKHBFGI@NI?5PCI?96281?$AA@ 1004c38c     xpcionim.obj
 0002:0000939c       ??_C@_0M@OFNAOBCN@NI?5PCI?96284?$AA@ 1004c39c     xpcionim.obj
 0002:000093ac       ??_C@_0M@FAHOJPGA@NI?5PCI?96289?$AA@ 1004c3ac     xpcionim.obj
 0002:000093bc       ??_C@_0CI@NFFNBHJA@?$CFs?5?$CIbus?5?$CFd?0?5slot?5?$CFd?$CJ?3?5board?5not?5@ 1004c3bc     xpcionim.obj
 0002:000093ec       ??_C@_0CD@MBDNCLAI@NI?5M?5series?3?5Unknown?5board?5type?5@ 1004c3ec     xpcionim.obj
 0002:00009418       ??_C@_0CC@DMFKNLL@VendorId?5?$DN?50x?$CFx?0?5DeviceId?5?$DN?50x?$CFx@ 1004c418     xpcruntime:xpcimports.obj
 0002:0000943c       ??_C@_0DH@OHCBLNMG@Subsystem?5Device?5ID?5?$DN?50x?$CFx?6Subsy@ 1004c43c     xpcruntime:xpcimports.obj
 0002:00009474       ??_C@_0BD@MMMMEFCM@Class?5Code?5?$DN?50x?$CFx?6?$AA@ 1004c474     xpcruntime:xpcimports.obj
 0002:00009488       ??_C@_0BE@OLDDDNHM@InterruptLine?5?$DN?5?$CFd?6?$AA@ 1004c488     xpcruntime:xpcimports.obj
 0002:0000949c       ??_C@_0BF@OLKLEKBD@bus?5?$DN?5?$CFd?0?5slot?5?$DN?5?$CFd?6?$AA@ 1004c49c     xpcruntime:xpcimports.obj
 0002:000094b4       ??_C@_0CE@DGLLGDFH@?5?5?5?5Phys?5?5?5Virtual?5?5?5Length?5IO?1M@ 1004c4b4     xpcruntime:xpcimports.obj
 0002:000094d8       ??_C@_0BI@FEOPLEMG@?$CF08x?5?$CF08x?5?$CF08x?5?5?5?5?5?5?$CFc?6?$AA@ 1004c4d8     xpcruntime:xpcimports.obj
 0002:000094f0       ??_C@_0BB@BNNCEDPC@rl32eScopeExists?$AA@ 1004c4f0     xpcruntime:xpcimports.obj
 0002:00009504       ??_C@_0BM@FJBFEGFG@rl32eScopeExists?5not?5found?6?$AA@ 1004c504     xpcruntime:xpcimports.obj
 0002:00009520       ??_C@_0O@BNNGKJEA@rl32eDefScope?$AA@ 1004c520     xpcruntime:xpcimports.obj
 0002:00009530       ??_C@_0BJ@CDNOENKA@rl32eDefScope?5not?5found?6?$AA@ 1004c530     xpcruntime:xpcimports.obj
 0002:0000954c       ??_C@_0P@CKNKILDP@rl32eAddSignal?$AA@ 1004c54c     xpcruntime:xpcimports.obj
 0002:0000955c       ??_C@_0BK@GMJAJBAI@rl32eAddSignal?5not?5found?6?$AA@ 1004c55c     xpcruntime:xpcimports.obj
 0002:00009578       ??_C@_0BB@LDMIHGCE@rl32eGetSignalNo?$AA@ 1004c578     xpcruntime:xpcimports.obj
 0002:0000958c       ??_C@_0BM@LGAMBAID@rl32eGetSignalNo?5not?5found?6?$AA@ 1004c58c     xpcruntime:xpcimports.obj
 0002:000095a8       ??_C@_0O@CFDGALBP@rl32eSetScope?$AA@ 1004c5a8     xpcruntime:xpcimports.obj
 0002:000095b8       ??_C@_0BJ@JCLHHIN@rl32eSetScope?5not?5found?6?$AA@ 1004c5b8     xpcruntime:xpcimports.obj
 0002:000095d4       ??_C@_0P@IKMCBMHH@xpceFSScopeSet?$AA@ 1004c5d4     xpcruntime:xpcimports.obj
 0002:000095e4       ??_C@_0BK@JODJPNNH@xpceFSScopeSet?5not?5found?6?$AA@ 1004c5e4     xpcruntime:xpcimports.obj
 0002:00009600       ??_C@_0BE@DLACEEJM@rl32eSetTargetScope?$AA@ 1004c600     xpcruntime:xpcimports.obj
 0002:00009614       ??_C@_0BP@JCHFMKPJ@rl32eSetTargetScope?5not?5found?6?$AA@ 1004c614     xpcruntime:xpcimports.obj
 0002:00009634       ??_C@_0BJ@LIDLNDHC@rl32eSetTargetScopeSigFt?$AA@ 1004c634     xpcruntime:xpcimports.obj
 0002:00009650       ??_C@_0CE@JLGHCFHI@rl32eSetTargetScopeSigFt?5not?5fou@ 1004c650     xpcruntime:xpcimports.obj
 0002:00009674       ??_C@_0BI@JAPOIDNG@rl32eRestartAcquisition?$AA@ 1004c674     xpcruntime:xpcimports.obj
 0002:0000968c       ??_C@_0CD@LLBEFFBO@rl32eRestartAcquisition?5not?5foun@ 1004c68c     xpcruntime:xpcimports.obj
 0002:000096b0       ??_C@_0P@IEIIADJB@xpceScopeAcqOK?$AA@ 1004c6b0     xpcruntime:xpcimports.obj
 0002:000096c0       ??_C@_0BK@NJCKNFPN@xpceScopeAcqOK?5not?5found?6?$AA@ 1004c6c0     xpcruntime:xpcimports.obj
 0002:000096dc       ??_C@_0BA@IJINKAHF@xpceRegisterISR?$AA@ 1004c6dc     xpcruntime:xpcimports.obj
 0002:000096ec       ??_C@_0BL@NNDLOEJE@xpceRegisterISR?5not?5found?6?$AA@ 1004c6ec     xpcruntime:xpcimports.obj
 0002:00009708       ??_C@_0BC@NLBADGKF@xpceDeRegisterISR?$AA@ 1004c708     xpcruntime:xpcimports.obj
 0002:0000971c       ??_C@_0BN@DCAIKFFD@xpceDeRegisterISR?5not?5found?6?$AA@ 1004c71c     xpcruntime:xpcimports.obj
 0002:0000973c       ??_C@_0P@CPGPNKEB@xpceFTReadTime?$AA@ 1004c73c     xpcruntime:xpcimports.obj
 0002:0000974c       ??_C@_0BK@NMABIODN@xpceFTReadTime?5not?5found?6?$AA@ 1004c74c     xpcruntime:xpcimports.obj
 0002:00009768       ??_C@_09PHNHCHFH@xpceFTAdd?$AA@ 1004c768     xpcruntime:xpcimports.obj
 0002:00009774       ??_C@_0BF@FJLEIILA@xpceFTAdd?5not?5found?6?$AA@ 1004c774     xpcruntime:xpcimports.obj
 0002:0000978c       ??_C@_0P@KEODBLHO@xpceFTSubtract?$AA@ 1004c78c     xpcruntime:xpcimports.obj
 0002:0000979c       ??_C@_0BK@HONODOKP@xpceFTSubtract?5not?5found?6?$AA@ 1004c79c     xpcruntime:xpcimports.obj
 0002:000097b8       ??_C@_07JPMEPILD@xpcInpB?$AA@ 1004c7b8     xpcruntime:xpcimports.obj
 0002:000097c0       ??_C@_0BD@PGABEJOL@xpcInpB?5not?5found?6?$AA@ 1004c7c0     xpcruntime:xpcimports.obj
 0002:000097d4       ??_C@_07KIHBBOKH@xpcInpW?$AA@ 1004c7d4     xpcruntime:xpcimports.obj
 0002:000097dc       ??_C@_0BD@FPCJFMCC@xpcInpW?5not?5found?6?$AA@ 1004c7dc     xpcruntime:xpcimports.obj
 0002:000097f0       ??_C@_08KDIAJBOP@xpcInpDW?$AA@ 1004c7f0     xpcruntime:xpcimports.obj
 0002:000097fc       ??_C@_0BE@PIELDNIL@xpcInpDW?5not?5found?6?$AA@ 1004c7fc     xpcruntime:xpcimports.obj
 0002:00009810       ??_C@_08PJFMOIGO@xpcOutpB?$AA@ 1004c810     xpcruntime:xpcimports.obj
 0002:0000981c       ??_C@_0BE@HCKNCEKF@xpcOutpB?5not?5found?6?$AA@ 1004c81c     xpcruntime:xpcimports.obj
 0002:00009830       ??_C@_08MOOJAOHK@xpcOutpW?$AA@ 1004c830     xpcruntime:xpcimports.obj
 0002:0000983c       ??_C@_0BE@NLIFDBGM@xpcOutpW?5not?5found?6?$AA@ 1004c83c     xpcruntime:xpcimports.obj
 0002:00009850       ??_C@_09FLIEKHJG@xpcOutpDW?$AA@ 1004c850     xpcruntime:xpcimports.obj
 0002:0000985c       ??_C@_0BF@GJKLPNHB@xpcOutpDW?5not?5found?6?$AA@ 1004c85c     xpcruntime:xpcimports.obj
 0002:00009874       ??_C@_0BH@EHOLELHH@xpcReserveMemoryRegion?$AA@ 1004c874     xpcruntime:xpcimports.obj
 0002:0000988c       ??_C@_0CC@KAAAGPI@xpcReserveMemoryRegion?5not?5found@ 1004c88c     xpcruntime:xpcimports.obj
 0002:000098b0       ??_C@_0BA@JGPMHGAF@rl32eShowPCIDev?$AA@ 1004c8b0     xpcruntime:xpcimports.obj
 0002:000098c0       ??_C@_0BL@DDFFLNHI@rl32eShowPCIDev?5not?5found?6?$AA@ 1004c8c0     xpcruntime:xpcimports.obj
 0002:000098dc       ??_C@_0BB@KBCOJPFB@rl32eShowPCIInfo?$AA@ 1004c8dc     xpcruntime:xpcimports.obj
 0002:000098f0       ??_C@_0BM@IFDMAGLO@rl32eShowPCIInfo?5not?5found?6?$AA@ 1004c8f0     xpcruntime:xpcimports.obj
 0002:0000990c       ??_C@_0BA@BGPAADB@rl32eGetPCIInfo?$AA@ 1004c90c     xpcruntime:xpcimports.obj
 0002:0000991c       ??_C@_0BL@IGOMLDCK@rl32eGetPCIInfo?5not?5found?6?$AA@ 1004c91c     xpcruntime:xpcimports.obj
 0002:00009938       ??_C@_0BG@NJPFKFDP@rl32eGetPCIInfoAtSlot?$AA@ 1004c938     xpcruntime:xpcimports.obj
 0002:00009950       ??_C@_0CB@BBKIPMLA@rl32eGetPCIInfoAtSlot?5not?5found?6@ 1004c950     xpcruntime:xpcimports.obj
 0002:00009974       ??_C@_0BH@OKBOPNFG@xpceAssignPCIInterrupt?$AA@ 1004c974     xpcruntime:xpcimports.obj
 0002:0000998c       ??_C@_0CC@CDNDNJBJ@xpceAssignPCIInterrupt?5not?5found@ 1004c98c     xpcruntime:xpcimports.obj
 0002:000099b0       ??_C@_0BB@FCHHFAAH@rl32eInitCOMPort?$AA@ 1004c9b0     xpcruntime:xpcimports.obj
 0002:000099c4       ??_C@_0BM@DDJGKAHB@rl32eInitCOMPort?5not?5found?6?$AA@ 1004c9c4     xpcruntime:xpcimports.obj
 0002:000099e0       ??_C@_0BC@CHEEFCP@rl32eCloseCOMPort?$AA@ 1004c9e0     xpcruntime:xpcimports.obj
 0002:000099f4       ??_C@_0BN@KCOFELEM@rl32eCloseCOMPort?5not?5found?6?$AA@ 1004c9f4     xpcruntime:xpcimports.obj
 0002:00009a14       ??_C@_0O@LLJGKFOG@rl32eSendChar?$AA@ 1004ca14     xpcruntime:xpcimports.obj
 0002:00009a24       ??_C@_0BJ@JCJKDACJ@rl32eSendChar?5not?5found?6?$AA@ 1004ca24     xpcruntime:xpcimports.obj
 0002:00009a40       ??_C@_0BB@OMFKCOEK@rl32eReceiveChar?$AA@ 1004ca40     xpcruntime:xpcimports.obj
 0002:00009a54       ??_C@_0BM@HGAIOAND@rl32eReceiveChar?5not?5found?6?$AA@ 1004ca54     xpcruntime:xpcimports.obj
 0002:00009a70       ??_C@_0BI@PKEJFHMJ@rl32eReceiveBufferCount?$AA@ 1004ca70     xpcruntime:xpcimports.obj
 0002:00009a88       ??_C@_0CD@LNMOFLAH@rl32eReceiveBufferCount?5not?5foun@ 1004ca88     xpcruntime:xpcimports.obj
 0002:00009aac       ??_C@_0BA@CFIJOJPK@rl32eLineStatus?$AA@ 1004caac     xpcruntime:xpcimports.obj
 0002:00009abc       ??_C@_0BL@PLIDKKGI@rl32eLineStatus?5not?5found?6?$AA@ 1004cabc     xpcruntime:xpcimports.obj
 0002:00009ad8       ??_C@_0P@MDMKIJF@rl32eSendBlock?$AA@ 1004cad8     xpcruntime:xpcimports.obj
 0002:00009ae8       ??_C@_0BK@KNBNFIKH@rl32eSendBlock?5not?5found?6?$AA@ 1004cae8     xpcruntime:xpcimports.obj
 0002:00009b04       ??_C@_0BD@PCKOKHO@xpceGetSignalValue?$AA@ 1004cb04     xpcruntime:xpcimports.obj
 0002:00009b18       ??_C@_0BO@GCBDJHMB@xpceGetSignalValue?5not?5found?6?$AA@ 1004cb18     xpcruntime:xpcimports.obj
 0002:00009b38       ??_C@_0BB@BJONJAGA@xpceSetParameter?$AA@ 1004cb38     xpcruntime:xpcimports.obj
 0002:00009b4c       ??_C@_0BM@BJIKDLHA@xpceSetParameter?5not?5found?6?$AA@ 1004cb4c     xpcruntime:xpcimports.obj
 0002:00009b68       ??_C@_0BB@GNFDFMCM@xpceGetParameter?$AA@ 1004cb68     xpcruntime:xpcimports.obj
 0002:00009b7c       ??_C@_0BM@POHNKBC@xpceGetParameter?5not?5found?6?$AA@ 1004cb7c     xpcruntime:xpcimports.obj
 0002:00009b98       ??_C@_0BB@CEIJLFCD@xpceGetParamDims?$AA@ 1004cb98     xpcruntime:xpcimports.obj
 0002:00009bac       ??_C@_0BM@OABDBKAO@xpceGetParamDims?5not?5found?6?$AA@ 1004cbac     xpcruntime:xpcimports.obj
 0002:00009bc8       ??_C@_0L@OCBLLHBM@xpceGetTET?$AA@ 1004cbc8     xpcruntime:xpcimports.obj
 0002:00009bd4       ??_C@_0BG@HNOFBOB@xpceGetTET?5not?5found?6?$AA@ 1004cbd4     xpcruntime:xpcimports.obj
 0002:00009bec       ??_C@_0BA@FHMIOKFL@xpceUDPOpenSend?$AA@ 1004cbec     xpcruntime:xpcimports.obj
 0002:00009bfc       ??_C@_0BL@HNLPFEK@xpceUDPOpenSend?5not?5found?6?$AA@ 1004cbfc     xpcruntime:xpcimports.obj
 0002:00009c18       ??_C@_0BD@BCELJJJL@xpceUDPOpenReceive?$AA@ 1004cc18     xpcruntime:xpcimports.obj
 0002:00009c2c       ??_C@_0BO@IFKJBHKC@xpceUDPOpenReceive?5not?5found?6?$AA@ 1004cc2c     xpcruntime:xpcimports.obj
 0002:00009c4c       ??_C@_0M@OFPFLJGN@xpceUDPSend?$AA@ 1004cc4c     xpcruntime:xpcimports.obj
 0002:00009c58       ??_C@_0BH@NOIKLPAB@xpceUDPSend?5not?5found?6?$AA@ 1004cc58     xpcruntime:xpcimports.obj
 0002:00009c70       ??_C@_0P@PLFDECIN@xpceUDPReceive?$AA@ 1004cc70     xpcruntime:xpcimports.obj
 0002:00009c80       ??_C@_0BK@OPJMLDLH@xpceUDPReceive?5not?5found?6?$AA@ 1004cc80     xpcruntime:xpcimports.obj
 0002:00009c9c       ??_C@_0N@IEHPMFME@xpceUDPClose?$AA@ 1004cc9c     xpcruntime:xpcimports.obj
 0002:00009cac       ??_C@_0BI@FHPFHECO@xpceUDPClose?5not?5found?6?$AA@ 1004ccac     xpcruntime:xpcimports.obj
 0002:00009cc4       ??_C@_0P@OKGNGAGH@xpcIsModelInit?$AA@ 1004ccc4     xpcruntime:xpcimports.obj
 0002:00009cd4       ??_C@_0BK@DHEMLBIM@xpcIsModelInit?5not?5found?6?$AA@ 1004ccd4     xpcruntime:xpcimports.obj
 0002:00009cf0       ??_C@_0BH@KJJLCAOJ@xpcAllocPhysicalMemory?$AA@ 1004ccf0     xpcruntime:xpcimports.obj
 0002:00009d08       ??_C@_0CC@MOJPNHKL@xpcAllocPhysicalMemory?5not?5found@ 1004cd08     xpcruntime:xpcimports.obj
 0002:00009d2c       ??_C@_0BG@CBNPGAEL@xpcFreePhysicalMemory?$AA@ 1004cd2c     xpcruntime:xpcimports.obj
 0002:00009d44       ??_C@_0CB@PKJEBPOG@xpcFreePhysicalMemory?5not?5found?6@ 1004cd44     xpcruntime:xpcimports.obj
 0002:00009d68       ??_C@_0BC@JGKNLICL@xpcGetElapsedTime?$AA@ 1004cd68     xpcruntime:xpcimports.obj
 0002:00009d7c       ??_C@_0BN@OEOAHCIO@xpcGetElapsedTime?5not?5found?6?$AA@ 1004cd7c     xpcruntime:xpcimports.obj
 0002:00009d9c       ??_C@_0M@ICBLMODA@xpcBusyWait?$AA@ 1004cd9c     xpcruntime:xpcimports.obj
 0002:00009da8       ??_C@_0BH@FBOPECBI@xpcBusyWait?5not?5found?6?$AA@ 1004cda8     xpcruntime:xpcimports.obj
 0002:00009dc0       ??_C@_0N@LKKJEKKA@TBCreateSpin?$AA@ 1004cdc0     xpcruntime:xpcimports.obj
 0002:00009dd0       ??_C@_0BI@FHKMLKOE@TBCreateSpin?5not?5found?6?$AA@ 1004cdd0     xpcruntime:xpcimports.obj
 0002:00009de8       ??_C@_0N@HOAJHNBD@TBDeleteSpin?$AA@ 1004cde8     xpcruntime:xpcimports.obj
 0002:00009df8       ??_C@_0BI@BKCPAAG@TBDeleteSpin?5not?5found?6?$AA@ 1004cdf8     xpcruntime:xpcimports.obj
 0002:00009e10       ??_C@_0P@DAHDDBJG@TBTakeSpinFast?$AA@ 1004ce10     xpcruntime:xpcimports.obj
 0002:00009e20       ??_C@_0BK@NKAIBHGB@TBTakeSpinFast?5not?5found?6?$AA@ 1004ce20     xpcruntime:xpcimports.obj
 0002:00009e3c       ??_C@_0P@FKNAAELA@TBGiveSpinFast?$AA@ 1004ce3c     xpcruntime:xpcimports.obj
 0002:00009e4c       ??_C@_0BK@KGPJBJND@TBGiveSpinFast?5not?5found?6?$AA@ 1004ce4c     xpcruntime:xpcimports.obj
 0002:00009e68       ??_C@_0BE@IIGBFDHK@xpceCreateSemaphore?$AA@ 1004ce68     xpcruntime:xpcimports.obj
 0002:00009e7c       ??_C@_0BP@KFBAFFKJ@xpceCreateSemaphore?5not?5found?6?$AA@ 1004ce7c     xpcruntime:xpcimports.obj
 0002:00009e9c       ??_C@_0BC@IFNIONKJ@xpceWaitSemaphore?$AA@ 1004ce9c     xpcruntime:xpcimports.obj
 0002:00009eb0       ??_C@_0BN@NMFAADIO@xpceWaitSemaphore?5not?5found?6?$AA@ 1004ceb0     xpcruntime:xpcimports.obj
 0002:00009ed0       ??_C@_0BE@NNDIOBKE@xpceSignalSemaphore?$AA@ 1004ced0     xpcruntime:xpcimports.obj
 0002:00009ee4       ??_C@_0BP@LBANMHJP@xpceSignalSemaphore?5not?5found?6?$AA@ 1004cee4     xpcruntime:xpcimports.obj
 0002:00009f04       ??_C@_0BE@MEBEKOIM@xpceDeleteSemaphore?$AA@ 1004cf04     xpcruntime:xpcimports.obj
 0002:00009f18       ??_C@_0BP@OFNCKOJH@xpceDeleteSemaphore?5not?5found?6?$AA@ 1004cf18     xpcruntime:xpcimports.obj
 0002:00009f38       ??_C@_0BD@MFNDMBOF@FindUsbVideoDevice?$AA@ 1004cf38     xpcruntime:xpcimports.obj
 0002:00009f4c       ??_C@_0BO@POKLDHMI@FindUsbVideoDevice?5not?5found?6?$AA@ 1004cf4c     xpcruntime:xpcimports.obj
 0002:00009f6c       ??_C@_0BA@PLPAPNAB@GetVideoConfigs?$AA@ 1004cf6c     xpcruntime:xpcimports.obj
 0002:00009f7c       ??_C@_0BL@DALDHKHC@GetVideoConfigs?5not?5found?6?$AA@ 1004cf7c     xpcruntime:xpcimports.obj
 0002:00009f98       ??_C@_0L@GBAEMHMH@StartVideo?$AA@ 1004cf98     xpcruntime:xpcimports.obj
 0002:00009fa4       ??_C@_0BG@HDCELEBP@StartVideo?5not?5found?6?$AA@ 1004cfa4     xpcruntime:xpcimports.obj
 0002:00009fbc       ??_C@_0BA@FDNPOCLN@ReadFrameBuffer?$AA@ 1004cfbc     xpcruntime:xpcimports.obj
 0002:00009fcc       ??_C@_0BL@JHGHPNBI@ReadFrameBuffer?5not?5found?6?$AA@ 1004cfcc     xpcruntime:xpcimports.obj
 0002:00009fe8       ??_C@_09FAHCLKAG@StopVideo?$AA@ 1004cfe8     xpcruntime:xpcimports.obj
 0002:00009ff4       ??_C@_0BF@NKGKKADL@StopVideo?5not?5found?6?$AA@ 1004cff4     xpcruntime:xpcimports.obj
 0002:0000a00c       ??_C@_0O@MCPKDLLL@ConvertUImage?$AA@ 1004d00c     xpcruntime:xpcimports.obj
 0002:0000a01c       ??_C@_0BJ@PHJKOAFL@ConvertUImage?5not?5found?6?$AA@ 1004d01c     xpcruntime:xpcimports.obj
 0002:0000a038       ??_C@_0BD@NKCBPBJJ@CreateVideoDisplay?$AA@ 1004d038     xpcruntime:xpcimports.obj
 0002:0000a04c       ??_C@_0BO@HPPLLNFP@CreateVideoDisplay?5not?5found?6?$AA@ 1004d04c     xpcruntime:xpcimports.obj
 0002:0000a06c       ??_C@_0BE@KJCKGPHA@DestroyVideoDisplay?$AA@ 1004d06c     xpcruntime:xpcimports.obj
 0002:0000a080       ??_C@_0BP@FMGLJAIJ@DestroyVideoDisplay?5not?5found?6?$AA@ 1004d080     xpcruntime:xpcimports.obj
 0002:0000a0a0       ??_C@_0BC@HCMIMIDN@StartVideoDisplay?$AA@ 1004d0a0     xpcruntime:xpcimports.obj
 0002:0000a0b4       ??_C@_0BN@EFIEBGOO@StartVideoDisplay?5not?5found?6?$AA@ 1004d0b4     xpcruntime:xpcimports.obj
 0002:0000a0d4       ??_C@_0BB@JBBLMILG@StopVideoDisplay?$AA@ 1004d0d4     xpcruntime:xpcimports.obj
 0002:0000a0e8       ??_C@_0BM@DBJBPLEL@StopVideoDisplay?5not?5found?6?$AA@ 1004d0e8     xpcruntime:xpcimports.obj
 0002:0000a104       ??_C@_0M@MFJEGMHC@StreamVideo?$AA@ 1004d104     xpcruntime:xpcimports.obj
 0002:0000a110       ??_C@_0BH@OINCDMLA@StreamVideo?5not?5found?6?$AA@ 1004d110     xpcruntime:xpcimports.obj
 0002:0000a128       ??_C@_0N@IGGLCIGE@xpceaddEvent?$AA@ 1004d128     xpcruntime:xpcimports.obj
 0002:0000a138       ??_C@_0BI@NHJNFMKH@xpceaddEvent?5not?5found?6?$AA@ 1004d138     xpcruntime:xpcimports.obj
 0002:0000a150       ??_C@_0BB@LCMHHHFN@getMemoryService?$AA@ 1004d150     xpcruntime:xpcimports.obj
 0002:0000a164       ??_C@_0BM@MPLCNIIE@getMemoryService?5not?5found?6?$AA@ 1004d164     xpcruntime:xpcimports.obj
 0002:0000a180       ??_C@_0P@KIKONDKK@getCommService?$AA@ 1004d180     xpcruntime:xpcimports.obj
 0002:0000a190       ??_C@_0BK@NCECBKNM@getCommService?5not?5found?6?$AA@ 1004d190     xpcruntime:xpcimports.obj
 0002:0000a1ac       ??_C@_0P@GDLHFECE@getStatusFlags?$AA@ 1004d1ac     xpcruntime:xpcimports.obj
 0002:0000a1bc       ??_C@_0BK@NEKDLJHG@getStatusFlags?5not?5found?6?$AA@ 1004d1bc     xpcruntime:xpcimports.obj
 0002:0000a1d8       ??_C@_0BL@CDFCLKOL@startToAsyncQueueTgtAppSvc?$AA@ 1004d1d8     xpcruntime:xpcimports.obj
 0002:0000a1f4       ??_C@_0CG@JGOFFKEL@startToAsyncQueueTgtAppSvc?5not?5f@ 1004d1f4     xpcruntime:xpcimports.obj
 0002:0000a21c       ??_C@_0BP@IJNGPPPE@terminateToAsyncQueueTgtAppSvc?$AA@ 1004d21c     xpcruntime:xpcimports.obj
 0002:0000a23c       ??_C@_0CK@NDEMAMKF@terminateToAsyncQueueTgtAppSvc?5n@ 1004d23c     xpcruntime:xpcimports.obj
 0002:0000a268       ??_C@_0BK@IDACEHAO@sendToAsyncQueueTgtAppSvc?$AA@ 1004d268     xpcruntime:xpcimports.obj
 0002:0000a284       ??_C@_0CF@PNCKPEHN@sendToAsyncQueueTgtAppSvc?5not?5fo@ 1004d284     xpcruntime:xpcimports.obj
 0002:0000a2ac       ??_C@_0BN@HJOHIFOM@xpceGetIntTimerGranularityNS?$AA@ 1004d2ac     xpcruntime:xpcimports.obj
 0002:0000a2cc       ??_C@_0CI@OADDPMKB@xpceGetIntTimerGranularityNS?5not@ 1004d2cc     xpcruntime:xpcimports.obj
 0002:0000a2f4       ??_C@_0BG@CCHICKPN@slrteSetStepSizeDelta?$AA@ 1004d2f4     xpcruntime:xpcimports.obj
 0002:0000a30c       ??_C@_0CB@MKHINEIJ@slrteSetStepSizeDelta?5not?5found?6@ 1004d30c     xpcruntime:xpcimports.obj
 0002:0000a330       ??_C@_0BI@CLNBLDKJ@slrteGetCurrentStepSize?$AA@ 1004d330     xpcruntime:xpcimports.obj
 0002:0000a348       ??_C@_0CD@GIOJPGJA@slrteGetCurrentStepSize?5not?5foun@ 1004d348     xpcruntime:xpcimports.obj
 0002:0000a36c       ??_C@_0BE@FCLCBOC@registerPTPTimeRead?$AA@ 1004d36c     xpcruntime:xpcimports.obj
 0002:0000a380       ??_C@_0BP@LHPKAJIP@registerPTPTimeRead?5not?5found?6?$AA@ 1004d380     xpcruntime:xpcimports.obj
 0002:0000a3a0       ??_C@_0BG@KIGCDDJI@unRegisterPTPTimeRead?$AA@ 1004d3a0     xpcruntime:xpcimports.obj
 0002:0000a3b8       ??_C@_0CB@MLFFBFCM@unRegisterPTPTimeRead?5not?5found?6@ 1004d3b8     xpcruntime:xpcimports.obj
 0002:0000a3dc       ??_C@_0BB@IPMDDBHK@slTestInitialize?$AA@ 1004d3dc     xpcruntime:xpcimports.obj
 0002:0000a3f0       ??_C@_0BM@LAJFCCJH@slTestInitialize?5not?5found?6?$AA@ 1004d3f0     xpcruntime:xpcimports.obj
 0002:0000a40c       ??_C@_0BF@OOMPMEBC@slTestLogAssessments?$AA@ 1004d40c     xpcruntime:xpcimports.obj
 0002:0000a424       ??_C@_0CA@FGJCEBAG@slTestLogAssessments?5not?5found?6?$AA@ 1004d424     xpcruntime:xpcimports.obj
 0002:0000a444       ??_C@_0BB@HJHKONHO@slTestEvalOnFail?$AA@ 1004d444     xpcruntime:xpcimports.obj
 0002:0000a458       ??_C@_0BM@JIKCFFNJ@slTestEvalOnFail?5not?5found?6?$AA@ 1004d458     xpcruntime:xpcimports.obj
 0002:0000a474       ??_C@_0BA@LBHLABFP@slTestTerminate?$AA@ 1004d474     xpcruntime:xpcimports.obj
 0002:0000a484       ??_C@_0BL@EMFGKAPA@slTestTerminate?5not?5found?6?$AA@ 1004d484     xpcruntime:xpcimports.obj
 0002:0000a4a0       ??_C@_0BE@JPNPBBEO@slTestRegAssessment?$AA@ 1004d4a0     xpcruntime:xpcimports.obj
 0002:0000a4b4       ??_C@_0BP@FBDEJJJH@slTestRegAssessment?5not?5found?6?$AA@ 1004d4b4     xpcruntime:xpcimports.obj
 0002:0000de48       __FPinit                   10050e48     LIBCMT:fpinit.obj
 0002:0000de54       ??_C@_1BI@BGOHAHKC@?$AAm?$AAs?$AAc?$AAo?$AAr?$AAe?$AAe?$AA?4?$AAd?$AAl?$AAl?$AA?$AA@ 10050e54     LIBCMT:crt0dat.obj
 0002:0000de6c       ??_C@_0P@MIGLKIOC@CorExitProcess?$AA@ 10050e6c     LIBCMT:crt0dat.obj
 0002:0000df04       ??_C@_17LGKOMLJ@?$AA?4?$AA?4?$AA?4?$AA?$AA@ 10050f04     LIBCMT:wassert.obj
 0002:0000df0c       ??_C@_13LBAGMAIH@?$AA?6?$AA?$AA@ 10050f0c     LIBCMT:wassert.obj
 0002:0000df10       ??_C@_15IABLJNFO@?$AA?6?$AA?6?$AA?$AA@ 10050f10     LIBCMT:wassert.obj
 0002:0000df18       ??_C@_1CE@OJBNHDMO@?$AAA?$AAs?$AAs?$AAe?$AAr?$AAt?$AAi?$AAo?$AAn?$AA?5?$AAf?$AAa?$AAi?$AAl?$AAe?$AAd?$AA?$CB?$AA?$AA@ 10050f18     LIBCMT:wassert.obj
 0002:0000df3c       ??_C@_1BE@PHKBBGE@?$AAP?$AAr?$AAo?$AAg?$AAr?$AAa?$AAm?$AA?3?$AA?5?$AA?$AA@ 10050f3c     LIBCMT:wassert.obj
 0002:0000df50       ??_C@_1CO@EAEJAADC@?$AA?$DM?$AAp?$AAr?$AAo?$AAg?$AAr?$AAa?$AAm?$AA?5?$AAn?$AAa?$AAm?$AAe?$AA?5?$AAu?$AAn?$AAk?$AAn?$AAo?$AAw?$AAn?$AA?$DO?$AA?$AA@ 10050f50     LIBCMT:wassert.obj
 0002:0000df80       ??_C@_1O@HEMHKNDC@?$AAF?$AAi?$AAl?$AAe?$AA?3?$AA?5?$AA?$AA@ 10050f80     LIBCMT:wassert.obj
 0002:0000df90       ??_C@_1O@KCAFKHJE@?$AAL?$AAi?$AAn?$AAe?$AA?3?$AA?5?$AA?$AA@ 10050f90     LIBCMT:wassert.obj
 0002:0000dfa0       ??_C@_1BK@PEDCIPMA@?$AAE?$AAx?$AAp?$AAr?$AAe?$AAs?$AAs?$AAi?$AAo?$AAn?$AA?3?$AA?5?$AA?$AA@ 10050fa0     LIBCMT:wassert.obj
 0002:0000dfc0       ??_C@_1OA@EGMLFBHJ@?$AAF?$AAo?$AAr?$AA?5?$AAi?$AAn?$AAf?$AAo?$AAr?$AAm?$AAa?$AAt?$AAi?$AAo?$AAn?$AA?5?$AAo?$AAn?$AA?5?$AAh?$AAo?$AAw?$AA?5?$AAy?$AAo?$AAu?$AAr?$AA?5?$AAp?$AAr?$AAo?$AAg@ 10050fc0     LIBCMT:wassert.obj
 0002:0000e0a0       ??_C@_1HK@POCJMFGK@?$AA?$CI?$AAP?$AAr?$AAe?$AAs?$AAs?$AA?5?$AAR?$AAe?$AAt?$AAr?$AAy?$AA?5?$AAt?$AAo?$AA?5?$AAd?$AAe?$AAb?$AAu?$AAg?$AA?5?$AAt?$AAh?$AAe?$AA?5?$AAa?$AAp?$AAp?$AAl?$AAi?$AAc@ 100510a0     LIBCMT:wassert.obj
 0002:0000e120       ??_C@_1EK@MBDPDCGA@?$AAM?$AAi?$AAc?$AAr?$AAo?$AAs?$AAo?$AAf?$AAt?$AA?5?$AAV?$AAi?$AAs?$AAu?$AAa?$AAl?$AA?5?$AAC?$AA?$CL?$AA?$CL?$AA?5?$AAR?$AAu?$AAn?$AAt?$AAi?$AAm?$AAe?$AA?5?$AAL?$AAi?$AAb@ 10051120     LIBCMT:wassert.obj
 0002:0000e16c       __pDefaultRawDllMain       1005116c     LIBCMT:dllcrt0.obj
 0002:0000e16c       __pRawDllMain              1005116c     LIBCMT:dllcrt0.obj
 0002:0000e170       ?ProcessDetach@NativeDll@<CrtImplementationDetails>@@0IB 10051170     LIBCMT:handler.obj
 0002:0000e174       ?ProcessAttach@NativeDll@<CrtImplementationDetails>@@0IB 10051174     LIBCMT:handler.obj
 0002:0000e178       ?ThreadAttach@NativeDll@<CrtImplementationDetails>@@0IB 10051178     LIBCMT:handler.obj
 0002:0000e17c       ?ThreadDetach@NativeDll@<CrtImplementationDetails>@@0IB 1005117c     LIBCMT:handler.obj
 0002:0000e180       ?ProcessVerifier@NativeDll@<CrtImplementationDetails>@@0IB 10051180     LIBCMT:handler.obj
 0002:0000e240       ??_C@_1FK@PGACCAFB@?$AAR?$AA6?$AA0?$AA0?$AA2?$AA?$AN?$AA?6?$AA?9?$AA?5?$AAf?$AAl?$AAo?$AAa?$AAt?$AAi?$AAn?$AAg?$AA?5?$AAp?$AAo?$AAi?$AAn?$AAt?$AA?5?$AAs?$AAu?$AAp?$AAp?$AAo?$AAr?$AAt?$AA?5@ 10051240     LIBCMT:crt0msg.obj
 0002:0000e2a0       ??_C@_1FE@LLNEDJMD@?$AAR?$AA6?$AA0?$AA0?$AA8?$AA?$AN?$AA?6?$AA?9?$AA?5?$AAn?$AAo?$AAt?$AA?5?$AAe?$AAn?$AAo?$AAu?$AAg?$AAh?$AA?5?$AAs?$AAp?$AAa?$AAc?$AAe?$AA?5?$AAf?$AAo?$AAr?$AA?5?$AAa?$AAr@ 100512a0     LIBCMT:crt0msg.obj
 0002:0000e2f8       ??_C@_1FI@HONFMGBI@?$AAR?$AA6?$AA0?$AA0?$AA9?$AA?$AN?$AA?6?$AA?9?$AA?5?$AAn?$AAo?$AAt?$AA?5?$AAe?$AAn?$AAo?$AAu?$AAg?$AAh?$AA?5?$AAs?$AAp?$AAa?$AAc?$AAe?$AA?5?$AAf?$AAo?$AAr?$AA?5?$AAe?$AAn@ 100512f8     LIBCMT:crt0msg.obj
 0002:0000e350       ??_C@_1EG@BEHAGFJD@?$AAR?$AA6?$AA0?$AA1?$AA0?$AA?$AN?$AA?6?$AA?9?$AA?5?$AAa?$AAb?$AAo?$AAr?$AAt?$AA?$CI?$AA?$CJ?$AA?5?$AAh?$AAa?$AAs?$AA?5?$AAb?$AAe?$AAe?$AAn?$AA?5?$AAc?$AAa?$AAl?$AAl?$AAe?$AAd@ 10051350     LIBCMT:crt0msg.obj
 0002:0000e398       ??_C@_1FI@LOGNIKDM@?$AAR?$AA6?$AA0?$AA1?$AA6?$AA?$AN?$AA?6?$AA?9?$AA?5?$AAn?$AAo?$AAt?$AA?5?$AAe?$AAn?$AAo?$AAu?$AAg?$AAh?$AA?5?$AAs?$AAp?$AAa?$AAc?$AAe?$AA?5?$AAf?$AAo?$AAr?$AA?5?$AAt?$AAh@ 10051398     LIBCMT:crt0msg.obj
 0002:0000e3f0       ??_C@_1FK@BEOGODMC@?$AAR?$AA6?$AA0?$AA1?$AA7?$AA?$AN?$AA?6?$AA?9?$AA?5?$AAu?$AAn?$AAe?$AAx?$AAp?$AAe?$AAc?$AAt?$AAe?$AAd?$AA?5?$AAm?$AAu?$AAl?$AAt?$AAi?$AAt?$AAh?$AAr?$AAe?$AAa?$AAd?$AA?5@ 100513f0     LIBCMT:crt0msg.obj
 0002:0000e450       ??_C@_1EC@JIBHAOPH@?$AAR?$AA6?$AA0?$AA1?$AA8?$AA?$AN?$AA?6?$AA?9?$AA?5?$AAu?$AAn?$AAe?$AAx?$AAp?$AAe?$AAc?$AAt?$AAe?$AAd?$AA?5?$AAh?$AAe?$AAa?$AAp?$AA?5?$AAe?$AAr?$AAr?$AAo?$AAr?$AA?$AN?$AA?6@ 10051450     LIBCMT:crt0msg.obj
 0002:0000e498       ??_C@_1FC@ECHBIFBC@?$AAR?$AA6?$AA0?$AA1?$AA9?$AA?$AN?$AA?6?$AA?9?$AA?5?$AAu?$AAn?$AAa?$AAb?$AAl?$AAe?$AA?5?$AAt?$AAo?$AA?5?$AAo?$AAp?$AAe?$AAn?$AA?5?$AAc?$AAo?$AAn?$AAs?$AAo?$AAl?$AAe?$AA?5@ 10051498     LIBCMT:crt0msg.obj
 0002:0000e4f0       ??_C@_1GK@FHCKBEFA@?$AAR?$AA6?$AA0?$AA2?$AA4?$AA?$AN?$AA?6?$AA?9?$AA?5?$AAn?$AAo?$AAt?$AA?5?$AAe?$AAn?$AAo?$AAu?$AAg?$AAh?$AA?5?$AAs?$AAp?$AAa?$AAc?$AAe?$AA?5?$AAf?$AAo?$AAr?$AA?5?$AA_?$AAo@ 100514f0     LIBCMT:crt0msg.obj
 0002:0000e560       ??_C@_1EM@MAADIHMB@?$AAR?$AA6?$AA0?$AA2?$AA5?$AA?$AN?$AA?6?$AA?9?$AA?5?$AAp?$AAu?$AAr?$AAe?$AA?5?$AAv?$AAi?$AAr?$AAt?$AAu?$AAa?$AAl?$AA?5?$AAf?$AAu?$AAn?$AAc?$AAt?$AAi?$AAo?$AAn?$AA?5?$AAc@ 10051560     LIBCMT:crt0msg.obj
 0002:0000e5b0       ??_C@_1GK@MCAAGJMO@?$AAR?$AA6?$AA0?$AA2?$AA6?$AA?$AN?$AA?6?$AA?9?$AA?5?$AAn?$AAo?$AAt?$AA?5?$AAe?$AAn?$AAo?$AAu?$AAg?$AAh?$AA?5?$AAs?$AAp?$AAa?$AAc?$AAe?$AA?5?$AAf?$AAo?$AAr?$AA?5?$AAs?$AAt@ 100515b0     LIBCMT:crt0msg.obj
 0002:0000e620       ??_C@_1GK@MFGOKLAG@?$AAR?$AA6?$AA0?$AA2?$AA7?$AA?$AN?$AA?6?$AA?9?$AA?5?$AAn?$AAo?$AAt?$AA?5?$AAe?$AAn?$AAo?$AAu?$AAg?$AAh?$AA?5?$AAs?$AAp?$AAa?$AAc?$AAe?$AA?5?$AAf?$AAo?$AAr?$AA?5?$AAl?$AAo@ 10051620     LIBCMT:crt0msg.obj
 0002:0000e690       ??_C@_1EK@HHFLMAOL@?$AAR?$AA6?$AA0?$AA2?$AA8?$AA?$AN?$AA?6?$AA?9?$AA?5?$AAu?$AAn?$AAa?$AAb?$AAl?$AAe?$AA?5?$AAt?$AAo?$AA?5?$AAi?$AAn?$AAi?$AAt?$AAi?$AAa?$AAl?$AAi?$AAz?$AAe?$AA?5?$AAh?$AAe@ 10051690     LIBCMT:crt0msg.obj
 0002:0000e6dc       ??_C@_1DO@BMFCDCD@?$AAR?$AA6?$AA0?$AA3?$AA0?$AA?$AN?$AA?6?$AA?9?$AA?5?$AAC?$AAR?$AAT?$AA?5?$AAn?$AAo?$AAt?$AA?5?$AAi?$AAn?$AAi?$AAt?$AAi?$AAa?$AAl?$AAi?$AAz?$AAe?$AAd?$AA?$AN?$AA?6?$AA?$AA@ 100516dc     LIBCMT:crt0msg.obj
 0002:0000e720       ??_C@_1MG@ENCOOIDF@?$AAR?$AA6?$AA0?$AA3?$AA1?$AA?$AN?$AA?6?$AA?9?$AA?5?$AAA?$AAt?$AAt?$AAe?$AAm?$AAp?$AAt?$AA?5?$AAt?$AAo?$AA?5?$AAi?$AAn?$AAi?$AAt?$AAi?$AAa?$AAl?$AAi?$AAz?$AAe?$AA?5?$AAt@ 10051720     LIBCMT:crt0msg.obj
 0002:0000e7e8       ??_C@_1GG@GOPILAJP@?$AAR?$AA6?$AA0?$AA3?$AA2?$AA?$AN?$AA?6?$AA?9?$AA?5?$AAn?$AAo?$AAt?$AA?5?$AAe?$AAn?$AAo?$AAu?$AAg?$AAh?$AA?5?$AAs?$AAp?$AAa?$AAc?$AAe?$AA?5?$AAf?$AAo?$AAr?$AA?5?$AAl?$AAo@ 100517e8     LIBCMT:crt0msg.obj
 0002:0000e850       ??_C@_1BOO@KGEDBGAJ@?$AAR?$AA6?$AA0?$AA3?$AA3?$AA?$AN?$AA?6?$AA?9?$AA?5?$AAA?$AAt?$AAt?$AAe?$AAm?$AAp?$AAt?$AA?5?$AAt?$AAo?$AA?5?$AAu?$AAs?$AAe?$AA?5?$AAM?$AAS?$AAI?$AAL?$AA?5?$AAc?$AAo?$AAd@ 10051850     LIBCMT:crt0msg.obj
 0002:0000ea40       ??_C@_1GG@MKFPEKFO@?$AAR?$AA6?$AA0?$AA3?$AA4?$AA?$AN?$AA?6?$AA?9?$AA?5?$AAi?$AAn?$AAc?$AAo?$AAn?$AAs?$AAi?$AAs?$AAt?$AAe?$AAn?$AAt?$AA?5?$AAo?$AAn?$AAe?$AAx?$AAi?$AAt?$AA?5?$AAb?$AAe?$AAg@ 10051a40     LIBCMT:crt0msg.obj
 0002:0000eaa8       ??_C@_1BO@BFCDCGC@?$AAD?$AAO?$AAM?$AAA?$AAI?$AAN?$AA?5?$AAe?$AAr?$AAr?$AAo?$AAr?$AA?$AN?$AA?6?$AA?$AA@ 10051aa8     LIBCMT:crt0msg.obj
 0002:0000eac8       ??_C@_1BK@KMOMNAAI@?$AAS?$AAI?$AAN?$AAG?$AA?5?$AAe?$AAr?$AAr?$AAo?$AAr?$AA?$AN?$AA?6?$AA?$AA@ 10051ac8     LIBCMT:crt0msg.obj
 0002:0000eae4       ??_C@_1BM@JBBEPPHI@?$AAT?$AAL?$AAO?$AAS?$AAS?$AA?5?$AAe?$AAr?$AAr?$AAo?$AAr?$AA?$AN?$AA?6?$AA?$AA@ 10051ae4     LIBCMT:crt0msg.obj
 0002:0000eb00       ??_C@_15JNBOKNOG@?$AA?$AN?$AA?6?$AA?$AA@ 10051b00     LIBCMT:crt0msg.obj
 0002:0000eb08       ??_C@_1BO@BKOMIGKJ@?$AAr?$AAu?$AAn?$AAt?$AAi?$AAm?$AAe?$AA?5?$AAe?$AAr?$AAr?$AAo?$AAr?$AA?5?$AA?$AA@ 10051b08     LIBCMT:crt0msg.obj
 0002:0000eb28       ??_C@_1DE@JNGNBFGO@?$AAR?$AAu?$AAn?$AAt?$AAi?$AAm?$AAe?$AA?5?$AAE?$AAr?$AAr?$AAo?$AAr?$AA?$CB?$AA?6?$AA?6?$AAP?$AAr?$AAo?$AAg?$AAr?$AAa?$AAm?$AA?3?$AA?5?$AA?$AA@ 10051b28     LIBCMT:crt0msg.obj
 0002:0000eb5c       ??_C@_06OJHGLDPL@?$CInull?$CJ?$AA@ 10051b5c     LIBCMT:output.obj
 0002:0000eb64       ??_C@_1O@CEDCILHN@?$AA?$CI?$AAn?$AAu?$AAl?$AAl?$AA?$CJ?$AA?$AA@ 10051b64     LIBCMT:output.obj
 0002:0000eb78       ___lookuptable             10051b78     LIBCMT:output.obj
 0002:0000ec40       ??_C@_03MGHMBJCF@log?$AA@  10051c40     LIBCMT:libm_error.obj
 0002:0000ec44       ??_C@_05HGHHAHAP@log10?$AA@ 10051c44     LIBCMT:libm_error.obj
 0002:0000ec4c       ??_C@_03KHJOGHMM@exp?$AA@  10051c4c     LIBCMT:libm_error.obj
 0002:0000ec50       ??_C@_03JGHBODFD@pow?$AA@  10051c50     LIBCMT:libm_error.obj
 0002:0000ec54       ??_C@_04FIHNOPOL@asin?$AA@ 10051c54     LIBCMT:libm_error.obj
 0002:0000ec5c       ??_C@_04PDIFKINK@acos?$AA@ 10051c5c     LIBCMT:libm_error.obj
 0002:0000ec64       ??_C@_05EOHGHCHD@exp10?$AA@ 10051c64     LIBCMT:libm_error.obj
 0002:0000ec6c       ??_C@_04MLLJIGOK@atan?$AA@ 10051c6c     LIBCMT:libm_error.obj
 0002:0000ec74       ??_C@_04GFPJNGEK@ceil?$AA@ 10051c74     LIBCMT:libm_error.obj
 0002:0000ec7c       ??_C@_05PBJFFIGL@floor?$AA@ 10051c7c     LIBCMT:libm_error.obj
 0002:0000ec84       ??_C@_04EHEDPDJG@modf?$AA@ 10051c84     LIBCMT:libm_error.obj
 0002:0000ec8c       ??_C@_03BLEJJJBH@sin?$AA@  10051c8c     LIBCMT:libm_error.obj
 0002:0000ec90       ??_C@_03LALBNOCG@cos?$AA@  10051c90     LIBCMT:libm_error.obj
 0002:0000ec94       ??_C@_03IIINPABG@tan?$AA@  10051c94     LIBCMT:libm_error.obj
 0002:0000ec98       ??_C@_04EIAKFFMI@sqrt?$AA@ 10051c98     LIBCMT:libm_error.obj
 0002:0000eca0       ??_C@_05KLBDPFGC@e?$CL000?$AA@ 10051ca0     LIBCMT:cvt.obj
 0002:0000eca8       ??_C@_1BK@MGMFAEKH@?$AAk?$AAe?$AAr?$AAn?$AAe?$AAl?$AA3?$AA2?$AA?4?$AAd?$AAl?$AAl?$AA?$AA@ 10051ca8     LIBCMT:winapisupp.obj
 0002:0000ecc4       ??_C@_08KNHFBNJ@FlsAlloc?$AA@ 10051cc4     LIBCMT:winapisupp.obj
 0002:0000ecd0       ??_C@_07PEJMOBNF@FlsFree?$AA@ 10051cd0     LIBCMT:winapisupp.obj
 0002:0000ecd8       ??_C@_0M@GDNOONDI@FlsGetValue?$AA@ 10051cd8     LIBCMT:winapisupp.obj
 0002:0000ece4       ??_C@_0M@JCPCPOEF@FlsSetValue?$AA@ 10051ce4     LIBCMT:winapisupp.obj
 0002:0000ecf0       ??_C@_0BM@HCFOFFN@InitializeCriticalSectionEx?$AA@ 10051cf0     LIBCMT:winapisupp.obj
 0002:0000ed0c       ??_C@_0P@DLHPPCNH@CreateEventExW?$AA@ 10051d0c     LIBCMT:winapisupp.obj
 0002:0000ed1c       ??_C@_0BD@KIEEOEEH@CreateSemaphoreExW?$AA@ 10051d1c     LIBCMT:winapisupp.obj
 0002:0000ed30       ??_C@_0BI@BKLFFAPO@SetThreadStackGuarantee?$AA@ 10051d30     LIBCMT:winapisupp.obj
 0002:0000ed48       ??_C@_0BG@OGFAJCKC@CreateThreadpoolTimer?$AA@ 10051d48     LIBCMT:winapisupp.obj
 0002:0000ed60       ??_C@_0BD@LPLEMMDI@SetThreadpoolTimer?$AA@ 10051d60     LIBCMT:winapisupp.obj
 0002:0000ed74       ??_C@_0CA@FMNJENH@WaitForThreadpoolTimerCallbacks?$AA@ 10051d74     LIBCMT:winapisupp.obj
 0002:0000ed94       ??_C@_0BF@DCFCCNOC@CloseThreadpoolTimer?$AA@ 10051d94     LIBCMT:winapisupp.obj
 0002:0000edac       ??_C@_0BF@FLABGKKM@CreateThreadpoolWait?$AA@ 10051dac     LIBCMT:winapisupp.obj
 0002:0000edc4       ??_C@_0BC@MGCOHNA@SetThreadpoolWait?$AA@ 10051dc4     LIBCMT:winapisupp.obj
 0002:0000edd8       ??_C@_0BE@OCIOMIMP@CloseThreadpoolWait?$AA@ 10051dd8     LIBCMT:winapisupp.obj
 0002:0000edec       ??_C@_0BJ@LKGHFHBO@FlushProcessWriteBuffers?$AA@ 10051dec     LIBCMT:winapisupp.obj
 0002:0000ee08       ??_C@_0BP@KALKKPMO@FreeLibraryWhenCallbackReturns?$AA@ 10051e08     LIBCMT:winapisupp.obj
 0002:0000ee28       ??_C@_0BK@DFNBACLA@GetCurrentProcessorNumber?$AA@ 10051e28     LIBCMT:winapisupp.obj
 0002:0000ee44       ??_C@_0BP@KHGALBC@GetLogicalProcessorInformation?$AA@ 10051e44     LIBCMT:winapisupp.obj
 0002:0000ee64       ??_C@_0BE@FKKLLFLM@CreateSymbolicLinkW?$AA@ 10051e64     LIBCMT:winapisupp.obj
 0002:0000ee78       ??_C@_0BJ@OHNKDLIJ@SetDefaultDllDirectories?$AA@ 10051e78     LIBCMT:winapisupp.obj
 0002:0000ee94       ??_C@_0BE@LJANKFHF@EnumSystemLocalesEx?$AA@ 10051e94     LIBCMT:winapisupp.obj
 0002:0000eea8       ??_C@_0BA@IHGNDAEB@CompareStringEx?$AA@ 10051ea8     LIBCMT:winapisupp.obj
 0002:0000eeb8       ??_C@_0BA@EPCJIIPD@GetDateFormatEx?$AA@ 10051eb8     LIBCMT:winapisupp.obj
 0002:0000eec8       ??_C@_0BA@ONOKGCMP@GetLocaleInfoEx?$AA@ 10051ec8     LIBCMT:winapisupp.obj
 0002:0000eed8       ??_C@_0BA@CIJJKCJJ@GetTimeFormatEx?$AA@ 10051ed8     LIBCMT:winapisupp.obj
 0002:0000eee8       ??_C@_0BJ@PBCCBIPI@GetUserDefaultLocaleName?$AA@ 10051ee8     LIBCMT:winapisupp.obj
 0002:0000ef04       ??_C@_0BC@CELBKLLA@IsValidLocaleName?$AA@ 10051f04     LIBCMT:winapisupp.obj
 0002:0000ef18       ??_C@_0O@KKBNKAPF@LCMapStringEx?$AA@ 10051f18     LIBCMT:winapisupp.obj
 0002:0000ef28       ??_C@_0BE@JOGNEJCI@GetCurrentPackageId?$AA@ 10051f28     LIBCMT:winapisupp.obj
 0002:0000ef3c       ??_C@_0P@CDHHOHKP@GetTickCount64?$AA@ 10051f3c     LIBCMT:winapisupp.obj
 0002:0000ef4c       ??_C@_0BO@KPCLFDJJ@GetFileInformationByHandleExW?$AA@ 10051f4c     LIBCMT:winapisupp.obj
 0002:0000ef6c       ??_C@_0BM@MHIDLABK@SetFileInformationByHandleW?$AA@ 10051f6c     LIBCMT:winapisupp.obj
 0002:0000ef88       ??_C@_1BK@GAEMIDIL@?$AAA?$AAD?$AAV?$AAA?$AAP?$AAI?$AA3?$AA2?$AA?4?$AAD?$AAL?$AAL?$AA?$AA@ 10051f88     LIBCMT:rand_s.obj
 0002:0000efa4       ??_C@_0BC@JEAENNKH@SystemFunction036?$AA@ 10051fa4     LIBCMT:rand_s.obj
 0002:0000efc8       ??_C@_1M@HPNHIDJI@?$AAj?$AAa?$AA?9?$AAJ?$AAP?$AA?$AA@ 10051fc8     LIBCMT:mbctype.obj
 0002:0000efd4       ??_C@_1M@BIBDDEMK@?$AAz?$AAh?$AA?9?$AAC?$AAN?$AA?$AA@ 10051fd4     LIBCMT:mbctype.obj
 0002:0000efe0       ??_C@_1M@JLOOOEGK@?$AAk?$AAo?$AA?9?$AAK?$AAR?$AA?$AA@ 10051fe0     LIBCMT:mbctype.obj
 0002:0000efec       ??_C@_1M@CLNBBOPM@?$AAz?$AAh?$AA?9?$AAT?$AAW?$AA?$AA@ 10051fec     LIBCMT:mbctype.obj
 0002:0000f018       ??_C@_04FJHINJAO@tanh?$AA@ 10052018     LIBCMT:fpexcept.obj
 0002:0000f020       ??_C@_05KNGEOGJB@atan2?$AA@ 10052020     LIBCMT:fpexcept.obj
 0002:0000f028       ??_C@_04ODHECPBC@fabs?$AA@ 10052028     LIBCMT:fpexcept.obj
 0002:0000f030       ??_C@_05CEJMAHNP@ldexp?$AA@ 10052030     LIBCMT:fpexcept.obj
 0002:0000f038       ??_C@_05KBKMEMPO@_cabs?$AA@ 10052038     LIBCMT:fpexcept.obj
 0002:0000f040       ??_C@_06MEIMCGCF@_hypot?$AA@ 10052040     LIBCMT:fpexcept.obj
 0002:0000f048       ??_C@_04KEPJIHGP@fmod?$AA@ 10052048     LIBCMT:fpexcept.obj
 0002:0000f050       ??_C@_05GKKHEGJL@frexp?$AA@ 10052050     LIBCMT:fpexcept.obj
 0002:0000f058       ??_C@_03MJLDFKDL@_y0?$AA@  10052058     LIBCMT:fpexcept.obj
 0002:0000f05c       ??_C@_03NAKIGLHK@_y1?$AA@  1005205c     LIBCMT:fpexcept.obj
 0002:0000f060       ??_C@_03ONILCKOB@_yn?$AA@  10052060     LIBCMT:fpexcept.obj
 0002:0000f064       ??_C@_05JGDBENOH@_logb?$AA@ 10052064     LIBCMT:fpexcept.obj
 0002:0000f06c       ??_C@_0L@KDOEJCKC@_nextafter?$AA@ 1005206c     LIBCMT:fpexcept.obj
 0002:0000f078       ??_C@_04COOMCNPB@sinh?$AA@ 10052078     LIBCMT:fpexcept.obj
 0002:0000f080       ??_C@_04HPJJNFIM@cosh?$AA@ 10052080     LIBCMT:fpexcept.obj
 0002:0000f088       ??_C@_1BG@GOEBHBDC@?$AAU?$AAS?$AAE?$AAR?$AA3?$AA2?$AA?4?$AAD?$AAL?$AAL?$AA?$AA@ 10052088     LIBCMT:crtmboxw.obj
 0002:0000f0a0       ??_C@_0M@DLDCCGNP@MessageBoxW?$AA@ 100520a0     LIBCMT:crtmboxw.obj
 0002:0000f0ac       ??_C@_0BA@HNOPNCHB@GetActiveWindow?$AA@ 100520ac     LIBCMT:crtmboxw.obj
 0002:0000f0bc       ??_C@_0BD@HHGDFDBJ@GetLastActivePopup?$AA@ 100520bc     LIBCMT:crtmboxw.obj
 0002:0000f0d0       ??_C@_0BK@DEKFELLI@GetUserObjectInformationW?$AA@ 100520d0     LIBCMT:crtmboxw.obj
 0002:0000f0ec       ??_C@_0BI@DFKBFLJE@GetProcessWindowStation?$AA@ 100520ec     LIBCMT:crtmboxw.obj
 0002:0000f108       __XcptActTab               10052108     LIBCMT:winxfltr.obj
 0002:0000f198       __XcptActTabCount          10052198     LIBCMT:winxfltr.obj
 0002:0000f19c       __XcptActTabSize           1005219c     LIBCMT:winxfltr.obj
 0002:0000f1a0       __First_FPE_Indx           100521a0     LIBCMT:winxfltr.obj
 0002:0000f1a4       __Num_FPE                  100521a4     LIBCMT:winxfltr.obj
 0002:0000f1a8       ___lookuptable_s           100521a8     LIBCMT:outputs.obj
 0002:0000f204       ??_C@_03KOEHGMDN@Sun?$AA@  10052204     LIBCMT:nlsdata.obj
 0002:0000f208       ??_C@_03PDAGKDH@Mon?$AA@   10052208     LIBCMT:nlsdata.obj
 0002:0000f20c       ??_C@_03NAGEINEP@Tue?$AA@  1005220c     LIBCMT:nlsdata.obj
 0002:0000f210       ??_C@_03MHOMLAJA@Wed?$AA@  10052210     LIBCMT:nlsdata.obj
 0002:0000f214       ??_C@_03IOFIKPDN@Thu?$AA@  10052214     LIBCMT:nlsdata.obj
 0002:0000f218       ??_C@_03IDIOELNC@Fri?$AA@  10052218     LIBCMT:nlsdata.obj
 0002:0000f21c       ??_C@_03FEFJNEK@Sat?$AA@   1005221c     LIBCMT:nlsdata.obj
 0002:0000f220       ??_C@_06OOPIFAJ@Sunday?$AA@ 10052220     LIBCMT:nlsdata.obj
 0002:0000f228       ??_C@_06JLEDEDGH@Monday?$AA@ 10052228     LIBCMT:nlsdata.obj
 0002:0000f230       ??_C@_07BAAGCFCM@Tuesday?$AA@ 10052230     LIBCMT:nlsdata.obj
 0002:0000f238       ??_C@_09DLIGFAKA@Wednesday?$AA@ 10052238     LIBCMT:nlsdata.obj
 0002:0000f244       ??_C@_08HACCIKIA@Thursday?$AA@ 10052244     LIBCMT:nlsdata.obj
 0002:0000f250       ??_C@_06JECMNKMI@Friday?$AA@ 10052250     LIBCMT:nlsdata.obj
 0002:0000f258       ??_C@_08INBOOONO@Saturday?$AA@ 10052258     LIBCMT:nlsdata.obj
 0002:0000f264       ??_C@_03JIHJHPIE@Jan?$AA@  10052264     LIBCMT:nlsdata.obj
 0002:0000f268       ??_C@_03HJBDCHOM@Feb?$AA@  10052268     LIBCMT:nlsdata.obj
 0002:0000f26c       ??_C@_03ODNJBKGA@Mar?$AA@  1005226c     LIBCMT:nlsdata.obj
 0002:0000f270       ??_C@_03LEOLGMJP@Apr?$AA@  10052270     LIBCMT:nlsdata.obj
 0002:0000f274       ??_C@_03CNMDKL@May?$AA@    10052274     LIBCMT:nlsdata.obj
 0002:0000f278       ??_C@_03IDFGHECI@Jun?$AA@  10052278     LIBCMT:nlsdata.obj
 0002:0000f27c       ??_C@_03LBGABGKK@Jul?$AA@  1005227c     LIBCMT:nlsdata.obj
 0002:0000f280       ??_C@_03IFJFEIGA@Aug?$AA@  10052280     LIBCMT:nlsdata.obj
 0002:0000f284       ??_C@_03GGCAPAJC@Sep?$AA@  10052284     LIBCMT:nlsdata.obj
 0002:0000f288       ??_C@_03BMAOKBAD@Oct?$AA@  10052288     LIBCMT:nlsdata.obj
 0002:0000f28c       ??_C@_03JPJOFNIA@Nov?$AA@  1005228c     LIBCMT:nlsdata.obj
 0002:0000f290       ??_C@_03MKABNOCG@Dec?$AA@  10052290     LIBCMT:nlsdata.obj
 0002:0000f294       ??_C@_07CGJPFGJA@January?$AA@ 10052294     LIBCMT:nlsdata.obj
 0002:0000f29c       ??_C@_08GNJGEPFN@February?$AA@ 1005229c     LIBCMT:nlsdata.obj
 0002:0000f2a8       ??_C@_05HPCKOFNC@March?$AA@ 100522a8     LIBCMT:nlsdata.obj
 0002:0000f2b0       ??_C@_05DMJDNLEJ@April?$AA@ 100522b0     LIBCMT:nlsdata.obj
 0002:0000f2b8       ??_C@_04CNLMGBGM@June?$AA@ 100522b8     LIBCMT:nlsdata.obj
 0002:0000f2c0       ??_C@_04MIEPOIFP@July?$AA@ 100522c0     LIBCMT:nlsdata.obj
 0002:0000f2c8       ??_C@_06LBBHFDDG@August?$AA@ 100522c8     LIBCMT:nlsdata.obj
 0002:0000f2d0       ??_C@_09BHHEALKD@September?$AA@ 100522d0     LIBCMT:nlsdata.obj
 0002:0000f2dc       ??_C@_07JJNFCEND@October?$AA@ 100522dc     LIBCMT:nlsdata.obj
 0002:0000f2e4       ??_C@_08HCHEGEOA@November?$AA@ 100522e4     LIBCMT:nlsdata.obj
 0002:0000f2f0       ??_C@_08EDHMEBNP@December?$AA@ 100522f0     LIBCMT:nlsdata.obj
 0002:0000f2fc       ??_C@_02DEDBPAFC@AM?$AA@   100522fc     LIBCMT:nlsdata.obj
 0002:0000f300       ??_C@_02CJNFDJBF@PM?$AA@   10052300     LIBCMT:nlsdata.obj
 0002:0000f304       ??_C@_08BPBNCDIB@MM?1dd?1yy?$AA@ 10052304     LIBCMT:nlsdata.obj
 0002:0000f310       ??_C@_0BE@CKGJFCPC@dddd?0?5MMMM?5dd?0?5yyyy?$AA@ 10052310     LIBCMT:nlsdata.obj
 0002:0000f324       ??_C@_08JCCMCCIL@HH?3mm?3ss?$AA@ 10052324     LIBCMT:nlsdata.obj
 0002:0000f330       ??_C@_17MBGCMIPB@?$AAS?$AAu?$AAn?$AA?$AA@ 10052330     LIBCMT:nlsdata.obj
 0002:0000f338       ??_C@_17KBOMKBF@?$AAM?$AAo?$AAn?$AA?$AA@ 10052338     LIBCMT:nlsdata.obj
 0002:0000f340       ??_C@_17BMKGEGOJ@?$AAT?$AAu?$AAe?$AA?$AA@ 10052340     LIBCMT:nlsdata.obj
 0002:0000f348       ??_C@_17CJEDCEPE@?$AAW?$AAe?$AAd?$AA?$AA@ 10052348     LIBCMT:nlsdata.obj
 0002:0000f350       ??_C@_17PDPHAADD@?$AAT?$AAh?$AAu?$AA?$AA@ 10052350     LIBCMT:nlsdata.obj
 0002:0000f358       ??_C@_17HFOLPPLP@?$AAF?$AAr?$AAi?$AA?$AA@ 10052358     LIBCMT:nlsdata.obj
 0002:0000f360       ??_C@_17GGIBDPIH@?$AAS?$AAa?$AAt?$AA?$AA@ 10052360     LIBCMT:nlsdata.obj
 0002:0000f368       ??_C@_1O@IHNHDHPB@?$AAS?$AAu?$AAn?$AAd?$AAa?$AAy?$AA?$AA@ 10052368     LIBCMT:nlsdata.obj
 0002:0000f378       ??_C@_1O@MMNBFLIA@?$AAM?$AAo?$AAn?$AAd?$AAa?$AAy?$AA?$AA@ 10052378     LIBCMT:nlsdata.obj
 0002:0000f388       ??_C@_1BA@ENFBFFEK@?$AAT?$AAu?$AAe?$AAs?$AAd?$AAa?$AAy?$AA?$AA@ 10052388     LIBCMT:nlsdata.obj
 0002:0000f398       ??_C@_1BE@EBOGMDOH@?$AAW?$AAe?$AAd?$AAn?$AAe?$AAs?$AAd?$AAa?$AAy?$AA?$AA@ 10052398     LIBCMT:nlsdata.obj
 0002:0000f3ac       ??_C@_1BC@HHMNLIHE@?$AAT?$AAh?$AAu?$AAr?$AAs?$AAd?$AAa?$AAy?$AA?$AA@ 100523ac     LIBCMT:nlsdata.obj
 0002:0000f3c0       ??_C@_1O@PDICJHAG@?$AAF?$AAr?$AAi?$AAd?$AAa?$AAy?$AA?$AA@ 100523c0     LIBCMT:nlsdata.obj
 0002:0000f3d0       ??_C@_1BC@ENMNNPAJ@?$AAS?$AAa?$AAt?$AAu?$AAr?$AAd?$AAa?$AAy?$AA?$AA@ 100523d0     LIBCMT:nlsdata.obj
 0002:0000f3e4       ??_C@_17DKNBKCHM@?$AAJ?$AAa?$AAn?$AA?$AA@ 100523e4     LIBCMT:nlsdata.obj
 0002:0000f3ec       ??_C@_17LMDJEKJN@?$AAF?$AAe?$AAb?$AA?$AA@ 100523ec     LIBCMT:nlsdata.obj
 0002:0000f3f4       ??_C@_17CKNLEDEC@?$AAM?$AAa?$AAr?$AA?$AA@ 100523f4     LIBCMT:nlsdata.obj
 0002:0000f3fc       ??_C@_17LFPOIHDD@?$AAA?$AAp?$AAr?$AA?$AA@ 100523fc     LIBCMT:nlsdata.obj
 0002:0000f404       ??_C@_17PNNKMEED@?$AAM?$AAa?$AAy?$AA?$AA@ 10052404     LIBCMT:nlsdata.obj
 0002:0000f40c       ??_C@_17KCJGOCPB@?$AAJ?$AAu?$AAn?$AA?$AA@ 1005240c     LIBCMT:nlsdata.obj
 0002:0000f414       ??_C@_17IJPCKHK@?$AAJ?$AAu?$AAl?$AA?$AA@ 10052414     LIBCMT:nlsdata.obj
 0002:0000f41c       ??_C@_17ICPELBCN@?$AAA?$AAu?$AAg?$AA?$AA@ 1005241c     LIBCMT:nlsdata.obj
 0002:0000f424       ??_C@_17HCHCOKMG@?$AAS?$AAe?$AAp?$AA?$AA@ 10052424     LIBCMT:nlsdata.obj
 0002:0000f42c       ??_C@_17FNLKOI@?$AAO?$AAc?$AAt?$AA?$AA@ 1005242c     LIBCMT:nlsdata.obj
 0002:0000f434       ??_C@_17BBDMLCIG@?$AAN?$AAo?$AAv?$AA?$AA@ 10052434     LIBCMT:nlsdata.obj
 0002:0000f43c       ??_C@_17EGKACKIF@?$AAD?$AAe?$AAc?$AA?$AA@ 1005243c     LIBCMT:nlsdata.obj
 0002:0000f444       ??_C@_1BA@EFMEIEBA@?$AAJ?$AAa?$AAn?$AAu?$AAa?$AAr?$AAy?$AA?$AA@ 10052444     LIBCMT:nlsdata.obj
 0002:0000f454       ??_C@_1BC@JGDDFFAM@?$AAF?$AAe?$AAb?$AAr?$AAu?$AAa?$AAr?$AAy?$AA?$AA@ 10052454     LIBCMT:nlsdata.obj
 0002:0000f468       ??_C@_1M@IKEENEDF@?$AAM?$AAa?$AAr?$AAc?$AAh?$AA?$AA@ 10052468     LIBCMT:nlsdata.obj
 0002:0000f474       ??_C@_1M@GJNLMHFD@?$AAA?$AAp?$AAr?$AAi?$AAl?$AA?$AA@ 10052474     LIBCMT:nlsdata.obj
 0002:0000f480       ??_C@_19EPFLPGAP@?$AAJ?$AAu?$AAn?$AAe?$AA?$AA@ 10052480     LIBCMT:nlsdata.obj
 0002:0000f48c       ??_C@_19BIFMLPCD@?$AAJ?$AAu?$AAl?$AAy?$AA?$AA@ 1005248c     LIBCMT:nlsdata.obj
 0002:0000f498       ??_C@_1O@PAHLKOAC@?$AAA?$AAu?$AAg?$AAu?$AAs?$AAt?$AA?$AA@ 10052498     LIBCMT:nlsdata.obj
 0002:0000f4a8       ??_C@_1BE@DKAAMBJL@?$AAS?$AAe?$AAp?$AAt?$AAe?$AAm?$AAb?$AAe?$AAr?$AA?$AA@ 100524a8     LIBCMT:nlsdata.obj
 0002:0000f4bc       ??_C@_1BA@EPANDLNG@?$AAO?$AAc?$AAt?$AAo?$AAb?$AAe?$AAr?$AA?$AA@ 100524bc     LIBCMT:nlsdata.obj
 0002:0000f4cc       ??_C@_1BC@BGLIFPF@?$AAN?$AAo?$AAv?$AAe?$AAm?$AAb?$AAe?$AAr?$AA?$AA@ 100524cc     LIBCMT:nlsdata.obj
 0002:0000f4e0       ??_C@_1BC@FEMKIFH@?$AAD?$AAe?$AAc?$AAe?$AAm?$AAb?$AAe?$AAr?$AA?$AA@ 100524e0     LIBCMT:nlsdata.obj
 0002:0000f4f4       ??_C@_15ODEHAHHF@?$AAA?$AAM?$AA?$AA@ 100524f4     LIBCMT:nlsdata.obj
 0002:0000f4fc       ??_C@_15CLMNNGEL@?$AAP?$AAM?$AA?$AA@ 100524fc     LIBCMT:nlsdata.obj
 0002:0000f504       ??_C@_1BC@IEBCMHCM@?$AAM?$AAM?$AA?1?$AAd?$AAd?$AA?1?$AAy?$AAy?$AA?$AA@ 10052504     LIBCMT:nlsdata.obj
 0002:0000f518       ??_C@_1CI@KNAKOEBC@?$AAd?$AAd?$AAd?$AAd?$AA?0?$AA?5?$AAM?$AAM?$AAM?$AAM?$AA?5?$AAd?$AAd?$AA?0?$AA?5?$AAy?$AAy?$AAy?$AAy?$AA?$AA@ 10052518     LIBCMT:nlsdata.obj
 0002:0000f540       ??_C@_1BC@GDGBMEMK@?$AAH?$AAH?$AA?3?$AAm?$AAm?$AA?3?$AAs?$AAs?$AA?$AA@ 10052540     LIBCMT:nlsdata.obj
 0002:0000f554       ??_C@_1M@BMHNFIME@?$AAe?$AAn?$AA?9?$AAU?$AAS?$AA?$AA@ 10052554     LIBCMT:nlsdata.obj
 0002:0000f560       _LcidToLocaleNameTable     10052560     LIBCMT:winapinls.obj
 0002:0000fc80       _LocaleNameToIndexTable    10052c80     LIBCMT:winapinls.obj
 0002:000103a0       ??_C@_15EMKDOKLE@?$AAa?$AAr?$AA?$AA@ 100533a0     LIBCMT:winapinls.obj
 0002:000103a8       ??_C@_15KNPADPLH@?$AAb?$AAg?$AA?$AA@ 100533a8     LIBCMT:winapinls.obj
 0002:000103b0       ??_C@_15EDMHLDMO@?$AAc?$AAa?$AA?$AA@ 100533b0     LIBCMT:winapinls.obj
 0002:000103b8       ??_C@_1O@BPEAJADD@?$AAz?$AAh?$AA?9?$AAC?$AAH?$AAS?$AA?$AA@ 100533b8     LIBCMT:winapinls.obj
 0002:000103c8       ??_C@_15LJNHCMNK@?$AAc?$AAs?$AA?$AA@ 100533c8     LIBCMT:winapinls.obj
 0002:000103d0       ??_C@_15FOMCIDHG@?$AAd?$AAa?$AA?$AA@ 100533d0     LIBCMT:winapinls.obj
 0002:000103d8       ??_C@_15NBKABECB@?$AAd?$AAe?$AA?$AA@ 100533d8     LIBCMT:winapinls.obj
 0002:000103e0       ??_C@_15GHPEIIAO@?$AAe?$AAl?$AA?$AA@ 100533e0     LIBCMT:winapinls.obj
 0002:000103e8       ??_C@_15MNPNEAIF@?$AAe?$AAn?$AA?$AA@ 100533e8     LIBCMT:winapinls.obj
 0002:000103f0       ??_C@_15GPIOMPMH@?$AAe?$AAs?$AA?$AA@ 100533f0     LIBCMT:winapinls.obj
 0002:000103f8       ??_C@_15NGLOAKJC@?$AAf?$AAi?$AA?$AA@ 100533f8     LIBCMT:winapinls.obj
 0002:00010400       ??_C@_15FBKGNKAM@?$AAf?$AAr?$AA?$AA@ 10053400     LIBCMT:winapinls.obj
 0002:00010408       ??_C@_15KGGCNEFK@?$AAh?$AAe?$AA?$AA@ 10053408     LIBCMT:winapinls.obj
 0002:00010410       ??_C@_15PGHLIDMF@?$AAh?$AAu?$AA?$AA@ 10053410     LIBCMT:winapinls.obj
 0002:00010418       ??_C@_15BIEMAPLM@?$AAi?$AAs?$AA?$AA@ 10053418     LIBCMT:winapinls.obj
 0002:00010420       ??_C@_15IFJLDHAF@?$AAi?$AAt?$AA?$AA@ 10053420     LIBCMT:winapinls.obj
 0002:00010428       ??_C@_15GEMIOCAG@?$AAj?$AAa?$AA?$AA@ 10053428     LIBCMT:winapinls.obj
 0002:00010430       ??_C@_15EPELEGJA@?$AAk?$AAo?$AA?$AA@ 10053430     LIBCMT:winapinls.obj
 0002:00010438       ??_C@_15NDDHIMN@?$AAn?$AAl?$AA?$AA@ 10053438     LIBCMT:winapinls.obj
 0002:00010440       ??_C@_15BPIGNHCD@?$AAn?$AAo?$AA?$AA@ 10053440     LIBCMT:winapinls.obj
 0002:00010448       ??_C@_15DEOPBLCG@?$AAp?$AAl?$AA?$AA@ 10053448     LIBCMT:winapinls.obj
 0002:00010450       ??_C@_15KBECGEFG@?$AAp?$AAt?$AA?$AA@ 10053450     LIBCMT:winapinls.obj
 0002:00010458       ??_C@_15GLJCBFMD@?$AAr?$AAo?$AA?$AA@ 10053458     LIBCMT:winapinls.obj
 0002:00010460       ??_C@_15FEDGKCDI@?$AAr?$AAu?$AA?$AA@ 10053460     LIBCMT:winapinls.obj
 0002:00010468       ??_C@_15GLKMLLHM@?$AAh?$AAr?$AA?$AA@ 10053468     LIBCMT:winapinls.obj
 0002:00010470       ??_C@_15CPKMFBDB@?$AAs?$AAk?$AA?$AA@ 10053470     LIBCMT:winapinls.obj
 0002:00010478       ??_C@_15BAAIOGMK@?$AAs?$AAq?$AA?$AA@ 10053478     LIBCMT:winapinls.obj
 0002:00010480       ??_C@_15INNPNOHD@?$AAs?$AAv?$AA?$AA@ 10053480     LIBCMT:winapinls.obj
 0002:00010488       ??_C@_15CABMMOGH@?$AAt?$AAh?$AA?$AA@ 10053488     LIBCMT:winapinls.obj
 0002:00010490       ??_C@_15BPLIHJJM@?$AAt?$AAr?$AA?$AA@ 10053490     LIBCMT:winapinls.obj
 0002:00010498       ??_C@_15NEOEKKDJ@?$AAu?$AAr?$AA?$AA@ 10053498     LIBCMT:winapinls.obj
 0002:000104a0       ??_C@_15NFICGAJK@?$AAi?$AAd?$AA?$AA@ 100534a0     LIBCMT:winapinls.obj
 0002:000104a8       ??_C@_15PJPFLCCM@?$AAu?$AAk?$AA?$AA@ 100534a8     LIBCMT:winapinls.obj
 0002:000104b0       ??_C@_15HPJPHDM@?$AAb?$AAe?$AA?$AA@ 100534b0     LIBCMT:winapinls.obj
 0002:000104b8       ??_C@_15LCHLGJII@?$AAs?$AAl?$AA?$AA@ 100534b8     LIBCMT:winapinls.obj
 0002:000104c0       ??_C@_15PCFJPHHO@?$AAe?$AAt?$AA?$AA@ 100534c0     LIBCMT:winapinls.obj
 0002:000104c8       ??_C@_15HPFPGODN@?$AAl?$AAv?$AA?$AA@ 100534c8     LIBCMT:winapinls.obj
 0002:000104d0       ??_C@_15NFFGKGLG@?$AAl?$AAt?$AA?$AA@ 100534d0     LIBCMT:winapinls.obj
 0002:000104d8       ??_C@_15BDAKCCHN@?$AAf?$AAa?$AA?$AA@ 100534d8     LIBCMT:winapinls.obj
 0002:000104e0       ??_C@_15NFGIAIAJ@?$AAv?$AAi?$AA?$AA@ 100534e0     LIBCMT:winapinls.obj
 0002:000104e8       ??_C@_15LMKNDMHN@?$AAh?$AAy?$AA?$AA@ 100534e8     LIBCMT:winapinls.obj
 0002:000104f0       ??_C@_15IJBHMCFL@?$AAa?$AAz?$AA?$AA@ 100534f0     LIBCMT:winapinls.obj
 0002:000104f8       ??_C@_15EKOFJABL@?$AAe?$AAu?$AA?$AA@ 100534f8     LIBCMT:winapinls.obj
 0002:00010500       ??_C@_15BGHADCNK@?$AAm?$AAk?$AA?$AA@ 10053500     LIBCMT:winapinls.obj
 0002:00010508       ??_C@_15JDNICKHM@?$AAa?$AAf?$AA?$AA@ 10053508     LIBCMT:winapinls.obj
 0002:00010510       ??_C@_15KPJEDBKD@?$AAk?$AAa?$AA?$AA@ 10053510     LIBCMT:winapinls.obj
 0002:00010518       ??_C@_15PDNFFFEO@?$AAf?$AAo?$AA?$AA@ 10053518     LIBCMT:winapinls.obj
 0002:00010520       ??_C@_15OMLEGLOC@?$AAh?$AAi?$AA?$AA@ 10053520     LIBCMT:winapinls.obj
 0002:00010528       ??_C@_15IDNNENKK@?$AAm?$AAs?$AA?$AA@ 10053528     LIBCMT:winapinls.obj
 0002:00010530       ??_C@_15MACJNBMH@?$AAk?$AAk?$AA?$AA@ 10053530     LIBCMT:winapinls.obj
 0002:00010538       ??_C@_15DKDJEOND@?$AAk?$AAy?$AA?$AA@ 10053538     LIBCMT:winapinls.obj
 0002:00010540       ??_C@_15DFGDLJBG@?$AAs?$AAw?$AA?$AA@ 10053540     LIBCMT:winapinls.obj
 0002:00010548       ??_C@_15BBFAICNG@?$AAu?$AAz?$AA?$AA@ 10053548     LIBCMT:winapinls.obj
 0002:00010550       ??_C@_15DKNDCGEA@?$AAt?$AAt?$AA?$AA@ 10053550     LIBCMT:winapinls.obj
 0002:00010558       ??_C@_15MGIFMDPL@?$AAp?$AAa?$AA?$AA@ 10053558     LIBCMT:winapinls.obj
 0002:00010560       ??_C@_15HCNDBBA@?$AAg?$AAu?$AA?$AA@ 10053560     LIBCMT:winapinls.obj
 0002:00010568       ??_C@_15FNBEIBON@?$AAt?$AAa?$AA?$AA@ 10053568     LIBCMT:winapinls.obj
 0002:00010570       ??_C@_15NCHGBGLK@?$AAt?$AAe?$AA?$AA@ 10053570     LIBCMT:winapinls.obj
 0002:00010578       ??_C@_15PHPHCBPF@?$AAk?$AAn?$AA?$AA@ 10053578     LIBCMT:winapinls.obj
 0002:00010580       ??_C@_15DLGBCKMP@?$AAm?$AAr?$AA?$AA@ 10053580     LIBCMT:winapinls.obj
 0002:00010588       ??_C@_15EABBLBFF@?$AAs?$AAa?$AA?$AA@ 10053588     LIBCMT:winapinls.obj
 0002:00010590       ??_C@_15CBKOMCOI@?$AAm?$AAn?$AA?$AA@ 10053590     LIBCMT:winapinls.obj
 0002:00010598       ??_C@_15CKDMCJAF@?$AAg?$AAl?$AA?$AA@ 10053598     LIBCMT:winapinls.obj
 0002:000105a0       ??_C@_17CNJFBPG@?$AAk?$AAo?$AAk?$AA?$AA@ 100535a0     LIBCMT:winapinls.obj
 0002:000105a8       ??_C@_17FFBJICPL@?$AAs?$AAy?$AAr?$AA?$AA@ 100535a8     LIBCMT:winapinls.obj
 0002:000105b0       ??_C@_17KPNDCPAF@?$AAd?$AAi?$AAv?$AA?$AA@ 100535b0     LIBCMT:winapinls.obj
 0002:000105b8       ??_C@_11LOCGONAA@?$AA?$AA@ 100535b8     LIBCMT:winapinls.obj
 0002:000105bc       ??_C@_1M@OKAHONE@?$AAa?$AAr?$AA?9?$AAS?$AAA?$AA?$AA@ 100535bc     LIBCMT:winapinls.obj
 0002:000105c8       ??_C@_1M@FFFIGIGK@?$AAb?$AAg?$AA?9?$AAB?$AAG?$AA?$AA@ 100535c8     LIBCMT:winapinls.obj
 0002:000105d4       ??_C@_1M@BJNKEDC@?$AAc?$AAa?$AA?9?$AAE?$AAS?$AA?$AA@ 100535d4     LIBCMT:winapinls.obj
 0002:000105e0       ??_C@_1M@IJJHFJHA@?$AAc?$AAs?$AA?9?$AAC?$AAZ?$AA?$AA@ 100535e0     LIBCMT:winapinls.obj
 0002:000105ec       ??_C@_1M@CLPEOBGI@?$AAd?$AAa?$AA?9?$AAD?$AAK?$AA?$AA@ 100535ec     LIBCMT:winapinls.obj
 0002:000105f8       ??_C@_1M@MCMADGCB@?$AAd?$AAe?$AA?9?$AAD?$AAE?$AA?$AA@ 100535f8     LIBCMT:winapinls.obj
 0002:00010604       ??_C@_1M@OOCKEMAM@?$AAe?$AAl?$AA?9?$AAG?$AAR?$AA?$AA@ 10053604     LIBCMT:winapinls.obj
 0002:00010610       ??_C@_1M@DDNJFGID@?$AAf?$AAi?$AA?9?$AAF?$AAI?$AA?$AA@ 10053610     LIBCMT:winapinls.obj
 0002:0001061c       ??_C@_1M@GLIPPMAC@?$AAf?$AAr?$AA?9?$AAF?$AAR?$AA?$AA@ 1005361c     LIBCMT:winapinls.obj
 0002:00010628       ??_C@_1M@GFMCHPE@?$AAh?$AAe?$AA?9?$AAI?$AAL?$AA?$AA@ 10053628     LIBCMT:winapinls.obj
 0002:00010634       ??_C@_1M@MHLPGNKM@?$AAh?$AAu?$AA?9?$AAH?$AAU?$AA?$AA@ 10053634     LIBCMT:winapinls.obj
 0002:00010640       ??_C@_1M@LPDDNNPN@?$AAi?$AAs?$AA?9?$AAI?$AAS?$AA?$AA@ 10053640     LIBCMT:winapinls.obj
 0002:0001064c       ??_C@_1M@MADIPODN@?$AAi?$AAt?$AA?9?$AAI?$AAT?$AA?$AA@ 1005364c     LIBCMT:winapinls.obj
 0002:00010658       ??_C@_1M@IHBJJGG@?$AAn?$AAl?$AA?9?$AAN?$AAL?$AA?$AA@ 10053658     LIBCMT:winapinls.obj
 0002:00010664       ??_C@_1M@EANAGDL@?$AAn?$AAb?$AA?9?$AAN?$AAO?$AA?$AA@ 10053664     LIBCMT:winapinls.obj
 0002:00010670       ??_C@_1M@NEIEMEGP@?$AAp?$AAl?$AA?9?$AAP?$AAL?$AA?$AA@ 10053670     LIBCMT:winapinls.obj
 0002:0001067c       ??_C@_1M@BOCFIGEP@?$AAp?$AAt?$AA?9?$AAB?$AAR?$AA?$AA@ 1005367c     LIBCMT:winapinls.obj
 0002:00010688       ??_C@_1M@IMPFOPBG@?$AAr?$AAo?$AA?9?$AAR?$AAO?$AA?$AA@ 10053688     LIBCMT:winapinls.obj
 0002:00010694       ??_C@_1M@IDNNEJMM@?$AAr?$AAu?$AA?9?$AAR?$AAU?$AA?$AA@ 10053694     LIBCMT:winapinls.obj
 0002:000106a0       ??_C@_1M@LILEEOGM@?$AAh?$AAr?$AA?9?$AAH?$AAR?$AA?$AA@ 100536a0     LIBCMT:winapinls.obj
 0002:000106ac       ??_C@_1M@FKIFEHPB@?$AAs?$AAk?$AA?9?$AAS?$AAK?$AA?$AA@ 100536ac     LIBCMT:winapinls.obj
 0002:000106b8       ??_C@_1M@LJMAMNPJ@?$AAs?$AAq?$AA?9?$AAA?$AAL?$AA?$AA@ 100536b8     LIBCMT:winapinls.obj
 0002:000106c4       ??_C@_1M@GIAKDKJK@?$AAs?$AAv?$AA?9?$AAS?$AAE?$AA?$AA@ 100536c4     LIBCMT:winapinls.obj
 0002:000106d0       ??_C@_1M@MKJKIKCL@?$AAt?$AAh?$AA?9?$AAT?$AAH?$AA?$AA@ 100536d0     LIBCMT:winapinls.obj
 0002:000106dc       ??_C@_1M@MFLCCMPB@?$AAt?$AAr?$AA?9?$AAT?$AAR?$AA?$AA@ 100536dc     LIBCMT:winapinls.obj
 0002:000106e8       ??_C@_1M@OIJHDKJN@?$AAu?$AAr?$AA?9?$AAP?$AAK?$AA?$AA@ 100536e8     LIBCMT:winapinls.obj
 0002:000106f4       ??_C@_1M@LHIPCIEK@?$AAi?$AAd?$AA?9?$AAI?$AAD?$AA?$AA@ 100536f4     LIBCMT:winapinls.obj
 0002:00010700       ??_C@_1M@MFMOBGI@?$AAu?$AAk?$AA?9?$AAU?$AAA?$AA?$AA@ 10053700     LIBCMT:winapinls.obj
 0002:0001070c       ??_C@_1M@OBGLJIPL@?$AAb?$AAe?$AA?9?$AAB?$AAY?$AA?$AA@ 1005370c     LIBCMT:winapinls.obj
 0002:00010718       ??_C@_1M@BCFAJEAD@?$AAs?$AAl?$AA?9?$AAS?$AAI?$AA?$AA@ 10053718     LIBCMT:winapinls.obj
 0002:00010724       ??_C@_1M@FKFFEDDN@?$AAe?$AAt?$AA?9?$AAE?$AAE?$AA?$AA@ 10053724     LIBCMT:winapinls.obj
 0002:00010730       ??_C@_1M@KGKKAACI@?$AAl?$AAv?$AA?9?$AAL?$AAV?$AA?$AA@ 10053730     LIBCMT:winapinls.obj
 0002:0001073c       ??_C@_1M@IFGBIJO@?$AAl?$AAt?$AA?9?$AAL?$AAT?$AA?$AA@ 1005373c     LIBCMT:winapinls.obj
 0002:00010748       ??_C@_1M@FGEAHEDM@?$AAf?$AAa?$AA?9?$AAI?$AAR?$AA?$AA@ 10053748     LIBCMT:winapinls.obj
 0002:00010754       ??_C@_1M@KBMAIBFN@?$AAv?$AAi?$AA?9?$AAV?$AAN?$AA?$AA@ 10053754     LIBCMT:winapinls.obj
 0002:00010760       ??_C@_1M@GPCBKDJK@?$AAh?$AAy?$AA?9?$AAA?$AAM?$AA?$AA@ 10053760     LIBCMT:winapinls.obj
 0002:0001076c       ??_C@_1BG@BECMDDJB@?$AAa?$AAz?$AA?9?$AAA?$AAZ?$AA?9?$AAL?$AAa?$AAt?$AAn?$AA?$AA@ 1005376c     LIBCMT:winapinls.obj
 0002:00010784       ??_C@_1M@MAOFCAEA@?$AAe?$AAu?$AA?9?$AAE?$AAS?$AA?$AA@ 10053784     LIBCMT:winapinls.obj
 0002:00010790       ??_C@_1M@IGHABKPI@?$AAm?$AAk?$AA?9?$AAM?$AAK?$AA?$AA@ 10053790     LIBCMT:winapinls.obj
 0002:0001079c       ??_C@_1M@IAIGNEJG@?$AAt?$AAn?$AA?9?$AAZ?$AAA?$AA?$AA@ 1005379c     LIBCMT:winapinls.obj
 0002:000107a8       ??_C@_1M@IIJCOJFA@?$AAx?$AAh?$AA?9?$AAZ?$AAA?$AA?$AA@ 100537a8     LIBCMT:winapinls.obj
 0002:000107b4       ??_C@_1M@LGPJHNJH@?$AAz?$AAu?$AA?9?$AAZ?$AAA?$AA?$AA@ 100537b4     LIBCMT:winapinls.obj
 0002:000107c0       ??_C@_1M@HOKAOIO@?$AAa?$AAf?$AA?9?$AAZ?$AAA?$AA?$AA@ 100537c0     LIBCMT:winapinls.obj
 0002:000107cc       ??_C@_1M@DPCLHLIE@?$AAk?$AAa?$AA?9?$AAG?$AAE?$AA?$AA@ 100537cc     LIBCMT:winapinls.obj
 0002:000107d8       ??_C@_1M@BLKMHJBI@?$AAf?$AAo?$AA?9?$AAF?$AAO?$AA?$AA@ 100537d8     LIBCMT:winapinls.obj
 0002:000107e4       ??_C@_1M@LGGJAPPB@?$AAh?$AAi?$AA?9?$AAI?$AAN?$AA?$AA@ 100537e4     LIBCMT:winapinls.obj
 0002:000107f0       ??_C@_1M@FIKPIHFE@?$AAm?$AAt?$AA?9?$AAM?$AAT?$AA?$AA@ 100537f0     LIBCMT:winapinls.obj
 0002:000107fc       ??_C@_1M@HEGGPBFA@?$AAs?$AAe?$AA?9?$AAN?$AAO?$AA?$AA@ 100537fc     LIBCMT:winapinls.obj
 0002:00010808       ??_C@_1M@EIBJEEPA@?$AAm?$AAs?$AA?9?$AAM?$AAY?$AA?$AA@ 10053808     LIBCMT:winapinls.obj
 0002:00010814       ??_C@_1M@FHLBGMPP@?$AAk?$AAk?$AA?9?$AAK?$AAZ?$AA?$AA@ 10053814     LIBCMT:winapinls.obj
 0002:00010820       ??_C@_1M@NGJJLCGI@?$AAk?$AAy?$AA?9?$AAK?$AAG?$AA?$AA@ 10053820     LIBCMT:winapinls.obj
 0002:0001082c       ??_C@_1M@GIENNBFC@?$AAs?$AAw?$AA?9?$AAK?$AAE?$AA?$AA@ 1005382c     LIBCMT:winapinls.obj
 0002:00010838       ??_C@_1BG@NDGMJIMJ@?$AAu?$AAz?$AA?9?$AAU?$AAZ?$AA?9?$AAL?$AAa?$AAt?$AAn?$AA?$AA@ 10053838     LIBCMT:winapinls.obj
 0002:00010850       ??_C@_1M@IDCCIHBC@?$AAt?$AAt?$AA?9?$AAR?$AAU?$AA?$AA@ 10053850     LIBCMT:winapinls.obj
 0002:0001085c       ??_C@_1M@LOICPMOJ@?$AAb?$AAn?$AA?9?$AAI?$AAN?$AA?$AA@ 1005385c     LIBCMT:winapinls.obj
 0002:00010868       ??_C@_1M@KPKKNEAH@?$AAp?$AAa?$AA?9?$AAI?$AAN?$AA?$AA@ 10053868     LIBCMT:winapinls.obj
 0002:00010874       ??_C@_1M@PJGPPBOG@?$AAg?$AAu?$AA?9?$AAI?$AAN?$AA?$AA@ 10053874     LIBCMT:winapinls.obj
 0002:00010880       ??_C@_1M@KMKMOPHI@?$AAt?$AAa?$AA?9?$AAI?$AAN?$AA?$AA@ 10053880     LIBCMT:winapinls.obj
 0002:0001088c       ??_C@_1M@KFEHEPAC@?$AAt?$AAe?$AA?9?$AAI?$AAN?$AA?$AA@ 1005388c     LIBCMT:winapinls.obj
 0002:00010898       ??_C@_1M@CDCLMGHI@?$AAk?$AAn?$AA?9?$AAI?$AAN?$AA?$AA@ 10053898     LIBCMT:winapinls.obj
 0002:000108a4       ??_C@_1M@MIODLDKF@?$AAm?$AAl?$AA?9?$AAI?$AAN?$AA?$AA@ 100538a4     LIBCMT:winapinls.obj
 0002:000108b0       ??_C@_1M@PBIEACPO@?$AAm?$AAr?$AA?9?$AAI?$AAN?$AA?$AA@ 100538b0     LIBCMT:winapinls.obj
 0002:000108bc       ??_C@_1M@NIDEAGPH@?$AAs?$AAa?$AA?9?$AAI?$AAN?$AA?$AA@ 100538bc     LIBCMT:winapinls.obj
 0002:000108c8       ??_C@_1M@FHIHCBIO@?$AAm?$AAn?$AA?9?$AAM?$AAN?$AA?$AA@ 100538c8     LIBCMT:winapinls.obj
 0002:000108d4       ??_C@_1M@JAIJPENP@?$AAc?$AAy?$AA?9?$AAG?$AAB?$AA?$AA@ 100538d4     LIBCMT:winapinls.obj
 0002:000108e0       ??_C@_1M@PHGFBEPN@?$AAg?$AAl?$AA?9?$AAE?$AAS?$AA?$AA@ 100538e0     LIBCMT:winapinls.obj
 0002:000108ec       ??_C@_1O@KPIPDNCP@?$AAk?$AAo?$AAk?$AA?9?$AAI?$AAN?$AA?$AA@ 100538ec     LIBCMT:winapinls.obj
 0002:000108fc       ??_C@_1O@KNHJLDJA@?$AAs?$AAy?$AAr?$AA?9?$AAS?$AAY?$AA?$AA@ 100538fc     LIBCMT:winapinls.obj
 0002:0001090c       ??_C@_1O@MKEKBLAH@?$AAd?$AAi?$AAv?$AA?9?$AAM?$AAV?$AA?$AA@ 1005390c     LIBCMT:winapinls.obj
 0002:0001091c       ??_C@_1O@OHDCKDDF@?$AAq?$AAu?$AAz?$AA?9?$AAB?$AAO?$AA?$AA@ 1005391c     LIBCMT:winapinls.obj
 0002:0001092c       ??_C@_1M@LEPJNLFD@?$AAn?$AAs?$AA?9?$AAZ?$AAA?$AA?$AA@ 1005392c     LIBCMT:winapinls.obj
 0002:00010938       ??_C@_1M@OMLEIIJB@?$AAm?$AAi?$AA?9?$AAN?$AAZ?$AA?$AA@ 10053938     LIBCMT:winapinls.obj
 0002:00010944       ??_C@_1M@PMPEAILG@?$AAa?$AAr?$AA?9?$AAI?$AAQ?$AA?$AA@ 10053944     LIBCMT:winapinls.obj
 0002:00010950       ??_C@_1M@CNKPNOEE@?$AAd?$AAe?$AA?9?$AAC?$AAH?$AA?$AA@ 10053950     LIBCMT:winapinls.obj
 0002:0001095c       ??_C@_1M@LKMGMLKO@?$AAe?$AAn?$AA?9?$AAG?$AAB?$AA?$AA@ 1005395c     LIBCMT:winapinls.obj
 0002:00010968       ??_C@_1M@PGKJFFGL@?$AAe?$AAs?$AA?9?$AAM?$AAX?$AA?$AA@ 10053968     LIBCMT:winapinls.obj
 0002:00010974       ??_C@_1M@DNNANBDC@?$AAf?$AAr?$AA?9?$AAB?$AAE?$AA?$AA@ 10053974     LIBCMT:winapinls.obj
 0002:00010980       ??_C@_1M@HLGMDFHM@?$AAi?$AAt?$AA?9?$AAC?$AAH?$AA?$AA@ 10053980     LIBCMT:winapinls.obj
 0002:0001098c       ??_C@_1M@CLLBGJH@?$AAn?$AAl?$AA?9?$AAB?$AAE?$AA?$AA@ 1005398c     LIBCMT:winapinls.obj
 0002:00010998       ??_C@_1M@BODBOGLF@?$AAn?$AAn?$AA?9?$AAN?$AAO?$AA?$AA@ 10053998     LIBCMT:winapinls.obj
 0002:000109a4       ??_C@_1M@HFFAHKAD@?$AAp?$AAt?$AA?9?$AAP?$AAT?$AA?$AA@ 100539a4     LIBCMT:winapinls.obj
 0002:000109b0       ??_C@_1BG@LNOAKHIE@?$AAs?$AAr?$AA?9?$AAS?$AAP?$AA?9?$AAL?$AAa?$AAt?$AAn?$AA?$AA@ 100539b0     LIBCMT:winapinls.obj
 0002:000109c8       ??_C@_1M@HBMHBGAK@?$AAs?$AAv?$AA?9?$AAF?$AAI?$AA?$AA@ 100539c8     LIBCMT:winapinls.obj
 0002:000109d4       ??_C@_1BG@DGCJGJBE@?$AAa?$AAz?$AA?9?$AAA?$AAZ?$AA?9?$AAC?$AAy?$AAr?$AAl?$AA?$AA@ 100539d4     LIBCMT:winapinls.obj
 0002:000109ec       ??_C@_1M@KEJDAAHB@?$AAs?$AAe?$AA?9?$AAS?$AAE?$AA?$AA@ 100539ec     LIBCMT:winapinls.obj
 0002:000109f8       ??_C@_1M@HEIBJJAD@?$AAm?$AAs?$AA?9?$AAB?$AAN?$AA?$AA@ 100539f8     LIBCMT:winapinls.obj
 0002:00010a04       ??_C@_1BG@PBGJMCEM@?$AAu?$AAz?$AA?9?$AAU?$AAZ?$AA?9?$AAC?$AAy?$AAr?$AAl?$AA?$AA@ 10053a04     LIBCMT:winapinls.obj
 0002:00010a1c       ??_C@_1O@LAOBCMDF@?$AAq?$AAu?$AAz?$AA?9?$AAE?$AAC?$AA?$AA@ 10053a1c     LIBCMT:winapinls.obj
 0002:00010a2c       ??_C@_1M@POEEMAIO@?$AAa?$AAr?$AA?9?$AAE?$AAG?$AA?$AA@ 10053a2c     LIBCMT:winapinls.obj
 0002:00010a38       ??_C@_1M@EFAKDEDL@?$AAz?$AAh?$AA?9?$AAH?$AAK?$AA?$AA@ 10053a38     LIBCMT:winapinls.obj
 0002:00010a44       ??_C@_1M@HKKIJHGI@?$AAd?$AAe?$AA?9?$AAA?$AAT?$AA?$AA@ 10053a44     LIBCMT:winapinls.obj
 0002:00010a50       ??_C@_1M@KBFBEHJF@?$AAe?$AAn?$AA?9?$AAA?$AAU?$AA?$AA@ 10053a50     LIBCMT:winapinls.obj
 0002:00010a5c       ??_C@_1M@MNPLFAAH@?$AAe?$AAs?$AA?9?$AAE?$AAS?$AA?$AA@ 10053a5c     LIBCMT:winapinls.obj
 0002:00010a68       ??_C@_1M@HJOOJFMA@?$AAf?$AAr?$AA?9?$AAC?$AAA?$AA?$AA@ 10053a68     LIBCMT:winapinls.obj
 0002:00010a74       ??_C@_1BG@JPOFPNAB@?$AAs?$AAr?$AA?9?$AAS?$AAP?$AA?9?$AAC?$AAy?$AAr?$AAl?$AA?$AA@ 10053a74     LIBCMT:winapinls.obj
 0002:00010a8c       ??_C@_1M@LNFOCMOB@?$AAs?$AAe?$AA?9?$AAF?$AAI?$AA?$AA@ 10053a8c     LIBCMT:winapinls.obj
 0002:00010a98       ??_C@_1O@MGJBOAMB@?$AAq?$AAu?$AAz?$AA?9?$AAP?$AAE?$AA?$AA@ 10053a98     LIBCMT:winapinls.obj
 0002:00010aa8       ??_C@_1M@GJINLBOK@?$AAa?$AAr?$AA?9?$AAL?$AAY?$AA?$AA@ 10053aa8     LIBCMT:winapinls.obj
 0002:00010ab4       ??_C@_1M@GGMNHJNL@?$AAz?$AAh?$AA?9?$AAS?$AAG?$AA?$AA@ 10053ab4     LIBCMT:winapinls.obj
 0002:00010ac0       ??_C@_1M@HOIKODND@?$AAd?$AAe?$AA?9?$AAL?$AAU?$AA?$AA@ 10053ac0     LIBCMT:winapinls.obj
 0002:00010acc       ??_C@_1M@DDOCCGFG@?$AAe?$AAn?$AA?9?$AAC?$AAA?$AA?$AA@ 10053acc     LIBCMT:winapinls.obj
 0002:00010ad8       ??_C@_1M@BNOEMJLF@?$AAe?$AAs?$AA?9?$AAG?$AAT?$AA?$AA@ 10053ad8     LIBCMT:winapinls.obj
 0002:00010ae4       ??_C@_1M@EOGNKEK@?$AAf?$AAr?$AA?9?$AAC?$AAH?$AA?$AA@ 10053ae4     LIBCMT:winapinls.obj
 0002:00010af0       ??_C@_1M@FLIDJFHL@?$AAh?$AAr?$AA?9?$AAB?$AAA?$AA?$AA@ 10053af0     LIBCMT:winapinls.obj
 0002:00010afc       ??_C@_1O@FMCELNAJ@?$AAs?$AAm?$AAj?$AA?9?$AAN?$AAO?$AA?$AA@ 10053afc     LIBCMT:winapinls.obj
 0002:00010b0c       ??_C@_1M@JHGLJMGJ@?$AAa?$AAr?$AA?9?$AAD?$AAZ?$AA?$AA@ 10053b0c     LIBCMT:winapinls.obj
 0002:00010b18       ??_C@_1M@JKKFDCNP@?$AAz?$AAh?$AA?9?$AAM?$AAO?$AA?$AA@ 10053b18     LIBCMT:winapinls.obj
 0002:00010b24       ??_C@_1M@GEEFALPE@?$AAd?$AAe?$AA?9?$AAL?$AAI?$AA?$AA@ 10053b24     LIBCMT:winapinls.obj
 0002:00010b30       ??_C@_1M@IGEOFBG@?$AAe?$AAn?$AA?9?$AAN?$AAZ?$AA?$AA@ 10053b30     LIBCMT:winapinls.obj
 0002:00010b3c       ??_C@_1M@KDBONEHP@?$AAe?$AAs?$AA?9?$AAC?$AAR?$AA?$AA@ 10053b3c     LIBCMT:winapinls.obj
 0002:00010b48       ??_C@_1M@FHMDOHNN@?$AAf?$AAr?$AA?9?$AAL?$AAU?$AA?$AA@ 10053b48     LIBCMT:winapinls.obj
 0002:00010b54       ??_C@_1BG@NFKKMAFG@?$AAb?$AAs?$AA?9?$AAB?$AAA?$AA?9?$AAL?$AAa?$AAt?$AAn?$AA?$AA@ 10053b54     LIBCMT:winapinls.obj
 0002:00010b6c       ??_C@_1O@IMNBEMCI@?$AAs?$AAm?$AAj?$AA?9?$AAS?$AAE?$AA?$AA@ 10053b6c     LIBCMT:winapinls.obj
 0002:00010b7c       ??_C@_1M@DHHMBNDP@?$AAa?$AAr?$AA?9?$AAM?$AAA?$AA?$AA@ 10053b7c     LIBCMT:winapinls.obj
 0002:00010b88       ??_C@_1M@BNBLJCGH@?$AAe?$AAn?$AA?9?$AAI?$AAE?$AA?$AA@ 10053b88     LIBCMT:winapinls.obj
 0002:00010b94       ??_C@_1M@GEPAFMDL@?$AAe?$AAs?$AA?9?$AAP?$AAA?$AA?$AA@ 10053b94     LIBCMT:winapinls.obj
 0002:00010ba0       ??_C@_1M@OJONDMDL@?$AAf?$AAr?$AA?9?$AAM?$AAC?$AA?$AA@ 10053ba0     LIBCMT:winapinls.obj
 0002:00010bac       ??_C@_1BG@OBCNFJB@?$AAs?$AAr?$AA?9?$AAB?$AAA?$AA?9?$AAL?$AAa?$AAt?$AAn?$AA?$AA@ 10053bac     LIBCMT:winapinls.obj
 0002:00010bc4       ??_C@_1O@KEMEEGPO@?$AAs?$AAm?$AAa?$AA?9?$AAN?$AAO?$AA?$AA@ 10053bc4     LIBCMT:winapinls.obj
 0002:00010bd4       ??_C@_1M@ELMGFODK@?$AAa?$AAr?$AA?9?$AAT?$AAN?$AA?$AA@ 10053bd4     LIBCMT:winapinls.obj
 0002:00010be0       ??_C@_1M@BHDLHFAF@?$AAe?$AAn?$AA?9?$AAZ?$AAA?$AA?$AA@ 10053be0     LIBCMT:winapinls.obj
 0002:00010bec       ??_C@_1M@BMGIGLIF@?$AAe?$AAs?$AA?9?$AAD?$AAO?$AA?$AA@ 10053bec     LIBCMT:winapinls.obj
 0002:00010bf8       ??_C@_1BG@CMBHIPBE@?$AAs?$AAr?$AA?9?$AAB?$AAA?$AA?9?$AAC?$AAy?$AAr?$AAl?$AA?$AA@ 10053bf8     LIBCMT:winapinls.obj
 0002:00010c10       ??_C@_1O@HEDBLHNP@?$AAs?$AAm?$AAa?$AA?9?$AAS?$AAE?$AA?$AA@ 10053c10     LIBCMT:winapinls.obj
 0002:00010c20       ??_C@_1M@DAGCADIM@?$AAa?$AAr?$AA?9?$AAO?$AAM?$AA?$AA@ 10053c20     LIBCMT:winapinls.obj
 0002:00010c2c       ??_C@_1M@FODLMICG@?$AAe?$AAn?$AA?9?$AAJ?$AAM?$AA?$AA@ 10053c2c     LIBCMT:winapinls.obj
 0002:00010c38       ??_C@_1M@DNMLCIHB@?$AAe?$AAs?$AA?9?$AAV?$AAE?$AA?$AA@ 10053c38     LIBCMT:winapinls.obj
 0002:00010c44       ??_C@_1O@EOKHMKJK@?$AAs?$AAm?$AAs?$AA?9?$AAF?$AAI?$AA?$AA@ 10053c44     LIBCMT:winapinls.obj
 0002:00010c54       ??_C@_1M@CAFJMKOF@?$AAa?$AAr?$AA?9?$AAY?$AAE?$AA?$AA@ 10053c54     LIBCMT:winapinls.obj
 0002:00010c60       ??_C@_1M@CBFHIJLI@?$AAe?$AAn?$AA?9?$AAC?$AAB?$AA?$AA@ 10053c60     LIBCMT:winapinls.obj
 0002:00010c6c       ??_C@_1M@BGNFLDN@?$AAe?$AAs?$AA?9?$AAC?$AAO?$AA?$AA@ 10053c6c     LIBCMT:winapinls.obj
 0002:00010c78       ??_C@_1O@JMPHMAMC@?$AAs?$AAm?$AAn?$AA?9?$AAF?$AAI?$AA?$AA@ 10053c78     LIBCMT:winapinls.obj
 0002:00010c88       ??_C@_1M@JLANABKE@?$AAa?$AAr?$AA?9?$AAS?$AAY?$AA?$AA@ 10053c88     LIBCMT:winapinls.obj
 0002:00010c94       ??_C@_1M@HPKGCFGN@?$AAe?$AAn?$AA?9?$AAB?$AAZ?$AA?$AA@ 10053c94     LIBCMT:winapinls.obj
 0002:00010ca0       ??_C@_1M@OLJCMLGM@?$AAe?$AAs?$AA?9?$AAP?$AAE?$AA?$AA@ 10053ca0     LIBCMT:winapinls.obj
 0002:00010cac       ??_C@_1M@MKKGFKLE@?$AAa?$AAr?$AA?9?$AAJ?$AAO?$AA?$AA@ 10053cac     LIBCMT:winapinls.obj
 0002:00010cb8       ??_C@_1M@EKPGLDNI@?$AAe?$AAn?$AA?9?$AAT?$AAT?$AA?$AA@ 10053cb8     LIBCMT:winapinls.obj
 0002:00010cc4       ??_C@_1M@OONGHFHE@?$AAe?$AAs?$AA?9?$AAA?$AAR?$AA?$AA@ 10053cc4     LIBCMT:winapinls.obj
 0002:00010cd0       ??_C@_1M@OOJFGBHE@?$AAa?$AAr?$AA?9?$AAL?$AAB?$AA?$AA@ 10053cd0     LIBCMT:winapinls.obj
 0002:00010cdc       ??_C@_1M@GCEJHNEG@?$AAe?$AAn?$AA?9?$AAZ?$AAW?$AA?$AA@ 10053cdc     LIBCMT:winapinls.obj
 0002:00010ce8       ??_C@_1M@JNOCAHJI@?$AAe?$AAs?$AA?9?$AAE?$AAC?$AA?$AA@ 10053ce8     LIBCMT:winapinls.obj
 0002:00010cf4       ??_C@_1M@JEFHPGGB@?$AAa?$AAr?$AA?9?$AAK?$AAW?$AA?$AA@ 10053cf4     LIBCMT:winapinls.obj
 0002:00010d00       ??_C@_1M@MLKIBJOJ@?$AAe?$AAn?$AA?9?$AAP?$AAH?$AA?$AA@ 10053d00     LIBCMT:winapinls.obj
 0002:00010d0c       ??_C@_1M@BDNIPEND@?$AAe?$AAs?$AA?9?$AAC?$AAL?$AA?$AA@ 10053d0c     LIBCMT:winapinls.obj
 0002:00010d18       ??_C@_1M@MPNMEKBD@?$AAa?$AAr?$AA?9?$AAA?$AAE?$AA?$AA@ 10053d18     LIBCMT:winapinls.obj
 0002:00010d24       ??_C@_1M@KBJALCPI@?$AAe?$AAs?$AA?9?$AAU?$AAY?$AA?$AA@ 10053d24     LIBCMT:winapinls.obj
 0002:00010d30       ??_C@_1M@LLCCOAGA@?$AAa?$AAr?$AA?9?$AAB?$AAH?$AA?$AA@ 10053d30     LIBCMT:winapinls.obj
 0002:00010d3c       ??_C@_1M@PBFNCDEL@?$AAe?$AAs?$AA?9?$AAP?$AAY?$AA?$AA@ 10053d3c     LIBCMT:winapinls.obj
 0002:00010d48       ??_C@_1M@EDGINPNP@?$AAa?$AAr?$AA?9?$AAQ?$AAA?$AA?$AA@ 10053d48     LIBCMT:winapinls.obj
 0002:00010d54       ??_C@_1M@MKDBIIJI@?$AAe?$AAs?$AA?9?$AAB?$AAO?$AA?$AA@ 10053d54     LIBCMT:winapinls.obj
 0002:00010d60       ??_C@_1M@CPKKEBLD@?$AAe?$AAs?$AA?9?$AAS?$AAV?$AA?$AA@ 10053d60     LIBCMT:winapinls.obj
 0002:00010d6c       ??_C@_1M@NDBGMMJL@?$AAe?$AAs?$AA?9?$AAH?$AAN?$AA?$AA@ 10053d6c     LIBCMT:winapinls.obj
 0002:00010d78       ??_C@_1M@JIJIBHDP@?$AAe?$AAs?$AA?9?$AAN?$AAI?$AA?$AA@ 10053d78     LIBCMT:winapinls.obj
 0002:00010d84       ??_C@_1M@CGFMKEEK@?$AAe?$AAs?$AA?9?$AAP?$AAR?$AA?$AA@ 10053d84     LIBCMT:winapinls.obj
 0002:00010d90       ??_C@_1O@ICJHKIIK@?$AAz?$AAh?$AA?9?$AAC?$AAH?$AAT?$AA?$AA@ 10053d90     LIBCMT:winapinls.obj
 0002:00010da0       ??_C@_15CLNEJCE@?$AAs?$AAr?$AA?$AA@ 10053da0     LIBCMT:winapinls.obj
 0002:00010da8       ??_C@_1M@KAHEKEIG@?$AAa?$AAf?$AA?9?$AAz?$AAa?$AA?$AA@ 10053da8     LIBCMT:winapinls.obj
 0002:00010db4       ??_C@_1M@GIECOABL@?$AAa?$AAr?$AA?9?$AAa?$AAe?$AA?$AA@ 10053db4     LIBCMT:winapinls.obj
 0002:00010dc0       ??_C@_1M@BMLMEKGI@?$AAa?$AAr?$AA?9?$AAb?$AAh?$AA?$AA@ 10053dc0     LIBCMT:winapinls.obj
 0002:00010dcc       ??_C@_1M@DAPFDGGB@?$AAa?$AAr?$AA?9?$AAd?$AAz?$AA?$AA@ 10053dcc     LIBCMT:winapinls.obj
 0002:00010dd8       ??_C@_1M@FJNKGKIG@?$AAa?$AAr?$AA?9?$AAe?$AAg?$AA?$AA@ 10053dd8     LIBCMT:winapinls.obj
 0002:00010de4       ??_C@_1M@FLGKKCLO@?$AAa?$AAr?$AA?9?$AAi?$AAq?$AA?$AA@ 10053de4     LIBCMT:winapinls.obj
 0002:00010df0       ??_C@_1M@GNDIPALM@?$AAa?$AAr?$AA?9?$AAj?$AAo?$AA?$AA@ 10053df0     LIBCMT:winapinls.obj
 0002:00010dfc       ??_C@_1M@DDMJFMGJ@?$AAa?$AAr?$AA?9?$AAk?$AAw?$AA?$AA@ 10053dfc     LIBCMT:winapinls.obj
 0002:00010e08       ??_C@_1M@EJALMLHM@?$AAa?$AAr?$AA?9?$AAl?$AAb?$AA?$AA@ 10053e08     LIBCMT:winapinls.obj
 0002:00010e14       ??_C@_1M@MOBDBLOC@?$AAa?$AAr?$AA?9?$AAl?$AAy?$AA?$AA@ 10053e14     LIBCMT:winapinls.obj
 0002:00010e20       ??_C@_1M@JAOCLHDH@?$AAa?$AAr?$AA?9?$AAm?$AAa?$AA?$AA@ 10053e20     LIBCMT:winapinls.obj
 0002:00010e2c       ??_C@_1M@JHPMKJIE@?$AAa?$AAr?$AA?9?$AAo?$AAm?$AA?$AA@ 10053e2c     LIBCMT:winapinls.obj
 0002:00010e38       ??_C@_1M@OEPGHFNH@?$AAa?$AAr?$AA?9?$AAq?$AAa?$AA?$AA@ 10053e38     LIBCMT:winapinls.obj
 0002:00010e44       ??_C@_1M@KJDONENM@?$AAa?$AAr?$AA?9?$AAs?$AAa?$AA?$AA@ 10053e44     LIBCMT:winapinls.obj
 0002:00010e50       ??_C@_1M@DMJDKLKM@?$AAa?$AAr?$AA?9?$AAs?$AAy?$AA?$AA@ 10053e50     LIBCMT:winapinls.obj
 0002:00010e5c       ??_C@_1M@OMFIPEDC@?$AAa?$AAr?$AA?9?$AAt?$AAn?$AA?$AA@ 10053e5c     LIBCMT:winapinls.obj
 0002:00010e68       ??_C@_1M@IHMHGAON@?$AAa?$AAr?$AA?9?$AAy?$AAe?$AA?$AA@ 10053e68     LIBCMT:winapinls.obj
 0002:00010e74       ??_C@_1BG@KDCPGJGB@?$AAa?$AAz?$AA?9?$AAa?$AAz?$AA?9?$AAc?$AAy?$AAr?$AAl?$AA?$AA@ 10053e74     LIBCMT:winapinls.obj
 0002:00010e8c       ??_C@_1BG@IBCKDDOE@?$AAa?$AAz?$AA?9?$AAa?$AAz?$AA?9?$AAl?$AAa?$AAt?$AAn?$AA?$AA@ 10053e8c     LIBCMT:winapinls.obj
 0002:00010ea4       ??_C@_1M@EGPFDCPD@?$AAb?$AAe?$AA?9?$AAb?$AAy?$AA?$AA@ 10053ea4     LIBCMT:winapinls.obj
 0002:00010eb0       ??_C@_1M@PCMGMCGC@?$AAb?$AAg?$AA?9?$AAb?$AAg?$AA?$AA@ 10053eb0     LIBCMT:winapinls.obj
 0002:00010ebc       ??_C@_1M@BJBMFGOB@?$AAb?$AAn?$AA?9?$AAi?$AAn?$AA?$AA@ 10053ebc     LIBCMT:winapinls.obj
 0002:00010ec8       ??_C@_1BG@EAKMMACD@?$AAb?$AAs?$AA?9?$AAb?$AAa?$AA?9?$AAl?$AAa?$AAt?$AAn?$AA?$AA@ 10053ec8     LIBCMT:winapinls.obj
 0002:00010ee0       ??_C@_1M@KGADAODK@?$AAc?$AAa?$AA?9?$AAe?$AAs?$AA?$AA@ 10053ee0     LIBCMT:winapinls.obj
 0002:00010eec       ??_C@_1M@COAJPDHI@?$AAc?$AAs?$AA?9?$AAc?$AAz?$AA?$AA@ 10053eec     LIBCMT:winapinls.obj
 0002:00010ef8       ??_C@_1M@DHBHFONH@?$AAc?$AAy?$AA?9?$AAg?$AAb?$AA?$AA@ 10053ef8     LIBCMT:winapinls.obj
 0002:00010f04       ??_C@_1M@IMGKELGA@?$AAd?$AAa?$AA?9?$AAd?$AAk?$AA?$AA@ 10053f04     LIBCMT:winapinls.obj
 0002:00010f10       ??_C@_1M@NNDGDNGA@?$AAd?$AAe?$AA?9?$AAa?$AAt?$AA?$AA@ 10053f10     LIBCMT:winapinls.obj
 0002:00010f1c       ??_C@_1M@IKDBHEEM@?$AAd?$AAe?$AA?9?$AAc?$AAh?$AA?$AA@ 10053f1c     LIBCMT:winapinls.obj
 0002:00010f28       ??_C@_1M@GFFOJMCJ@?$AAd?$AAe?$AA?9?$AAd?$AAe?$AA?$AA@ 10053f28     LIBCMT:winapinls.obj
 0002:00010f34       ??_C@_1M@MDNLKBPM@?$AAd?$AAe?$AA?9?$AAl?$AAi?$AA?$AA@ 10053f34     LIBCMT:winapinls.obj
 0002:00010f40       ??_C@_1M@NJBEEJNL@?$AAd?$AAe?$AA?9?$AAl?$AAu?$AA?$AA@ 10053f40     LIBCMT:winapinls.obj
 0002:00010f4c       ??_C@_1O@GNNELBAP@?$AAd?$AAi?$AAv?$AA?9?$AAm?$AAv?$AA?$AA@ 10053f4c     LIBCMT:winapinls.obj
 0002:00010f5c       ??_C@_1M@EJLEOGAE@?$AAe?$AAl?$AA?9?$AAg?$AAr?$AA?$AA@ 10053f5c     LIBCMT:winapinls.obj
 0002:00010f68       ??_C@_1M@GMPONJN@?$AAe?$AAn?$AA?9?$AAa?$AAu?$AA?$AA@ 10053f68     LIBCMT:winapinls.obj
 0002:00010f74       ??_C@_1M@NIDIIPGF@?$AAe?$AAn?$AA?9?$AAb?$AAz?$AA?$AA@ 10053f74     LIBCMT:winapinls.obj
 0002:00010f80       ??_C@_1M@JEHMIMFO@?$AAe?$AAn?$AA?9?$AAc?$AAa?$AA?$AA@ 10053f80     LIBCMT:winapinls.obj
 0002:00010f8c       ??_C@_1M@IGMJCDLA@?$AAe?$AAn?$AA?9?$AAc?$AAb?$AA?$AA@ 10053f8c     LIBCMT:winapinls.obj
 0002:00010f98       ??_C@_1M@BNFIGBKG@?$AAe?$AAn?$AA?9?$AAg?$AAb?$AA?$AA@ 10053f98     LIBCMT:winapinls.obj
 0002:00010fa4       ??_C@_1M@LKIFDIGP@?$AAe?$AAn?$AA?9?$AAi?$AAe?$AA?$AA@ 10053fa4     LIBCMT:winapinls.obj
 0002:00010fb0       ??_C@_1M@PJKFGCCO@?$AAe?$AAn?$AA?9?$AAj?$AAm?$AA?$AA@ 10053fb0     LIBCMT:winapinls.obj
 0002:00010fbc       ??_C@_1M@KPPKEPBO@?$AAe?$AAn?$AA?9?$AAn?$AAz?$AA?$AA@ 10053fbc     LIBCMT:winapinls.obj
 0002:00010fc8       ??_C@_1M@GMDGLDOB@?$AAe?$AAn?$AA?9?$AAp?$AAh?$AA?$AA@ 10053fc8     LIBCMT:winapinls.obj
 0002:00010fd4       ??_C@_1M@ONGIBJNA@?$AAe?$AAn?$AA?9?$AAt?$AAt?$AA?$AA@ 10053fd4     LIBCMT:winapinls.obj
 0002:00010fe0       ??_C@_1M@LLODPCMM@?$AAe?$AAn?$AA?9?$AAu?$AAs?$AA?$AA@ 10053fe0     LIBCMT:winapinls.obj
 0002:00010fec       ??_C@_1M@LAKFNPAN@?$AAe?$AAn?$AA?9?$AAz?$AAa?$AA?$AA@ 10053fec     LIBCMT:winapinls.obj
 0002:00010ff8       ??_C@_1M@MFNHNHEO@?$AAe?$AAn?$AA?9?$AAz?$AAw?$AA?$AA@ 10053ff8     LIBCMT:winapinls.obj
 0002:00011004       ??_C@_1M@EJEINPHM@?$AAe?$AAs?$AA?9?$AAa?$AAr?$AA?$AA@ 10054004     LIBCMT:winapinls.obj
 0002:00011010       ??_C@_1M@GNKPCCJA@?$AAe?$AAs?$AA?9?$AAb?$AAo?$AA?$AA@ 10054010     LIBCMT:winapinls.obj
 0002:0001101c       ??_C@_1M@LEEGFONL@?$AAe?$AAs?$AA?9?$AAc?$AAl?$AA?$AA@ 1005401c     LIBCMT:winapinls.obj
 0002:00011028       ??_C@_1M@KGPDPBDF@?$AAe?$AAs?$AA?9?$AAc?$AAo?$AA?$AA@ 10054028     LIBCMT:winapinls.obj
 0002:00011034       ??_C@_1M@EIAHOHH@?$AAe?$AAs?$AA?9?$AAc?$AAr?$AA?$AA@ 10054034     LIBCMT:winapinls.obj
 0002:00011040       ??_C@_1M@LLPGMBIN@?$AAe?$AAs?$AA?9?$AAd?$AAo?$AA?$AA@ 10054040     LIBCMT:winapinls.obj
 0002:0001104c       ??_C@_1M@DKHMKNJA@?$AAe?$AAs?$AA?9?$AAe?$AAc?$AA?$AA@ 1005404c     LIBCMT:winapinls.obj
 0002:00011058       ??_C@_1M@GKGFPKAP@?$AAe?$AAs?$AA?9?$AAe?$AAs?$AA?$AA@ 10054058     LIBCMT:winapinls.obj
 0002:00011064       ??_C@_1M@LKHKGDLN@?$AAe?$AAs?$AA?9?$AAg?$AAt?$AA?$AA@ 10054064     LIBCMT:winapinls.obj
 0002:00011070       ??_C@_1M@HEIIGGJD@?$AAe?$AAs?$AA?9?$AAh?$AAn?$AA?$AA@ 10054070     LIBCMT:winapinls.obj
 0002:0001107c       ??_C@_1M@FBDHPPGD@?$AAe?$AAs?$AA?9?$AAm?$AAx?$AA?$AA@ 1005407c     LIBCMT:winapinls.obj
 0002:00011088       ??_C@_1M@DPAGLNDH@?$AAe?$AAs?$AA?9?$AAn?$AAi?$AA?$AA@ 10054088     LIBCMT:winapinls.obj
 0002:00011094       ??_C@_1M@MDGOPGDD@?$AAe?$AAs?$AA?9?$AAp?$AAa?$AA?$AA@ 10054094     LIBCMT:winapinls.obj
 0002:000110a0       ??_C@_1M@EMAMGBGE@?$AAe?$AAs?$AA?9?$AAp?$AAe?$AA?$AA@ 100540a0     LIBCMT:winapinls.obj
 0002:000110ac       ??_C@_1M@IBMCAOEC@?$AAe?$AAs?$AA?9?$AAp?$AAr?$AA?$AA@ 100540ac     LIBCMT:winapinls.obj
 0002:000110b8       ??_C@_1M@FGMDIJED@?$AAe?$AAs?$AA?9?$AAp?$AAy?$AA?$AA@ 100540b8     LIBCMT:winapinls.obj
 0002:000110c4       ??_C@_1M@IIDEOLLL@?$AAe?$AAs?$AA?9?$AAs?$AAv?$AA?$AA@ 100540c4     LIBCMT:winapinls.obj
 0002:000110d0       ??_C@_1M@GAOBIPA@?$AAe?$AAs?$AA?9?$AAu?$AAy?$AA?$AA@ 100540d0     LIBCMT:winapinls.obj
 0002:000110dc       ??_C@_1M@JKFFICHJ@?$AAe?$AAs?$AA?9?$AAv?$AAe?$AA?$AA@ 100540dc     LIBCMT:winapinls.obj
 0002:000110e8       ??_C@_1M@PNMLOJDF@?$AAe?$AAt?$AA?9?$AAe?$AAe?$AA?$AA@ 100540e8     LIBCMT:winapinls.obj
 0002:000110f4       ??_C@_1M@GHHLIKEI@?$AAe?$AAu?$AA?9?$AAe?$AAs?$AA?$AA@ 100540f4     LIBCMT:winapinls.obj
 0002:00011100       ??_C@_1M@PBNONODE@?$AAf?$AAa?$AA?9?$AAi?$AAr?$AA?$AA@ 10054100     LIBCMT:winapinls.obj
 0002:0001110c       ??_C@_1M@JEEHPMIL@?$AAf?$AAi?$AA?9?$AAf?$AAi?$AA?$AA@ 1005410c     LIBCMT:winapinls.obj
 0002:00011118       ??_C@_1M@LMDCNDBA@?$AAf?$AAo?$AA?9?$AAf?$AAo?$AA?$AA@ 10054118     LIBCMT:winapinls.obj
 0002:00011124       ??_C@_1M@JKEOHLDK@?$AAf?$AAr?$AA?9?$AAb?$AAe?$AA?$AA@ 10054124     LIBCMT:winapinls.obj
 0002:00011130       ??_C@_1M@NOHADPMI@?$AAf?$AAr?$AA?9?$AAc?$AAa?$AA?$AA@ 10054130     LIBCMT:winapinls.obj
 0002:0001113c       ??_C@_1M@KDHIHAEC@?$AAf?$AAr?$AA?9?$AAc?$AAh?$AA?$AA@ 1005413c     LIBCMT:winapinls.obj
 0002:00011148       ??_C@_1M@MMBBFGAK@?$AAf?$AAr?$AA?9?$AAf?$AAr?$AA?$AA@ 10054148     LIBCMT:winapinls.obj
 0002:00011154       ??_C@_1M@PAFNENNF@?$AAf?$AAr?$AA?9?$AAl?$AAu?$AA?$AA@ 10054154     LIBCMT:winapinls.obj
 0002:00011160       ??_C@_1M@EOHDJGDD@?$AAf?$AAr?$AA?9?$AAm?$AAc?$AA?$AA@ 10054160     LIBCMT:winapinls.obj
 0002:0001116c       ??_C@_1M@FAPLLOPF@?$AAg?$AAl?$AA?9?$AAe?$AAs?$AA?$AA@ 1005416c     LIBCMT:winapinls.obj
 0002:00011178       ??_C@_1M@FOPBFLOO@?$AAg?$AAu?$AA?9?$AAi?$AAn?$AA?$AA@ 10054178     LIBCMT:winapinls.obj
 0002:00011184       ??_C@_1M@KBMCINPM@?$AAh?$AAe?$AA?9?$AAi?$AAl?$AA?$AA@ 10054184     LIBCMT:winapinls.obj
 0002:00011190       ??_C@_1M@BBPHKFPJ@?$AAh?$AAi?$AA?9?$AAi?$AAn?$AA?$AA@ 10054190     LIBCMT:winapinls.obj
 0002:0001119c       ??_C@_1M@PMBNDPHD@?$AAh?$AAr?$AA?9?$AAb?$AAa?$AA?$AA@ 1005419c     LIBCMT:winapinls.obj
 0002:000111a8       ??_C@_1M@BPCKOEGE@?$AAh?$AAr?$AA?9?$AAh?$AAr?$AA?$AA@ 100541a8     LIBCMT:winapinls.obj
 0002:000111b4       ??_C@_1M@GACBMHKE@?$AAh?$AAu?$AA?9?$AAh?$AAu?$AA?$AA@ 100541b4     LIBCMT:winapinls.obj
 0002:000111c0       ??_C@_1M@MILPAJJC@?$AAh?$AAy?$AA?9?$AAa?$AAm?$AA?$AA@ 100541c0     LIBCMT:winapinls.obj
 0002:000111cc       ??_C@_1M@BABBICEC@?$AAi?$AAd?$AA?9?$AAi?$AAd?$AA?$AA@ 100541cc     LIBCMT:winapinls.obj
 0002:000111d8       ??_C@_1M@BIKNHHPF@?$AAi?$AAs?$AA?9?$AAi?$AAs?$AA?$AA@ 100541d8     LIBCMT:winapinls.obj
 0002:000111e4       ??_C@_1M@NMPCJPHE@?$AAi?$AAt?$AA?9?$AAc?$AAh?$AA?$AA@ 100541e4     LIBCMT:winapinls.obj
 0002:000111f0       ??_C@_1M@GHKGFEDF@?$AAi?$AAt?$AA?9?$AAi?$AAt?$AA?$AA@ 100541f0     LIBCMT:winapinls.obj
 0002:000111fc       ??_C@_1M@NIEJCJJA@?$AAj?$AAa?$AA?9?$AAj?$AAp?$AA?$AA@ 100541fc     LIBCMT:winapinls.obj
 0002:00011208       ??_C@_1M@JILFNBIM@?$AAk?$AAa?$AA?9?$AAg?$AAe?$AA?$AA@ 10054208     LIBCMT:winapinls.obj
 0002:00011214       ??_C@_1M@PACPMGPH@?$AAk?$AAk?$AA?9?$AAk?$AAz?$AA?$AA@ 10054214     LIBCMT:winapinls.obj
 0002:00011220       ??_C@_1M@IELFGMHA@?$AAk?$AAn?$AA?9?$AAi?$AAn?$AA?$AA@ 10054220     LIBCMT:winapinls.obj
 0002:0001122c       ??_C@_1O@IBBJHCH@?$AAk?$AAo?$AAk?$AA?9?$AAi?$AAn?$AA?$AA@ 1005422c     LIBCMT:winapinls.obj
 0002:0001123c       ??_C@_1M@DMHAEOGC@?$AAk?$AAo?$AA?9?$AAk?$AAr?$AA?$AA@ 1005423c     LIBCMT:winapinls.obj
 0002:00011248       ??_C@_1M@HBAHBIGA@?$AAk?$AAy?$AA?9?$AAk?$AAg?$AA?$AA@ 10054248     LIBCMT:winapinls.obj
 0002:00011254       ??_C@_1M@KPMILCJG@?$AAl?$AAt?$AA?9?$AAl?$AAt?$AA?$AA@ 10054254     LIBCMT:winapinls.obj
 0002:00011260       ??_C@_1M@BDEKKCA@?$AAl?$AAv?$AA?9?$AAl?$AAv?$AA?$AA@ 10054260     LIBCMT:winapinls.obj
 0002:0001126c       ??_C@_1M@ELCKCCJJ@?$AAm?$AAi?$AA?9?$AAn?$AAz?$AA?$AA@ 1005426c     LIBCMT:winapinls.obj
 0002:00011278       ??_C@_1M@CBOOLAPA@?$AAm?$AAk?$AA?9?$AAm?$AAk?$AA?$AA@ 10054278     LIBCMT:winapinls.obj
 0002:00011284       ??_C@_1M@GPHNBJKN@?$AAm?$AAl?$AA?9?$AAi?$AAn?$AA?$AA@ 10054284     LIBCMT:winapinls.obj
 0002:00011290       ??_C@_1M@PABJILIG@?$AAm?$AAn?$AA?9?$AAm?$AAn?$AA?$AA@ 10054290     LIBCMT:winapinls.obj
 0002:0001129c       ??_C@_1M@FGBKKIPG@?$AAm?$AAr?$AA?9?$AAi?$AAn?$AA?$AA@ 1005429c     LIBCMT:winapinls.obj
 0002:000112a8       ??_C@_1M@NDBPDDAL@?$AAm?$AAs?$AA?9?$AAb?$AAn?$AA?$AA@ 100542a8     LIBCMT:winapinls.obj
 0002:000112b4       ??_C@_1M@OPIHOOPI@?$AAm?$AAs?$AA?9?$AAm?$AAy?$AA?$AA@ 100542b4     LIBCMT:winapinls.obj
 0002:000112c0       ??_C@_1M@PPDBCNFM@?$AAm?$AAt?$AA?9?$AAm?$AAt?$AA?$AA@ 100542c0     LIBCMT:winapinls.obj
 0002:000112cc       ??_C@_1M@KDJDKMDD@?$AAn?$AAb?$AA?9?$AAn?$AAo?$AA?$AA@ 100542cc     LIBCMT:winapinls.obj
 0002:000112d8       ??_C@_1M@KFCFLMJP@?$AAn?$AAl?$AA?9?$AAb?$AAe?$AA?$AA@ 100542d8     LIBCMT:winapinls.obj
 0002:000112e4       ??_C@_1M@KPOPDDGO@?$AAn?$AAl?$AA?9?$AAn?$AAl?$AA?$AA@ 100542e4     LIBCMT:winapinls.obj
 0002:000112f0       ??_C@_1M@LJKPEMLN@?$AAn?$AAn?$AA?9?$AAn?$AAo?$AA?$AA@ 100542f0     LIBCMT:winapinls.obj
 0002:000112fc       ??_C@_1M@BDGHHBFL@?$AAn?$AAs?$AA?9?$AAz?$AAa?$AA?$AA@ 100542fc     LIBCMT:winapinls.obj
 0002:00011308       ??_C@_1M@IDEHOAP@?$AAp?$AAa?$AA?9?$AAi?$AAn?$AA?$AA@ 10054308     LIBCMT:winapinls.obj
 0002:00011314       ??_C@_1M@HDBKGOGH@?$AAp?$AAl?$AA?9?$AAp?$AAl?$AA?$AA@ 10054314     LIBCMT:winapinls.obj
 0002:00011320       ??_C@_1M@LJLLCMEH@?$AAp?$AAt?$AA?9?$AAb?$AAr?$AA?$AA@ 10054320     LIBCMT:winapinls.obj
 0002:0001132c       ??_C@_1M@NCMONAAL@?$AAp?$AAt?$AA?9?$AAp?$AAt?$AA?$AA@ 1005432c     LIBCMT:winapinls.obj
 0002:00011338       ??_C@_1O@EAKMAJDN@?$AAq?$AAu?$AAz?$AA?9?$AAb?$AAo?$AA?$AA@ 10054338     LIBCMT:winapinls.obj
 0002:00011348       ??_C@_1O@BHHPIGDN@?$AAq?$AAu?$AAz?$AA?9?$AAe?$AAc?$AA?$AA@ 10054348     LIBCMT:winapinls.obj
 0002:00011358       ??_C@_1O@GBAPEKMJ@?$AAq?$AAu?$AAz?$AA?9?$AAp?$AAe?$AA?$AA@ 10054358     LIBCMT:winapinls.obj
 0002:00011368       ??_C@_1M@CLGLEFBO@?$AAr?$AAo?$AA?9?$AAr?$AAo?$AA?$AA@ 10054368     LIBCMT:winapinls.obj
 0002:00011374       ??_C@_1M@CEEDODME@?$AAr?$AAu?$AA?9?$AAr?$AAu?$AA?$AA@ 10054374     LIBCMT:winapinls.obj
 0002:00011380       ??_C@_1M@HPKKKMPP@?$AAs?$AAa?$AA?9?$AAi?$AAn?$AA?$AA@ 10054380     LIBCMT:winapinls.obj
 0002:0001138c       ??_C@_1M@BKMAIGOJ@?$AAs?$AAe?$AA?9?$AAf?$AAi?$AA?$AA@ 1005438c     LIBCMT:winapinls.obj
 0002:00011398       ??_C@_1M@NDPIFLFI@?$AAs?$AAe?$AA?9?$AAn?$AAo?$AA?$AA@ 10054398     LIBCMT:winapinls.obj
 0002:000113a4       ??_C@_1M@DANKKHJ@?$AAs?$AAe?$AA?9?$AAs?$AAe?$AA?$AA@ 100543a4     LIBCMT:winapinls.obj
 0002:000113b0       ??_C@_1M@PNBLONPJ@?$AAs?$AAk?$AA?9?$AAs?$AAk?$AA?$AA@ 100543b0     LIBCMT:winapinls.obj
 0002:000113bc       ??_C@_1M@LFMODOAL@?$AAs?$AAl?$AA?9?$AAs?$AAi?$AA?$AA@ 100543bc     LIBCMT:winapinls.obj
 0002:000113c8       ??_C@_1O@DFKOMPG@?$AAs?$AAm?$AAa?$AA?9?$AAn?$AAo?$AA?$AA@ 100543c8     LIBCMT:winapinls.obj
 0002:000113d8       ??_C@_1O@NDKPBNNH@?$AAs?$AAm?$AAa?$AA?9?$AAs?$AAe?$AA?$AA@ 100543d8     LIBCMT:winapinls.obj
 0002:000113e8       ??_C@_1O@PLLKBHAB@?$AAs?$AAm?$AAj?$AA?9?$AAn?$AAo?$AA?$AA@ 100543e8     LIBCMT:winapinls.obj
 0002:000113f8       ??_C@_1O@CLEPOGCA@?$AAs?$AAm?$AAj?$AA?9?$AAs?$AAe?$AA?$AA@ 100543f8     LIBCMT:winapinls.obj
 0002:00011408       ??_C@_1O@DLGJGKMK@?$AAs?$AAm?$AAn?$AA?9?$AAf?$AAi?$AA?$AA@ 10054408     LIBCMT:winapinls.obj
 0002:00011418       ??_C@_1O@OJDJGAJC@?$AAs?$AAm?$AAs?$AA?9?$AAf?$AAi?$AA?$AA@ 10054418     LIBCMT:winapinls.obj
 0002:00011428       ??_C@_1M@BOFOGHPB@?$AAs?$AAq?$AA?9?$AAa?$AAl?$AA?$AA@ 10054428     LIBCMT:winapinls.obj
 0002:00011434       ??_C@_1BG@LJBBIPGB@?$AAs?$AAr?$AA?9?$AAb?$AAa?$AA?9?$AAc?$AAy?$AAr?$AAl?$AA?$AA@ 10054434     LIBCMT:winapinls.obj
 0002:0001144c       ??_C@_1BG@JLBENFOE@?$AAs?$AAr?$AA?9?$AAb?$AAa?$AA?9?$AAl?$AAa?$AAt?$AAn?$AA?$AA@ 1005444c     LIBCMT:winapinls.obj
 0002:00011464       ??_C@_1BG@KODPNHE@?$AAs?$AAr?$AA?9?$AAs?$AAp?$AA?9?$AAc?$AAy?$AAr?$AAl?$AA?$AA@ 10054464     LIBCMT:winapinls.obj
 0002:0001147c       ??_C@_1BG@CIOGKHPB@?$AAs?$AAr?$AA?9?$AAs?$AAp?$AA?9?$AAl?$AAa?$AAt?$AAn?$AA?$AA@ 1005447c     LIBCMT:winapinls.obj
 0002:00011494       ??_C@_1M@NGFJLMAC@?$AAs?$AAv?$AA?9?$AAf?$AAi?$AA?$AA@ 10054494     LIBCMT:winapinls.obj
 0002:000114a0       ??_C@_1M@MPJEJAJC@?$AAs?$AAv?$AA?9?$AAs?$AAe?$AA?$AA@ 100544a0     LIBCMT:winapinls.obj
 0002:000114ac       ??_C@_1M@MPNDHLFK@?$AAs?$AAw?$AA?9?$AAk?$AAe?$AA?$AA@ 100544ac     LIBCMT:winapinls.obj
 0002:000114b8       ??_C@_1O@KOHBJJI@?$AAs?$AAy?$AAr?$AA?9?$AAs?$AAy?$AA?$AA@ 100544b8     LIBCMT:winapinls.obj
 0002:000114c8       ??_C@_1M@LDCEFHA@?$AAt?$AAa?$AA?9?$AAi?$AAn?$AA?$AA@ 100544c8     LIBCMT:winapinls.obj
 0002:000114d4       ??_C@_1M@CNJOFAK@?$AAt?$AAe?$AA?9?$AAi?$AAn?$AA?$AA@ 100544d4     LIBCMT:winapinls.obj
 0002:000114e0       ??_C@_1M@GNAECACD@?$AAt?$AAh?$AA?9?$AAt?$AAh?$AA?$AA@ 100544e0     LIBCMT:winapinls.obj
 0002:000114ec       ??_C@_1M@CHBIHOJO@?$AAt?$AAn?$AA?9?$AAz?$AAa?$AA?$AA@ 100544ec     LIBCMT:winapinls.obj
 0002:000114f8       ??_C@_1M@GCCMIGPJ@?$AAt?$AAr?$AA?9?$AAt?$AAr?$AA?$AA@ 100544f8     LIBCMT:winapinls.obj
 0002:00011504       ??_C@_1M@CELMCNBK@?$AAt?$AAt?$AA?9?$AAr?$AAu?$AA?$AA@ 10054504     LIBCMT:winapinls.obj
 0002:00011510       ??_C@_1M@KLMCELGA@?$AAu?$AAk?$AA?9?$AAu?$AAa?$AA?$AA@ 10054510     LIBCMT:winapinls.obj
 0002:0001151c       ??_C@_1M@EPAJJAJF@?$AAu?$AAr?$AA?9?$AAp?$AAk?$AA?$AA@ 1005451c     LIBCMT:winapinls.obj
 0002:00011528       ??_C@_1BG@GEGPMCDJ@?$AAu?$AAz?$AA?9?$AAu?$AAz?$AA?9?$AAc?$AAy?$AAr?$AAl?$AA?$AA@ 10054528     LIBCMT:winapinls.obj
 0002:00011540       ??_C@_1BG@EGGKJILM@?$AAu?$AAz?$AA?9?$AAu?$AAz?$AA?9?$AAl?$AAa?$AAt?$AAn?$AA?$AA@ 10054540     LIBCMT:winapinls.obj
 0002:00011558       ??_C@_1M@GFOCLFF@?$AAv?$AAi?$AA?9?$AAv?$AAn?$AA?$AA@ 10054558     LIBCMT:winapinls.obj
 0002:00011564       ??_C@_1M@CPAMEDFI@?$AAx?$AAh?$AA?9?$AAz?$AAa?$AA?$AA@ 10054564     LIBCMT:winapinls.obj
 0002:00011570       ??_C@_1O@EBKIFIGN@?$AAz?$AAh?$AA?9?$AAc?$AAh?$AAs?$AA?$AA@ 10054570     LIBCMT:winapinls.obj
 0002:00011580       ??_C@_1O@NMHPGANE@?$AAz?$AAh?$AA?9?$AAc?$AAh?$AAt?$AA?$AA@ 10054580     LIBCMT:winapinls.obj
 0002:00011590       ??_C@_1M@LPINJOMC@?$AAz?$AAh?$AA?9?$AAc?$AAn?$AA?$AA@ 10054590     LIBCMT:winapinls.obj
 0002:0001159c       ??_C@_1M@OCJEJODD@?$AAz?$AAh?$AA?9?$AAh?$AAk?$AA?$AA@ 1005459c     LIBCMT:winapinls.obj
 0002:000115a8       ??_C@_1M@DNDLJINH@?$AAz?$AAh?$AA?9?$AAm?$AAo?$AA?$AA@ 100545a8     LIBCMT:winapinls.obj
 0002:000115b4       ??_C@_1M@MBFDNDND@?$AAz?$AAh?$AA?9?$AAs?$AAg?$AA?$AA@ 100545b4     LIBCMT:winapinls.obj
 0002:000115c0       ??_C@_1M@IMEPLEPE@?$AAz?$AAh?$AA?9?$AAt?$AAw?$AA?$AA@ 100545c0     LIBCMT:winapinls.obj
 0002:000115cc       ??_C@_1M@BBGHNHJP@?$AAz?$AAu?$AA?9?$AAz?$AAa?$AA?$AA@ 100545cc     LIBCMT:winapinls.obj
 0002:000115d8       ___newctype                100545d8     LIBCMT:ctype.obj
 0002:000118d8       __wctype                   100548d8     LIBCMT:ctype.obj
 0002:00011ae0       ___newclmap                10054ae0     LIBCMT:ctype.obj
 0002:00011c60       ___newcumap                10054c60     LIBCMT:ctype.obj
 0002:00011de0       ___lc_category             10054de0     LIBCMT:wsetloca.obj
 0002:00011e28       ??_C@_1O@GIFLHMA@?$AAL?$AAC?$AA_?$AAA?$AAL?$AAL?$AA?$AA@ 10054e28     LIBCMT:wsetloca.obj
 0002:00011e38       ??_C@_1BG@PPOMIBNJ@?$AAL?$AAC?$AA_?$AAC?$AAO?$AAL?$AAL?$AAA?$AAT?$AAE?$AA?$AA@ 10054e38     LIBCMT:wsetloca.obj
 0002:00011e50       ??_C@_1BC@FFJGAPJM@?$AAL?$AAC?$AA_?$AAC?$AAT?$AAY?$AAP?$AAE?$AA?$AA@ 10054e50     LIBCMT:wsetloca.obj
 0002:00011e64       ??_C@_1BI@PCKFNJFB@?$AAL?$AAC?$AA_?$AAM?$AAO?$AAN?$AAE?$AAT?$AAA?$AAR?$AAY?$AA?$AA@ 10054e64     LIBCMT:wsetloca.obj
 0002:00011e7c       ??_C@_1BG@ENIEDKID@?$AAL?$AAC?$AA_?$AAN?$AAU?$AAM?$AAE?$AAR?$AAI?$AAC?$AA?$AA@ 10054e7c     LIBCMT:wsetloca.obj
 0002:00011e94       ??_C@_1BA@HAAOMIIG@?$AAL?$AAC?$AA_?$AAT?$AAI?$AAM?$AAE?$AA?$AA@ 10054e94     LIBCMT:wsetloca.obj
 0002:00011f28       ??_C@_15NBPDDFIP@?$AA?$DN?$AA?$DL?$AA?$AA@ 10054f28     LIBCMT:wsetloca.obj
 0002:00011f30       ??_C@_13PJJBFPED@?$AA?$DL?$AA?$AA@ 10054f30     LIBCMT:wsetloca.obj
 0002:00011f34       ??_C@_13NMPKAAJP@?$AA?$DN?$AA?$AA@ 10054f34     LIBCMT:wsetloca.obj
 0002:00011f38       ??_C@_13FHBKNHDA@?$AAC?$AA?$AA@ 10054f38     LIBCMT:wsetloca.obj
 0002:00011f3c       ??_C@_17MBJJLFDM@?$AA_?$AA?4?$AA?0?$AA?$AA@ 10054f3c     LIBCMT:wsetloca.obj
 0002:00011f44       ??_C@_13ENNFDPBH@?$AA_?$AA?$AA@ 10054f44     LIBCMT:wsetloca.obj
 0002:00011f48       ??_C@_13JOFGPIOO@?$AA?4?$AA?$AA@ 10054f48     LIBCMT:wsetloca.obj
 0002:00011f4c       ??_C@_06PGGFOGJG@1?$CDSNAN?$AA@ 10054f4c     LIBCMT:x10fout.obj
 0002:00011f54       ??_C@_05PHHOCPM@1?$CDIND?$AA@ 10054f54     LIBCMT:x10fout.obj
 0002:00011f5c       ??_C@_05DNEBIAHO@1?$CDINF?$AA@ 10054f5c     LIBCMT:x10fout.obj
 0002:00011f64       ??_C@_06IMKFLFPG@1?$CDQNAN?$AA@ 10054f64     LIBCMT:x10fout.obj
 0002:00011f6c       ??_C@_0M@HHGEPIBF@CreateFile2?$AA@ 10054f6c     LIBCMT:wopen.obj
 0002:00011f78       ??_C@_1BA@BALFACEM@?$AAC?$AAO?$AAN?$AAO?$AAU?$AAT?$AA$?$AA?$AA@ 10054f78     LIBCMT:initcon.obj
 0002:00011f88       ___rg_language             10054f88     LIBCMT:getqloc.obj
 0002:00012294       ??_C@_1BC@LLOKLNP@?$AAa?$AAm?$AAe?$AAr?$AAi?$AAc?$AAa?$AAn?$AA?$AA@ 10055294     LIBCMT:getqloc.obj
 0002:000122a8       ??_C@_1CC@HEIGCDGG@?$AAa?$AAm?$AAe?$AAr?$AAi?$AAc?$AAa?$AAn?$AA?5?$AAe?$AAn?$AAg?$AAl?$AAi?$AAs?$AAh?$AA?$AA@ 100552a8     LIBCMT:getqloc.obj
 0002:000122cc       ??_C@_1CC@IHCNOMIN@?$AAa?$AAm?$AAe?$AAr?$AAi?$AAc?$AAa?$AAn?$AA?9?$AAe?$AAn?$AAg?$AAl?$AAi?$AAs?$AAh?$AA?$AA@ 100552cc     LIBCMT:getqloc.obj
 0002:000122f0       ??_C@_1BG@GKAGPCGG@?$AAa?$AAu?$AAs?$AAt?$AAr?$AAa?$AAl?$AAi?$AAa?$AAn?$AA?$AA@ 100552f0     LIBCMT:getqloc.obj
 0002:00012308       ??_C@_1BA@GMENCENF@?$AAb?$AAe?$AAl?$AAg?$AAi?$AAa?$AAn?$AA?$AA@ 10055308     LIBCMT:getqloc.obj
 0002:00012318       ??_C@_1BC@PJMIIAAN@?$AAc?$AAa?$AAn?$AAa?$AAd?$AAi?$AAa?$AAn?$AA?$AA@ 10055318     LIBCMT:getqloc.obj
 0002:0001232c       ??_C@_17NOIMNFBF@?$AAc?$AAh?$AAh?$AA?$AA@ 1005532c     LIBCMT:getqloc.obj
 0002:00012334       ??_C@_17GGDALCHA@?$AAc?$AAh?$AAi?$AA?$AA@ 10055334     LIBCMT:getqloc.obj
 0002:0001233c       ??_C@_1BA@NPNJKIBL@?$AAc?$AAh?$AAi?$AAn?$AAe?$AAs?$AAe?$AA?$AA@ 1005533c     LIBCMT:getqloc.obj
 0002:0001234c       ??_C@_1CC@DINBAMMJ@?$AAc?$AAh?$AAi?$AAn?$AAe?$AAs?$AAe?$AA?9?$AAh?$AAo?$AAn?$AAg?$AAk?$AAo?$AAn?$AAg?$AA?$AA@ 1005534c     LIBCMT:getqloc.obj
 0002:00012370       ??_C@_1CG@IOBJPACO@?$AAc?$AAh?$AAi?$AAn?$AAe?$AAs?$AAe?$AA?9?$AAs?$AAi?$AAm?$AAp?$AAl?$AAi?$AAf?$AAi?$AAe?$AAd?$AA?$AA@ 10055370     LIBCMT:getqloc.obj
 0002:00012398       ??_C@_1CE@GAJNDCKG@?$AAc?$AAh?$AAi?$AAn?$AAe?$AAs?$AAe?$AA?9?$AAs?$AAi?$AAn?$AAg?$AAa?$AAp?$AAo?$AAr?$AAe?$AA?$AA@ 10055398     LIBCMT:getqloc.obj
 0002:000123bc       ??_C@_1CI@PAJPIOOD@?$AAc?$AAh?$AAi?$AAn?$AAe?$AAs?$AAe?$AA?9?$AAt?$AAr?$AAa?$AAd?$AAi?$AAt?$AAi?$AAo?$AAn?$AAa?$AAl?$AA?$AA@ 100553bc     LIBCMT:getqloc.obj
 0002:000123e4       ??_C@_1BM@NILJBMMD@?$AAd?$AAu?$AAt?$AAc?$AAh?$AA?9?$AAb?$AAe?$AAl?$AAg?$AAi?$AAa?$AAn?$AA?$AA@ 100553e4     LIBCMT:getqloc.obj
 0002:00012400       ??_C@_1CC@OOJPJNEJ@?$AAe?$AAn?$AAg?$AAl?$AAi?$AAs?$AAh?$AA?9?$AAa?$AAm?$AAe?$AAr?$AAi?$AAc?$AAa?$AAn?$AA?$AA@ 10055400     LIBCMT:getqloc.obj
 0002:00012424       ??_C@_1BI@IOLFEEM@?$AAe?$AAn?$AAg?$AAl?$AAi?$AAs?$AAh?$AA?9?$AAa?$AAu?$AAs?$AA?$AA@ 10055424     LIBCMT:getqloc.obj
 0002:0001243c       ??_C@_1BO@HFFNLENJ@?$AAe?$AAn?$AAg?$AAl?$AAi?$AAs?$AAh?$AA?9?$AAb?$AAe?$AAl?$AAi?$AAz?$AAe?$AA?$AA@ 1005543c     LIBCMT:getqloc.obj
 0002:0001245c       ??_C@_1BI@HAPKJMPO@?$AAe?$AAn?$AAg?$AAl?$AAi?$AAs?$AAh?$AA?9?$AAc?$AAa?$AAn?$AA?$AA@ 1005545c     LIBCMT:getqloc.obj
 0002:00012474       ??_C@_1CE@HLNDMIOJ@?$AAe?$AAn?$AAg?$AAl?$AAi?$AAs?$AAh?$AA?9?$AAc?$AAa?$AAr?$AAi?$AAb?$AAb?$AAe?$AAa?$AAn?$AA?$AA@ 10055474     LIBCMT:getqloc.obj
 0002:00012498       ??_C@_1BI@LDHJHHAC@?$AAe?$AAn?$AAg?$AAl?$AAi?$AAs?$AAh?$AA?9?$AAi?$AAr?$AAe?$AA?$AA@ 10055498     LIBCMT:getqloc.obj
 0002:000124b0       ??_C@_1CA@NJMMCFOC@?$AAe?$AAn?$AAg?$AAl?$AAi?$AAs?$AAh?$AA?9?$AAj?$AAa?$AAm?$AAa?$AAi?$AAc?$AAa?$AA?$AA@ 100554b0     LIBCMT:getqloc.obj
 0002:000124d0       ??_C@_1BG@BHJEBBGG@?$AAe?$AAn?$AAg?$AAl?$AAi?$AAs?$AAh?$AA?9?$AAn?$AAz?$AA?$AA@ 100554d0     LIBCMT:getqloc.obj
 0002:000124e8       ??_C@_1CK@FGOEJJCO@?$AAe?$AAn?$AAg?$AAl?$AAi?$AAs?$AAh?$AA?9?$AAs?$AAo?$AAu?$AAt?$AAh?$AA?5?$AAa?$AAf?$AAr?$AAi?$AAc?$AAa?$AA?$AA@ 100554e8     LIBCMT:getqloc.obj
 0002:00012514       ??_C@_1DE@PDBJPCJ@?$AAe?$AAn?$AAg?$AAl?$AAi?$AAs?$AAh?$AA?9?$AAt?$AAr?$AAi?$AAn?$AAi?$AAd?$AAa?$AAd?$AA?5?$AAy?$AA?5?$AAt?$AAo?$AAb?$AAa?$AAg?$AAo?$AA?$AA@ 10055514     LIBCMT:getqloc.obj
 0002:00012548       ??_C@_1BG@JGCANDME@?$AAe?$AAn?$AAg?$AAl?$AAi?$AAs?$AAh?$AA?9?$AAu?$AAk?$AA?$AA@ 10055548     LIBCMT:getqloc.obj
 0002:00012560       ??_C@_1BG@DINKMLE@?$AAe?$AAn?$AAg?$AAl?$AAi?$AAs?$AAh?$AA?9?$AAu?$AAs?$AA?$AA@ 10055560     LIBCMT:getqloc.obj
 0002:00012578       ??_C@_1BI@NMFDBHJE@?$AAe?$AAn?$AAg?$AAl?$AAi?$AAs?$AAh?$AA?9?$AAu?$AAs?$AAa?$AA?$AA@ 10055578     LIBCMT:getqloc.obj
 0002:00012590       ??_C@_1BO@OIHKJKII@?$AAf?$AAr?$AAe?$AAn?$AAc?$AAh?$AA?9?$AAb?$AAe?$AAl?$AAg?$AAi?$AAa?$AAn?$AA?$AA@ 10055590     LIBCMT:getqloc.obj
 0002:000125b0       ??_C@_1CA@NKAELJKI@?$AAf?$AAr?$AAe?$AAn?$AAc?$AAh?$AA?9?$AAc?$AAa?$AAn?$AAa?$AAd?$AAi?$AAa?$AAn?$AA?$AA@ 100555b0     LIBCMT:getqloc.obj
 0002:000125d0       ??_C@_1CE@MGKCNLGN@?$AAf?$AAr?$AAe?$AAn?$AAc?$AAh?$AA?9?$AAl?$AAu?$AAx?$AAe?$AAm?$AAb?$AAo?$AAu?$AAr?$AAg?$AA?$AA@ 100555d0     LIBCMT:getqloc.obj
 0002:000125f4       ??_C@_1BK@CEGEAILM@?$AAf?$AAr?$AAe?$AAn?$AAc?$AAh?$AA?9?$AAs?$AAw?$AAi?$AAs?$AAs?$AA?$AA@ 100555f4     LIBCMT:getqloc.obj
 0002:00012610       ??_C@_1CA@PAFKEOCC@?$AAg?$AAe?$AAr?$AAm?$AAa?$AAn?$AA?9?$AAa?$AAu?$AAs?$AAt?$AAr?$AAi?$AAa?$AAn?$AA?$AA@ 10055610     LIBCMT:getqloc.obj
 0002:00012630       ??_C@_1CI@HCFHGOFD@?$AAg?$AAe?$AAr?$AAm?$AAa?$AAn?$AA?9?$AAl?$AAi?$AAc?$AAh?$AAt?$AAe?$AAn?$AAs?$AAt?$AAe?$AAi?$AAn?$AA?$AA@ 10055630     LIBCMT:getqloc.obj
 0002:00012658       ??_C@_1CE@FEDDNPDG@?$AAg?$AAe?$AAr?$AAm?$AAa?$AAn?$AA?9?$AAl?$AAu?$AAx?$AAe?$AAm?$AAb?$AAo?$AAu?$AAr?$AAg?$AA?$AA@ 10055658     LIBCMT:getqloc.obj
 0002:0001267c       ??_C@_1BK@LIMINNMN@?$AAg?$AAe?$AAr?$AAm?$AAa?$AAn?$AA?9?$AAs?$AAw?$AAi?$AAs?$AAs?$AA?$AA@ 1005567c     LIBCMT:getqloc.obj
 0002:00012698       ??_C@_1BM@LGMDBEPD@?$AAi?$AAr?$AAi?$AAs?$AAh?$AA?9?$AAe?$AAn?$AAg?$AAl?$AAi?$AAs?$AAh?$AA?$AA@ 10055698     LIBCMT:getqloc.obj
 0002:000126b4       ??_C@_1BM@NNCFBAEE@?$AAi?$AAt?$AAa?$AAl?$AAi?$AAa?$AAn?$AA?9?$AAs?$AAw?$AAi?$AAs?$AAs?$AA?$AA@ 100556b4     LIBCMT:getqloc.obj
 0002:000126d0       ??_C@_1BE@FEDJNPIB@?$AAn?$AAo?$AAr?$AAw?$AAe?$AAg?$AAi?$AAa?$AAn?$AA?$AA@ 100556d0     LIBCMT:getqloc.obj
 0002:000126e4       ??_C@_1CC@CILKDEIE@?$AAn?$AAo?$AAr?$AAw?$AAe?$AAg?$AAi?$AAa?$AAn?$AA?9?$AAb?$AAo?$AAk?$AAm?$AAa?$AAl?$AA?$AA@ 100556e4     LIBCMT:getqloc.obj
 0002:00012708       ??_C@_1CE@DHMMHEPL@?$AAn?$AAo?$AAr?$AAw?$AAe?$AAg?$AAi?$AAa?$AAn?$AA?9?$AAn?$AAy?$AAn?$AAo?$AAr?$AAs?$AAk?$AA?$AA@ 10055708     LIBCMT:getqloc.obj
 0002:0001272c       ??_C@_1CK@OPNMHECD@?$AAp?$AAo?$AAr?$AAt?$AAu?$AAg?$AAu?$AAe?$AAs?$AAe?$AA?9?$AAb?$AAr?$AAa?$AAz?$AAi?$AAl?$AAi?$AAa?$AAn?$AA?$AA@ 1005572c     LIBCMT:getqloc.obj
 0002:00012758       ??_C@_1CE@KEEHCDB@?$AAs?$AAp?$AAa?$AAn?$AAi?$AAs?$AAh?$AA?9?$AAa?$AAr?$AAg?$AAe?$AAn?$AAt?$AAi?$AAn?$AAa?$AA?$AA@ 10055758     LIBCMT:getqloc.obj
 0002:0001277c       ??_C@_1CA@GIAOLHJD@?$AAs?$AAp?$AAa?$AAn?$AAi?$AAs?$AAh?$AA?9?$AAb?$AAo?$AAl?$AAi?$AAv?$AAi?$AAa?$AA?$AA@ 1005577c     LIBCMT:getqloc.obj
 0002:0001279c       ??_C@_1BM@OJNDFNPD@?$AAs?$AAp?$AAa?$AAn?$AAi?$AAs?$AAh?$AA?9?$AAc?$AAh?$AAi?$AAl?$AAe?$AA?$AA@ 1005579c     LIBCMT:getqloc.obj
 0002:000127b8       ??_C@_1CC@OCOLPALL@?$AAs?$AAp?$AAa?$AAn?$AAi?$AAs?$AAh?$AA?9?$AAc?$AAo?$AAl?$AAo?$AAm?$AAb?$AAi?$AAa?$AA?$AA@ 100557b8     LIBCMT:getqloc.obj
 0002:000127dc       ??_C@_1CG@BPOFMKBB@?$AAs?$AAp?$AAa?$AAn?$AAi?$AAs?$AAh?$AA?9?$AAc?$AAo?$AAs?$AAt?$AAa?$AA?5?$AAr?$AAi?$AAc?$AAa?$AA?$AA@ 100557dc     LIBCMT:getqloc.obj
 0002:00012804       ??_C@_1DG@IGOBAPBB@?$AAs?$AAp?$AAa?$AAn?$AAi?$AAs?$AAh?$AA?9?$AAd?$AAo?$AAm?$AAi?$AAn?$AAi?$AAc?$AAa?$AAn?$AA?5?$AAr?$AAe?$AAp?$AAu?$AAb?$AAl?$AAi?$AAc?$AA?$AA@ 10055804     LIBCMT:getqloc.obj
 0002:0001283c       ??_C@_1CA@JHAPGEGI@?$AAs?$AAp?$AAa?$AAn?$AAi?$AAs?$AAh?$AA?9?$AAe?$AAc?$AAu?$AAa?$AAd?$AAo?$AAr?$AA?$AA@ 1005583c     LIBCMT:getqloc.obj
 0002:0001285c       ??_C@_1CI@LAPALJPP@?$AAs?$AAp?$AAa?$AAn?$AAi?$AAs?$AAh?$AA?9?$AAe?$AAl?$AA?5?$AAs?$AAa?$AAl?$AAv?$AAa?$AAd?$AAo?$AAr?$AA?$AA@ 1005585c     LIBCMT:getqloc.obj
 0002:00012884       ??_C@_1CE@PDGBOFOM@?$AAs?$AAp?$AAa?$AAn?$AAi?$AAs?$AAh?$AA?9?$AAg?$AAu?$AAa?$AAt?$AAe?$AAm?$AAa?$AAl?$AAa?$AA?$AA@ 10055884     LIBCMT:getqloc.obj
 0002:000128a8       ??_C@_1CC@NBEBAODI@?$AAs?$AAp?$AAa?$AAn?$AAi?$AAs?$AAh?$AA?9?$AAh?$AAo?$AAn?$AAd?$AAu?$AAr?$AAa?$AAs?$AA?$AA@ 100558a8     LIBCMT:getqloc.obj
 0002:000128cc       ??_C@_1CA@LLKGHBMF@?$AAs?$AAp?$AAa?$AAn?$AAi?$AAs?$AAh?$AA?9?$AAm?$AAe?$AAx?$AAi?$AAc?$AAa?$AAn?$AA?$AA@ 100558cc     LIBCMT:getqloc.obj
 0002:000128ec       ??_C@_1BO@LKNDOIGD@?$AAs?$AAp?$AAa?$AAn?$AAi?$AAs?$AAh?$AA?9?$AAm?$AAo?$AAd?$AAe?$AAr?$AAn?$AA?$AA@ 100558ec     LIBCMT:getqloc.obj
 0002:0001290c       ??_C@_1CE@NMDMOEEB@?$AAs?$AAp?$AAa?$AAn?$AAi?$AAs?$AAh?$AA?9?$AAn?$AAi?$AAc?$AAa?$AAr?$AAa?$AAg?$AAu?$AAa?$AA?$AA@ 1005590c     LIBCMT:getqloc.obj
 0002:00012930       ??_C@_1BO@LLCBEJGB@?$AAs?$AAp?$AAa?$AAn?$AAi?$AAs?$AAh?$AA?9?$AAp?$AAa?$AAn?$AAa?$AAm?$AAa?$AA?$AA@ 10055930     LIBCMT:getqloc.obj
 0002:00012950       ??_C@_1CC@FKPGGIHO@?$AAs?$AAp?$AAa?$AAn?$AAi?$AAs?$AAh?$AA?9?$AAp?$AAa?$AAr?$AAa?$AAg?$AAu?$AAa?$AAy?$AA?$AA@ 10055950     LIBCMT:getqloc.obj
 0002:00012974       ??_C@_1BK@CDEIHOOP@?$AAs?$AAp?$AAa?$AAn?$AAi?$AAs?$AAh?$AA?9?$AAp?$AAe?$AAr?$AAu?$AA?$AA@ 10055974     LIBCMT:getqloc.obj
 0002:00012990       ??_C@_1CI@GAHAKKGP@?$AAs?$AAp?$AAa?$AAn?$AAi?$AAs?$AAh?$AA?9?$AAp?$AAu?$AAe?$AAr?$AAt?$AAo?$AA?5?$AAr?$AAi?$AAc?$AAo?$AA?$AA@ 10055990     LIBCMT:getqloc.obj
 0002:000129b8       ??_C@_1CA@NKJBCAGP@?$AAs?$AAp?$AAa?$AAn?$AAi?$AAs?$AAh?$AA?9?$AAu?$AAr?$AAu?$AAg?$AAu?$AAa?$AAy?$AA?$AA@ 100559b8     LIBCMT:getqloc.obj
 0002:000129d8       ??_C@_1CE@ODILCONM@?$AAs?$AAp?$AAa?$AAn?$AAi?$AAs?$AAh?$AA?9?$AAv?$AAe?$AAn?$AAe?$AAz?$AAu?$AAe?$AAl?$AAa?$AA?$AA@ 100559d8     LIBCMT:getqloc.obj
 0002:000129fc       ??_C@_1CA@OBNMCGFO@?$AAs?$AAw?$AAe?$AAd?$AAi?$AAs?$AAh?$AA?9?$AAf?$AAi?$AAn?$AAl?$AAa?$AAn?$AAd?$AA?$AA@ 100559fc     LIBCMT:getqloc.obj
 0002:00012a1c       ??_C@_1M@PIPDDPPI@?$AAs?$AAw?$AAi?$AAs?$AAs?$AA?$AA@ 10055a1c     LIBCMT:getqloc.obj
 0002:00012a28       ??_C@_15GMFIMNFM@?$AAu?$AAs?$AA?$AA@ 10055a28     LIBCMT:getqloc.obj
 0002:00012a30       ??_C@_17HAEBFAGL@?$AAu?$AAs?$AAa?$AA?$AA@ 10055a30     LIBCMT:getqloc.obj
 0002:00012a38       ___rg_country              10055a38     LIBCMT:getqloc.obj
 0002:00012b4c       ??_C@_1BA@DPFJEPHB@?$AAa?$AAm?$AAe?$AAr?$AAi?$AAc?$AAa?$AA?$AA@ 10055b4c     LIBCMT:getqloc.obj
 0002:00012b5c       ??_C@_1BA@ELOGGFK@?$AAb?$AAr?$AAi?$AAt?$AAa?$AAi?$AAn?$AA?$AA@ 10055b5c     LIBCMT:getqloc.obj
 0002:00012b6c       ??_C@_1M@GHBGIGDA@?$AAc?$AAh?$AAi?$AAn?$AAa?$AA?$AA@ 10055b6c     LIBCMT:getqloc.obj
 0002:00012b78       ??_C@_1M@NCHEJOPO@?$AAc?$AAz?$AAe?$AAc?$AAh?$AA?$AA@ 10055b78     LIBCMT:getqloc.obj
 0002:00012b84       ??_C@_1BA@BKPAPBLA@?$AAe?$AAn?$AAg?$AAl?$AAa?$AAn?$AAd?$AA?$AA@ 10055b84     LIBCMT:getqloc.obj
 0002:00012b94       ??_C@_1BM@HKBCKIPC@?$AAg?$AAr?$AAe?$AAa?$AAt?$AA?5?$AAb?$AAr?$AAi?$AAt?$AAa?$AAi?$AAn?$AA?$AA@ 10055b94     LIBCMT:getqloc.obj
 0002:00012bb0       ??_C@_1BA@PPCHPGJB@?$AAh?$AAo?$AAl?$AAl?$AAa?$AAn?$AAd?$AA?$AA@ 10055bb0     LIBCMT:getqloc.obj
 0002:00012bc0       ??_C@_1BE@JBMPEGDG@?$AAh?$AAo?$AAn?$AAg?$AA?9?$AAk?$AAo?$AAn?$AAg?$AA?$AA@ 10055bc0     LIBCMT:getqloc.obj
 0002:00012bd4       ??_C@_1BI@KOELBBPJ@?$AAn?$AAe?$AAw?$AA?9?$AAz?$AAe?$AAa?$AAl?$AAa?$AAn?$AAd?$AA?$AA@ 10055bd4     LIBCMT:getqloc.obj
 0002:00012bec       ??_C@_15HIEBHAIO@?$AAn?$AAz?$AA?$AA@ 10055bec     LIBCMT:getqloc.obj
 0002:00012bf4       ??_C@_1BC@CHBCPFPI@?$AAp?$AAr?$AA?5?$AAc?$AAh?$AAi?$AAn?$AAa?$AA?$AA@ 10055bf4     LIBCMT:getqloc.obj
 0002:00012c08       ??_C@_1BC@JAOIIFKD@?$AAp?$AAr?$AA?9?$AAc?$AAh?$AAi?$AAn?$AAa?$AA?$AA@ 10055c08     LIBCMT:getqloc.obj
 0002:00012c1c       ??_C@_1BI@BEHPPHKC@?$AAp?$AAu?$AAe?$AAr?$AAt?$AAo?$AA?9?$AAr?$AAi?$AAc?$AAo?$AA?$AA@ 10055c1c     LIBCMT:getqloc.obj
 0002:00012c34       ??_C@_1O@PAEOFKDI@?$AAs?$AAl?$AAo?$AAv?$AAa?$AAk?$AA?$AA@ 10055c34     LIBCMT:getqloc.obj
 0002:00012c44       ??_C@_1BK@FIHMCKAM@?$AAs?$AAo?$AAu?$AAt?$AAh?$AA?5?$AAa?$AAf?$AAr?$AAi?$AAc?$AAa?$AA?$AA@ 10055c44     LIBCMT:getqloc.obj
 0002:00012c60       ??_C@_1BI@NAEOODKB@?$AAs?$AAo?$AAu?$AAt?$AAh?$AA?5?$AAk?$AAo?$AAr?$AAe?$AAa?$AA?$AA@ 10055c60     LIBCMT:getqloc.obj
 0002:00012c78       ??_C@_1BK@FBDGGIFF@?$AAs?$AAo?$AAu?$AAt?$AAh?$AA?9?$AAa?$AAf?$AAr?$AAi?$AAc?$AAa?$AA?$AA@ 10055c78     LIBCMT:getqloc.obj
 0002:00012c94       ??_C@_1BI@GHLEJDPK@?$AAs?$AAo?$AAu?$AAt?$AAh?$AA?9?$AAk?$AAo?$AAr?$AAe?$AAa?$AA?$AA@ 10055c94     LIBCMT:getqloc.obj
 0002:00012cac       ??_C@_1CE@PLHLOMJF@?$AAt?$AAr?$AAi?$AAn?$AAi?$AAd?$AAa?$AAd?$AA?5?$AA?$CG?$AA?5?$AAt?$AAo?$AAb?$AAa?$AAg?$AAo?$AA?$AA@ 10055cac     LIBCMT:getqloc.obj
 0002:00012cd0       ??_C@_1BO@MODIMHHI@?$AAu?$AAn?$AAi?$AAt?$AAe?$AAd?$AA?9?$AAk?$AAi?$AAn?$AAg?$AAd?$AAo?$AAm?$AA?$AA@ 10055cd0     LIBCMT:getqloc.obj
 0002:00012cf0       ??_C@_1BM@FFHJONBJ@?$AAu?$AAn?$AAi?$AAt?$AAe?$AAd?$AA?9?$AAs?$AAt?$AAa?$AAt?$AAe?$AAs?$AA?$AA@ 10055cf0     LIBCMT:getqloc.obj
 0002:00012d0c       ___rg_language_count       10055d0c     LIBCMT:getqloc.obj
 0002:00012d10       ___rg_country_count        10055d10     LIBCMT:getqloc.obj
 0002:00012d14       ??_C@_17DNCLJFIF@?$AAA?$AAC?$AAP?$AA?$AA@ 10055d14     LIBCMT:getqloc.obj
 0002:00012d1c       ??_C@_17CIKBIHLH@?$AAO?$AAC?$AAP?$AA?$AA@ 10055d1c     LIBCMT:getqloc.obj
 0002:00012d24       ___rglangidNotDefault      10055d24     LIBCMT:getqloc_downlevel.obj
 0002:00012d38       __real@00000000            10055d38     LIBCMT:wcstoq.obj
 0002:00012d40       __load_config_used         10055d40     LIBCMT:loadcfg.obj
 0002:00015050       ___safe_se_handler_table   10058050     <linker-defined>
 0002:00015160       ___rtc_iaa                 10058160     LIBCMT:initsect.obj
 0002:00015264       ___rtc_izz                 10058264     LIBCMT:initsect.obj
 0002:00015368       ___rtc_taa                 10058368     LIBCMT:initsect.obj
 0002:0001546c       ___rtc_tzz                 1005846c     LIBCMT:initsect.obj
 0003:00000670       _FingerStrokeAssistance_P  1005a670     FingerStrokeAssistance_data.obj
 0003:00001050       _pci20041digout            1005b050     xpctarget.obj
 0003:00001054       _nipcdio24cnfg             1005b054     xpctarget.obj
 0003:00001058       _rtddm6604cnfg             1005b058     xpctarget.obj
 0003:00001780       _DefaultCOMIOBase          1005b780     xpcruntime:xpcimports.obj
 0003:00001790       _DefaultCOMIRQ             1005b790     xpcruntime:xpcimports.obj
 0003:000017a0       __fltused                  1005b7a0     LIBCMT:fpinit.obj
 0003:000017a4       __ldused                   1005b7a4     LIBCMT:fpinit.obj
 0003:000017b0       __iob                      1005b7b0     LIBCMT:_file.obj
 0003:00001a30       ___isa_enabled             1005ba30     LIBCMT:cpu_disp.obj
 0003:00001a34       ___security_cookie         1005ba34     LIBCMT:gs_cookie.obj
 0003:00001a38       ___security_cookie_complement 1005ba38     LIBCMT:gs_cookie.obj
 0003:00001c10       ___nullstring              1005bc10     LIBCMT:output.obj
 0003:00001c14       ___wnullstring             1005bc14     LIBCMT:output.obj
 0003:00001c24       __cfltcvt_tab              1005bc24     LIBCMT:cmiscdat.obj
 0003:00001d70       __mbctype                  1005bd70     LIBCMT:mbctype.obj
 0003:00001e78       __mbcasemap                1005be78     LIBCMT:mbctype.obj
 0003:00001f78       ___initialmbcinfo          1005bf78     LIBCMT:mbctype.obj
 0003:0000219c       ___ptmbcinfo               1005c19c     LIBCMT:mbctype.obj
 0003:00002290       ___badioinfo               1005c290     LIBCMT:ioinit.obj
 0003:000022d0       __lookuptrailbytes         1005c2d0     LIBCMT:read.obj
 0003:000023d0       __d_inf                    1005c3d0     LIBCMT:util.obj
 0003:000023d8       __d_ind                    1005c3d8     LIBCMT:util.obj
 0003:000023e0       __d_max                    1005c3e0     LIBCMT:util.obj
 0003:000023e8       __d_min                    1005c3e8     LIBCMT:util.obj
 0003:000023f0       __d_mzero                  1005c3f0     LIBCMT:util.obj
 0003:000024fc       ___abort_behavior          1005c4fc     LIBCMT:abort.obj
 0003:00002500       ___flsindex                1005c500     LIBCMT:tidtable.obj
 0003:00002510       ___mb_cur_max              1005c510     LIBCMT:nlsdata.obj
 0003:00002514       ___wclocalestr             1005c514     LIBCMT:nlsdata.obj
 0003:00002518       ___lc_time_c               1005c518     LIBCMT:nlsdata.obj
 0003:0000267c       ___ptlocinfo               1005c67c     LIBCMT:nlsdata.obj
 0003:00002680       ___initiallocinfo          1005c680     LIBCMT:nlsdata.obj
 0003:00002738       ___initiallocalestructinfo 1005c738     LIBCMT:nlsdata.obj
 0003:00002740       ___globallocalestatus      1005c740     LIBCMT:glstatus.obj
 0003:00002744       __matherr_flag             1005c744     LIBCMT:matherr.obj
 0003:00002750       __NLG_Destination          1005c750     LIBCMT:exsup.obj
 0003:00002760       ___lconv                   1005c760     LIBCMT:lconv.obj
 0003:00002764       ___lconv_static_decimal    1005c764     LIBCMT:lconv.obj
 0003:00002768       ___lconv_c                 1005c768     LIBCMT:lconv.obj
 0003:000027b8       ___lconv_static_W_decimal  1005c7b8     LIBCMT:lconv.obj
 0003:000027bc       __pctype                   1005c7bc     LIBCMT:ctype.obj
 0003:000027c0       __pwctype                  1005c7c0     LIBCMT:ctype.obj
 0003:00002800       __confh                    1005c800     LIBCMT:initcon.obj
 0003:00002808       __pow10pos                 1005c808     LIBCMT:constpow.obj
 0003:00002968       __pow10neg                 1005c968     LIBCMT:constpow.obj
 0003:00002ad0       __HUGE                     1005cad0     LIBCMT:huge.obj
 0003:00003030       ___isa_available_default   1005d030     rt_logging.obj
 0003:00003040       _pci20098PortA             1005d040     xpctarget.obj
 0003:00003044       _pci20098PortB             1005d044     xpctarget.obj
 0003:00003048       _siepowercan_firmware_initialized 1005d048     xpctarget.obj
 0003:0000304c       _siepowercan_port1_configured 1005d04c     xpctarget.obj
 0003:00003050       _siepowercan_port2_configured 1005d050     xpctarget.obj
 0003:00003054       _CANAC2_FIRMWARE_LOADED    1005d054     xpctarget.obj
 0003:00003058       _rs232ports                1005d058     xpctarget.obj
 0003:00003068       _NI_AT_MIO_16F_5_commreg2  1005d068     xpctarget.obj
 0003:0000306c       _RTD_DM6430_init           1005d06c     xpctarget.obj
 0003:00003070       _RTD_DM6420_init           1005d070     xpctarget.obj
 0003:00003074       _CANAC2_FIRMWARE_LOADED_mb1 1005d074     xpctarget.obj
 0003:00003078       _CANAC2_FIRMWARE_LOADED_mb2 1005d078     xpctarget.obj
 0003:0000307c       _CANAC2_FIRMWARE_LOADED_mb3 1005d07c     xpctarget.obj
 0003:00003080       _xmlsize                   1005d080     xpctarget.obj
 0003:00003788       ___fastflag                1005d788     LIBCMT:fpinit.obj
 0003:00003ab0       __C_Exit_Done              1005dab0     LIBCMT:crt0dat.obj
 0003:00003ab4       ___argc                    1005dab4     LIBCMT:crt0dat.obj
 0003:00003ab8       ___argv                    1005dab8     LIBCMT:crt0dat.obj
 0003:00003abc       ___wargv                   1005dabc     LIBCMT:crt0dat.obj
 0003:00003ac0       __environ                  1005dac0     LIBCMT:crt0dat.obj
 0003:00003ac4       __wenviron                 1005dac4     LIBCMT:crt0dat.obj
 0003:00003ac8       __pgmptr                   1005dac8     LIBCMT:crt0dat.obj
 0003:00003acc       __wpgmptr                  1005dacc     LIBCMT:crt0dat.obj
 0003:00003ad0       __umaskval                 1005dad0     LIBCMT:crt0dat.obj
 0003:00003ad4       __exitflag                 1005dad4     LIBCMT:crt0dat.obj
 0003:00003ad8       __C_Termination_Done       1005dad8     LIBCMT:crt0dat.obj
 0003:00003adc       ___winitenv                1005dadc     LIBCMT:crt0dat.obj
 0003:00003ae0       ___initenv                 1005dae0     LIBCMT:crt0dat.obj
 0003:00003ae4       __cflush                   1005dae4     LIBCMT:_file.obj
 0003:00003ae8       ___isa_available           1005dae8     LIBCMT:cpu_disp.obj
 0003:00003aec       ___favor                   1005daec     LIBCMT:cpu_disp.obj
 0003:00003af4       __aenvptr                  1005daf4     LIBCMT:dllcrt0.obj
 0003:00003af8       __wenvptr                  1005daf8     LIBCMT:dllcrt0.obj
 0003:00003afc       ?_pnhHeap@@3P6AHI@ZA       1005dafc     LIBCMT:handler.obj
 0003:00003b00       ___app_type                1005db00     LIBCMT:crt0msg.obj
 0003:00004130       __newmode                  1005e130     LIBCMT:_newmode.obj
 0003:00004134       __crtheap                  1005e134     LIBCMT:heapinit.obj
 0003:00004138       ___pInvalidArgHandler      1005e138     LIBCMT:invarg.obj
 0003:0000413c       __stdbuf                   1005e13c     LIBCMT:_sftbuf.obj
 0003:00004298       __maxwait                  1005e298     LIBCMT:crtheap.obj
 0003:0000429c       ?__pInconsistency@@3P6AXXZA 1005e29c     LIBCMT:hooks.obj
 0003:000042a0       ___pPurecall               1005e2a0     LIBCMT:inithelp.obj
 0003:000042bc       ___mbcodepage              1005e2bc     LIBCMT:mbctype.obj
 0003:000042c0       ___ismbcodepage            1005e2c0     LIBCMT:mbctype.obj
 0003:000042c4       ___mbulinfo                1005e2c4     LIBCMT:mbctype.obj
 0003:000042d0       ___mblocalename            1005e2d0     LIBCMT:mbctype.obj
 0003:000042d8       ___pioinfo                 1005e2d8     LIBCMT:ioinit.obj
 0003:000043d8       ___error_mode              1005e3d8     LIBCMT:errmode.obj
 0003:000044f8       __outputformat             1005e4f8     LIBCMT:outputformat.obj
 0003:00004500       __commode                  1005e500     LIBCMT:ncommode.obj
 0003:00004504       ___lconv_static_null       1005e504     LIBCMT:lconv.obj
 0003:00004508       ___lconv_static_W_null     1005e508     LIBCMT:lconv.obj
 0003:0000450c       ___locale_changed          1005e50c     LIBCMT:wsetloca.obj
 0003:00004510       __fmode                    1005e510     LIBCMT:txtmode.obj
 0003:00004520       _CANAC2_2_receiveindex_mb3 1005e520     <common>
 0003:000075f4       _CANAC2_2_receivemaxindex_mb3 100615f4     <common>
 0003:00007600       _CANAC2_2_sendindex_mb3    10061600     <common>
 0003:00007920       _CANAC2_2_sendmaxindex_mb3 10061920     <common>
 0003:00007940       _CANAC2_1_receiveindex_mb3 10061940     <common>
 0003:00007c60       _CANAC2_1_receivemaxindex_mb3 10061c60     <common>
 0003:00007c80       _CANAC2_1_sendindex_mb3    10061c80     <common>
 0003:00007fa0       _CANAC2_1_sendmaxindex_mb3 10061fa0     <common>
 0003:00007fc0       _CANAC2_2_receive_mb3      10061fc0     <common>
 0003:000082e0       _CANAC2_2_send_mb3         100622e0     <common>
 0003:00008600       _CANAC2_1_receive_mb3      10062600     <common>
 0003:00008920       _CANAC2_1_send_mb3         10062920     <common>
 0003:00008c40       _CANAC2_2_receiveindex_mb2 10062c40     <common>
 0003:00008f60       _CANAC2_2_receivemaxindex_mb2 10062f60     <common>
 0003:00008f80       _CANAC2_2_sendindex_mb2    10062f80     <common>
 0003:000092a0       _CANAC2_2_sendmaxindex_mb2 100632a0     <common>
 0003:000092c0       _CANAC2_1_receiveindex_mb2 100632c0     <common>
 0003:000095e0       _CANAC2_1_receivemaxindex_mb2 100635e0     <common>
 0003:00009600       _CANAC2_1_sendindex_mb2    10063600     <common>
 0003:00009920       _CANAC2_1_sendmaxindex_mb2 10063920     <common>
 0003:00009940       _CANAC2_2_receive_mb2      10063940     <common>
 0003:00009c60       _CANAC2_2_send_mb2         10063c60     <common>
 0003:00009f80       _CANAC2_1_receive_mb2      10063f80     <common>
 0003:0000a2a0       _CANAC2_1_send_mb2         100642a0     <common>
 0003:0000a5c0       _CANAC2_2_receiveindex_mb1 100645c0     <common>
 0003:0000a8e0       _CANAC2_2_receivemaxindex_mb1 100648e0     <common>
 0003:0000a900       _CANAC2_2_sendindex_mb1    10064900     <common>
 0003:0000ac20       _CANAC2_2_sendmaxindex_mb1 10064c20     <common>
 0003:0000ac40       _CANAC2_1_receiveindex_mb1 10064c40     <common>
 0003:0000af60       _CANAC2_1_receivemaxindex_mb1 10064f60     <common>
 0003:0000af80       _CANAC2_1_sendindex_mb1    10064f80     <common>
 0003:0000b2a0       _CANAC2_1_sendmaxindex_mb1 100652a0     <common>
 0003:0000b2c0       _CANAC2_2_receive_mb1      100652c0     <common>
 0003:0000b5e0       _CANAC2_2_send_mb1         100655e0     <common>
 0003:0000b900       _CANAC2_1_receive_mb1      10065900     <common>
 0003:0000bc20       _CANAC2_1_send_mb1         10065c20     <common>
 0003:0000bf40       _CANAC2_2_receiveindex     10065f40     <common>
 0003:0000c260       _CANAC2_2_receivemaxindex  10066260     <common>
 0003:0000c280       _CANAC2_2_sendindex        10066280     <common>
 0003:0000c5a0       _CANAC2_2_sendmaxindex     100665a0     <common>
 0003:0000c5c0       _CANAC2_1_receiveindex     100665c0     <common>
 0003:0000c8e0       _CANAC2_1_receivemaxindex  100668e0     <common>
 0003:0000c900       _CANAC2_1_sendindex        10066900     <common>
 0003:0000cc20       _CANAC2_1_sendmaxindex     10066c20     <common>
 0003:0000cc40       _CANAC2_2_receive          10066c40     <common>
 0003:0000cf60       _CANAC2_2_send             10066f60     <common>
 0003:0000d280       _CANAC2_1_receive          10067280     <common>
 0003:0000d5a0       _CANAC2_1_send             100675a0     <common>
 0003:0000d8c0       _siepowercan_can_object_buffer_port2 100678c0     <common>
 0003:000118e0       _siepowercan_can_object_buffer_port1 1006b8e0     <common>
 0003:000158e0       _rtNaNF                    1006f8e0     <common>
 0003:000158f4       _rtMinusInfF               1006f8f4     <common>
 0003:000158f8       _rtInfF                    1006f8f8     <common>
 0003:00015900       _rtNaN                     1006f900     <common>
 0003:00015908       _rtMinusInf                1006f908     <common>
 0003:00015910       _rtInf                     1006f910     <common>
 0003:00015920       _FingerStrokeAssistance_M_ 1006f920     <common>
 0003:00017798       _FingerStrokeAssistance_PrevZCX 10071798     <common>
 0003:000177a0       _FingerStrokeAssistance_Y  100717a0     <common>
 0003:000177e0       _FingerStrokeAssistance_DW 100717e0     <common>
 0003:00018200       _FingerStrokeAssistance_B  10072200     <common>
 0003:00018858       _xpceaddEvent              10072858     <common>
 0003:000188a8       _xpceDeRegisterISR         100728a8     <common>
 0003:000188ac       _xpceRegisterISR           100728ac     <common>
 0003:000188b0       _xpcIsModelInit            100728b0     <common>
 0003:000188b4       _xpcGetElapsedTime         100728b4     <common>
 0003:000188b8       _xpcBusyWait               100728b8     <common>
 0003:000188bc       _xpcFreePhysicalMemory     100728bc     <common>
 0003:000188c0       _xpcAllocPhysicalMemory    100728c0     <common>
 0003:000188c4       _xpcReserveMemoryRegion    100728c4     <common>
 0003:000188c8       _xpcOutpB                  100728c8     <common>
 0003:000188cc       _xpcOutpW                  100728cc     <common>
 0003:000188d0       _xpcOutpDW                 100728d0     <common>
 0003:000188d4       _xpcInpB                   100728d4     <common>
 0003:000188d8       _xpcInpW                   100728d8     <common>
 0003:000188dc       _xpcInpDW                  100728dc     <common>
 0003:000188e0       _slTestRegAssessment       100728e0     <common>
 0003:000188e4       _slTestTerminate           100728e4     <common>
 0003:000188e8       _slTestEvalOnFail          100728e8     <common>
 0003:000188ec       _slTestLogAssessments      100728ec     <common>
 0003:000188f0       _slTestInitialize          100728f0     <common>
 0003:000188f4       _unRegisterPTPTimeRead     100728f4     <common>
 0003:000188f8       _registerPTPTimeRead       100728f8     <common>
 0003:000188fc       _slrteGetCurrentStepSize   100728fc     <common>
 0003:00018900       _slrteSetStepSizeDelta     10072900     <common>
 0003:00018904       _xpceGetIntTimerGranularityNS 10072904     <common>
 0003:00018908       _sendToAsyncQueueTgtAppSvc 10072908     <common>
 0003:0001890c       _terminateToAsyncQueueTgtAppSvc 1007290c     <common>
 0003:00018910       _startToAsyncQueueTgtAppSvc 10072910     <common>
 0003:00018914       _getStatusFlags            10072914     <common>
 0003:00018918       _getCommService            10072918     <common>
 0003:0001891c       _getMemoryService          1007291c     <common>
 0003:00018920       _StreamVideo               10072920     <common>
 0003:00018924       _StopVideoDisplay          10072924     <common>
 0003:00018928       _StartVideoDisplay         10072928     <common>
 0003:0001892c       _DestroyVideoDisplay       1007292c     <common>
 0003:00018930       _CreateVideoDisplay        10072930     <common>
 0003:00018934       _ConvertUImage             10072934     <common>
 0003:00018938       _StopVideo                 10072938     <common>
 0003:0001893c       _ReadFrameBuffer           1007293c     <common>
 0003:00018940       _StartVideo                10072940     <common>
 0003:00018944       _GetVideoConfigs           10072944     <common>
 0003:00018948       _FindUsbVideoDevice        10072948     <common>
 0003:0001894c       _xpceDeleteSemaphore       1007294c     <common>
 0003:00018950       _xpceSignalSemaphore       10072950     <common>
 0003:00018954       _xpceWaitSemaphore         10072954     <common>
 0003:00018958       _xpceCreateSemaphore       10072958     <common>
 0003:0001895c       _TBGiveSpinFast            1007295c     <common>
 0003:00018960       _TBTakeSpinFast            10072960     <common>
 0003:00018964       _TBDeleteSpin              10072964     <common>
 0003:00018968       _TBCreateSpin              10072968     <common>
 0003:0001896c       _xpceScopeAcqOK            1007296c     <common>
 0003:00018970       _rl32eRestartAcquisition   10072970     <common>
 0003:00018974       _rl32eSetTargetScopeSigFt  10072974     <common>
 0003:00018978       _rl32eSetTargetScope       10072978     <common>
 0003:0001897c       _xpceFSScopeSet            1007297c     <common>
 0003:00018980       _rl32eSetScope             10072980     <common>
 0003:00018984       _rl32eAddSignal            10072984     <common>
 0003:00018988       _rl32eGetSignalNo          10072988     <common>
 0003:0001898c       _rl32eDefScope             1007298c     <common>
 0003:00018990       _rl32eScopeExists          10072990     <common>
 0003:00018994       _xpceUDPClose              10072994     <common>
 0003:00018998       _xpceUDPReceive            10072998     <common>
 0003:0001899c       _xpceUDPSend               1007299c     <common>
 0003:000189a0       _xpceUDPOpenReceive        100729a0     <common>
 0003:000189a4       _xpceUDPOpenSend           100729a4     <common>
 0003:000189a8       _rl32eSendBlock            100729a8     <common>
 0003:000189ac       _rl32eLineStatus           100729ac     <common>
 0003:000189b0       _rl32eReceiveBufferCount   100729b0     <common>
 0003:000189b4       _rl32eReceiveChar          100729b4     <common>
 0003:000189b8       _rl32eSendChar             100729b8     <common>
 0003:000189bc       _rl32eCloseCOMPort         100729bc     <common>
 0003:000189c0       _rl32eInitCOMPort          100729c0     <common>
 0003:000189c4       _xpceGetParamDims          100729c4     <common>
 0003:000189c8       _xpceGetParameter          100729c8     <common>
 0003:000189cc       _xpceSetParameter          100729cc     <common>
 0003:000189d0       _xpceGetSignalValue        100729d0     <common>
 0003:000189d4       _xpceAssignPCIInterrupt    100729d4     <common>
 0003:000189d8       _rl32eGetPCIInfoAtSlot     100729d8     <common>
 0003:000189dc       _rl32eGetPCIInfo           100729dc     <common>
 0003:000189e0       _rl32eShowPCIInfo          100729e0     <common>
 0003:000189e4       _rl32eShowPCIDev           100729e4     <common>
 0003:000189e8       _xpceGetTET                100729e8     <common>
 0003:000189ec       _xpceFTSubtract            100729ec     <common>
 0003:000189f0       _xpceFTAdd                 100729f0     <common>
 0003:000189f4       _xpceFTReadTime            100729f4     <common>
 0003:000189f8       ___unguarded_readlc_active 100729f8     <common>
 0003:00018a08       ___setlc_active            10072a08     <common>
 0003:00018a0c       __nhandle                  10072a0c     <common>
 0003:00018a20       _encodedKERNEL32Functions  10072a20     <common>
 0003:00018ac8       __debugger_hook_dummy      10072ac8     <common>
 0003:00018ad4       ___use_sse2_mathfcns       10072ad4     <common>
 0003:00018ae0       __pmatherr                 10072ae0     <common>
 0003:00018aec       __pDestructExceptionObject 10072aec     <common>
 0003:00018af8       __acmdln                   10072af8     <common>
 0003:00018b20       __bufin                    10072b20     <common>
 0003:00019e5c       ___piob                    10073e5c     <common>
 0003:00019e60       __nstream                  10073e60     <common>
 0003:00019e64       ___dyn_tls_init_callback   10073e64     <common>
 0003:00019e74       ___onexitend               10073e74     <common>
 0003:00019e78       ___onexitbegin             10073e78     <common>
 0003:00019e7c       ___mbctype_initialized     10073e7c     <common>
 0003:00019e80       ___env_initialized         10073e80     <common>
 0004:00000000       __imp__GetModuleHandleA@4  10074000     kernel32:KERNEL32.dll
 0004:00000004       __imp__GetProcAddress@8    10074004     kernel32:KERNEL32.dll
 0004:00000008       __imp__HeapAlloc@12        10074008     kernel32:KERNEL32.dll
 0004:0000000c       __imp__IsDebuggerPresent@0 1007400c     kernel32:KERNEL32.dll
 0004:00000010       __imp__IsProcessorFeaturePresent@4 10074010     kernel32:KERNEL32.dll
 0004:00000014       __imp__EncodePointer@4     10074014     kernel32:KERNEL32.dll
 0004:00000018       __imp__DecodePointer@4     10074018     kernel32:KERNEL32.dll
 0004:0000001c       __imp__GetLastError@0      1007401c     kernel32:KERNEL32.dll
 0004:00000020       __imp__ExitProcess@4       10074020     kernel32:KERNEL32.dll
 0004:00000024       __imp__GetModuleHandleExW@12 10074024     kernel32:KERNEL32.dll
 0004:00000028       __imp__AreFileApisANSI@0   10074028     kernel32:KERNEL32.dll
 0004:0000002c       __imp__MultiByteToWideChar@24 1007402c     kernel32:KERNEL32.dll
 0004:00000030       __imp__WideCharToMultiByte@32 10074030     kernel32:KERNEL32.dll
 0004:00000034       __imp__HeapFree@12         10074034     kernel32:KERNEL32.dll
 0004:00000038       __imp__HeapReAlloc@16      10074038     kernel32:KERNEL32.dll
 0004:0000003c       __imp__EnterCriticalSection@4 1007403c     kernel32:KERNEL32.dll
 0004:00000040       __imp__LeaveCriticalSection@4 10074040     kernel32:KERNEL32.dll
 0004:00000044       __imp__GetStdHandle@4      10074044     kernel32:KERNEL32.dll
 0004:00000048       __imp__GetFileType@4       10074048     kernel32:KERNEL32.dll
 0004:0000004c       __imp__GetModuleFileNameW@12 1007404c     kernel32:KERNEL32.dll
 0004:00000050       __imp__WriteConsoleW@20    10074050     kernel32:KERNEL32.dll
 0004:00000054       __imp__GetCommandLineA@0   10074054     kernel32:KERNEL32.dll
 0004:00000058       __imp__GetCurrentThreadId@0 10074058     kernel32:KERNEL32.dll
 0004:0000005c       __imp__WriteFile@20        1007405c     kernel32:KERNEL32.dll
 0004:00000060       __imp__GetProcessHeap@0    10074060     kernel32:KERNEL32.dll
 0004:00000064       __imp__UnhandledExceptionFilter@4 10074064     kernel32:KERNEL32.dll
 0004:00000068       __imp__SetUnhandledExceptionFilter@4 10074068     kernel32:KERNEL32.dll
 0004:0000006c       __imp__SetLastError@4      1007406c     kernel32:KERNEL32.dll
 0004:00000070       __imp__InitializeCriticalSectionAndSpinCount@8 10074070     kernel32:KERNEL32.dll
 0004:00000074       __imp__CreateEventW@16     10074074     kernel32:KERNEL32.dll
 0004:00000078       __imp__Sleep@4             10074078     kernel32:KERNEL32.dll
 0004:0000007c       __imp__GetCurrentProcess@0 1007407c     kernel32:KERNEL32.dll
 0004:00000080       __imp__TerminateProcess@8  10074080     kernel32:KERNEL32.dll
 0004:00000084       __imp__TlsAlloc@0          10074084     kernel32:KERNEL32.dll
 0004:00000088       __imp__TlsGetValue@4       10074088     kernel32:KERNEL32.dll
 0004:0000008c       __imp__TlsSetValue@8       1007408c     kernel32:KERNEL32.dll
 0004:00000090       __imp__TlsFree@4           10074090     kernel32:KERNEL32.dll
 0004:00000094       __imp__GetStartupInfoW@4   10074094     kernel32:KERNEL32.dll
 0004:00000098       __imp__GetTickCount@0      10074098     kernel32:KERNEL32.dll
 0004:0000009c       __imp__GetModuleHandleW@4  1007409c     kernel32:KERNEL32.dll
 0004:000000a0       __imp__CreateSemaphoreW@16 100740a0     kernel32:KERNEL32.dll
 0004:000000a4       __imp__DeleteCriticalSection@4 100740a4     kernel32:KERNEL32.dll
 0004:000000a8       __imp__FatalAppExitA@8     100740a8     kernel32:KERNEL32.dll
 0004:000000ac       __imp__SetConsoleCtrlHandler@8 100740ac     kernel32:KERNEL32.dll
 0004:000000b0       __imp__FreeLibrary@4       100740b0     kernel32:KERNEL32.dll
 0004:000000b4       __imp__LoadLibraryExW@12   100740b4     kernel32:KERNEL32.dll
 0004:000000b8       __imp__IsValidCodePage@4   100740b8     kernel32:KERNEL32.dll
 0004:000000bc       __imp__GetACP@0            100740bc     kernel32:KERNEL32.dll
 0004:000000c0       __imp__GetOEMCP@0          100740c0     kernel32:KERNEL32.dll
 0004:000000c4       __imp__GetCPInfo@8         100740c4     kernel32:KERNEL32.dll
 0004:000000c8       __imp__CloseHandle@4       100740c8     kernel32:KERNEL32.dll
 0004:000000cc       __imp__RtlUnwind@16        100740cc     kernel32:KERNEL32.dll
 0004:000000d0       __imp__ReadFile@20         100740d0     kernel32:KERNEL32.dll
 0004:000000d4       __imp__GetConsoleMode@8    100740d4     kernel32:KERNEL32.dll
 0004:000000d8       __imp__ReadConsoleW@20     100740d8     kernel32:KERNEL32.dll
 0004:000000dc       __imp__GetConsoleCP@0      100740dc     kernel32:KERNEL32.dll
 0004:000000e0       __imp__DeleteFileW@4       100740e0     kernel32:KERNEL32.dll
 0004:000000e4       __imp__SetFilePointerEx@20 100740e4     kernel32:KERNEL32.dll
 0004:000000e8       __imp__RaiseException@16   100740e8     kernel32:KERNEL32.dll
 0004:000000ec       __imp__OutputDebugStringW@4 100740ec     kernel32:KERNEL32.dll
 0004:000000f0       __imp__GetCurrentThread@0  100740f0     kernel32:KERNEL32.dll
 0004:000000f4       __imp__GetModuleFileNameA@12 100740f4     kernel32:KERNEL32.dll
 0004:000000f8       __imp__QueryPerformanceCounter@4 100740f8     kernel32:KERNEL32.dll
 0004:000000fc       __imp__GetCurrentProcessId@0 100740fc     kernel32:KERNEL32.dll
 0004:00000100       __imp__GetSystemTimeAsFileTime@4 10074100     kernel32:KERNEL32.dll
 0004:00000104       __imp__GetEnvironmentStringsW@0 10074104     kernel32:KERNEL32.dll
 0004:00000108       __imp__FreeEnvironmentStringsW@4 10074108     kernel32:KERNEL32.dll
 0004:0000010c       __imp__HeapSize@12         1007410c     kernel32:KERNEL32.dll
 0004:00000110       __imp__GetDateFormatW@24   10074110     kernel32:KERNEL32.dll
 0004:00000114       __imp__GetTimeFormatW@24   10074114     kernel32:KERNEL32.dll
 0004:00000118       __imp__CompareStringW@24   10074118     kernel32:KERNEL32.dll
 0004:0000011c       __imp__LCMapStringW@24     1007411c     kernel32:KERNEL32.dll
 0004:00000120       __imp__GetLocaleInfoW@16   10074120     kernel32:KERNEL32.dll
 0004:00000124       __imp__IsValidLocale@8     10074124     kernel32:KERNEL32.dll
 0004:00000128       __imp__GetUserDefaultLCID@0 10074128     kernel32:KERNEL32.dll
 0004:0000012c       __imp__EnumSystemLocalesW@8 1007412c     kernel32:KERNEL32.dll
 0004:00000130       __imp__GetStringTypeW@16   10074130     kernel32:KERNEL32.dll
 0004:00000134       __imp__FlushFileBuffers@4  10074134     kernel32:KERNEL32.dll
 0004:00000138       __imp__SetStdHandle@8      10074138     kernel32:KERNEL32.dll
 0004:0000013c       __imp__CreateFileW@28      1007413c     kernel32:KERNEL32.dll
 0004:00000140       __imp__SetEndOfFile@4      10074140     kernel32:KERNEL32.dll
 0004:00000144       \177KERNEL32_NULL_THUNK_DATA 10074144     kernel32:KERNEL32.dll
 0004:000001b0       __IMPORT_DESCRIPTOR_KERNEL32 100741b0     kernel32:KERNEL32.dll
 0004:000001c4       __NULL_IMPORT_DESCRIPTOR   100741c4     kernel32:KERNEL32.dll

 entry point at        0001:00017243

