 FingerStrokeAssistance_xpc

 Timestamp is 58ba1479 (Fri Mar 03 17:12:25 2017)

 Preferred load address is 10000000

 Start         Length     Name                   Class
 0001:00000000 00040f3eH .text$mn                CODE
 0002:00000000 00000104H .CRT$XCA                DATA
 0002:00000104 00000104H .CRT$XCZ                DATA
 0002:00000208 00000104H .CRT$XIA                DATA
 0002:0000030c 00000118H .CRT$XIC                DATA
 0002:00000424 00000104H .CRT$XIZ                DATA
 0002:00000528 00000104H .CRT$XPA                DATA
 0002:0000062c 00000109H .CRT$XPX                DATA
 0002:00000738 00000104H .CRT$XPXA               DATA
 0002:0000083c 00000104H .CRT$XPZ                DATA
 0002:00000940 00000104H .CRT$XTA                DATA
 0002:00000a44 00000104H .CRT$XTZ                DATA
 0002:00000b50 00013b24H .rdata                  DATA
 0002:00014674 000001bbH .rdata$debug            DATA
 0002:00014830 0000010eH .rdata$sxdata           DATA
 0002:00014940 00000104H .rtc$IAA                DATA
 0002:00014a44 00000104H .rtc$IZZ                DATA
 0002:00014b48 00000104H .rtc$TAA                DATA
 0002:00014c4c 00000104H .rtc$TZZ                DATA
 0002:00014d50 00000991H .xdata$x                DATA
 0002:000156f0 00000226H .edata                  DATA
 0003:00000000 00002e3fH .data                   DATA
 0003:00002e40 00016584H .bss                    DATA
 0004:00000000 000001b0H .idata$5                DATA
 0004:000001b0 00000014H .idata$2                DATA
 0004:000001c4 00000014H .idata$3                DATA
 0004:000001d8 000001b0H .idata$4                DATA
 0004:00000388 0000076bH .idata$6                DATA

  Address         Publics by Value              Rva+Base       Lib:Object

 0000:00000000       ___guard_fids_count        00000000     <absolute>
 0000:00000000       ___guard_fids_table        00000000     <absolute>
 0000:00000000       __except_list              00000000     <absolute>
 0000:00000000       ___guard_flags             00000000     <absolute>
 0000:00000003       ___safe_se_handler_count   00000003     <absolute>
 0000:00000000       ___ImageBase               10000000     <linker-defined>
 0001:00000460       _FingerStrokeAssi_MATLABFunction 10001460 f   FingerStrokeAssistance.obj
 0001:000004c0       _FingerStrokeAssistance    100014c0 f   FingerStrokeAssistance.obj
 0001:00001680       _FingerStrokeAssistance_gainramp 10002680 f   FingerStrokeAssistance.obj
 0001:00004670       _MdlInitialize             10005670 f   FingerStrokeAssistance.obj
 0001:00004680       _MdlInitializeSampleTimes  10005680 f   FingerStrokeAssistance.obj
 0001:00004690       _MdlInitializeSizes        10005690 f   FingerStrokeAssistance.obj
 0001:000046a0       _MdlOutputs                100056a0 f   FingerStrokeAssistance.obj
 0001:000046b0       _MdlStart                  100056b0 f   FingerStrokeAssistance.obj
 0001:000046c0       _MdlTerminate              100056c0 f   FingerStrokeAssistance.obj
 0001:00004720       _MdlUpdate                 10005720 f   FingerStrokeAssistance.obj
 0001:00004730       _rt_powd_snf               10005730 f   FingerStrokeAssistance.obj
 0001:000049c0       _rt_roundd_snf             100059c0 f   FingerStrokeAssistance.obj
 0001:00004ac0       _FingerStrokeAssistance_GetCAPIStaticMap 10005ac0 f   FingerStrokeAssistance_capi.obj
 0001:00004ad0       _FingerStrokeAssistance_InitializeDataMapInfo 10005ad0 f   FingerStrokeAssistance_capi.obj
 0001:00004b60       _TgtConnBackgroundTask     10005b60 f   FingerStrokeAssistance_tgtconn.obj
 0001:00004b70       _TgtConnInit               10005b70 f   FingerStrokeAssistance_tgtconn.obj
 0001:00004b90       _TgtConnPostStep           10005b90 f   FingerStrokeAssistance_tgtconn.obj
 0001:00004ba0       _TgtConnPreStep            10005ba0 f   FingerStrokeAssistance_tgtconn.obj
 0001:00004bb0       _TgtConnTerm               10005bb0 f   FingerStrokeAssistance_tgtconn.obj
 0001:00004bc0       _rtGetInf                  10005bc0 f   rtGetInf.obj
 0001:00004bf0       _rtGetInfF                 10005bf0 f   rtGetInf.obj
 0001:00004c10       _rtGetMinusInf             10005c10 f   rtGetInf.obj
 0001:00004c40       _rtGetMinusInfF            10005c40 f   rtGetInf.obj
 0001:00004c60       _rtGetNaN                  10005c60 f   rtGetNaN.obj
 0001:00004c90       _rtGetNaNF                 10005c90 f   rtGetNaN.obj
 0001:000055c0       _rt_CreateLogVar           100065c0 f   rt_logging.obj
 0001:00005650       _rt_CreateLogVarWithConvert 10006650 f   rt_logging.obj
 0001:00005fd0       _rt_CreateStructLogVar     10006fd0 f   rt_logging.obj
 0001:00006d40       _rt_GetMxIdFromDTypeId     10007d40 f   rt_logging.obj
 0001:00006d70       _rt_GetMxIdFromDTypeIdForRSim 10007d70 f   rt_logging.obj
 0001:000096b0       _rt_StartDataLogging       1000a6b0 f   rt_logging.obj
 0001:00009b70       _rt_StartDataLoggingWithStartTime 1000ab70 f   rt_logging.obj
 0001:0000a4d0       _rt_StopDataLogging        1000b4d0 f   rt_logging.obj
 0001:0000a4f0       _rt_StopDataLoggingImpl    1000b4f0 f   rt_logging.obj
 0001:0000a810       _rt_UpdateLogVar           1000b810 f   rt_logging.obj
 0001:0000bbd0       _rt_UpdateStructLogVar     1000cbd0 f   rt_logging.obj
 0001:0000bc60       _rt_UpdateTXXFYLogVars     1000cc60 f   rt_logging.obj
 0001:0000bfa0       _rt_UpdateTXYLogVars       1000cfa0 f   rt_logging.obj
 0001:0000c1f0       _rt_CleanUpForStateLogWithMMI 1000d1f0 f   rt_logging_mmi.obj
 0001:0000c300       _rt_FillStateSigInfoFromMMI 1000d300 f   rt_logging_mmi.obj
 0001:0000c6b0       _rt_mxCreateCharMatrixFromStrings 1000d6b0 f   rt_matrx.obj
 0001:0000c800       _rt_mxCreateDoubleMatrix   1000d800 f   rt_matrx.obj
 0001:0000c860       _rt_mxCreateNumericArray   1000d860 f   rt_matrx.obj
 0001:0000c8e0       _rt_mxCreateString         1000d8e0 f   rt_matrx.obj
 0001:0000c970       _rt_mxDuplicateArray       1000d970 f   rt_matrx.obj
 0001:0000c9d0       _rt_mxGetDimensions        1000d9d0 f   rt_matrx.obj
 0001:0000ca10       _rt_mxGetEps               1000da10 f   rt_matrx.obj
 0001:0000ca20       _rt_mxGetString            1000da20 f   rt_matrx.obj
 0001:0000caa0       _rtIsInf                   1000daa0 f   rt_nonfinite.obj
 0001:0000cae0       _rtIsInfF                  1000dae0 f   rt_nonfinite.obj
 0001:0000cb20       _rtIsNaN                   1000db20 f   rt_nonfinite.obj
 0001:0000cb40       _rtIsNaNF                  1000db40 f   rt_nonfinite.obj
 0001:0000cb60       _rt_InitInfAndNaN          1000db60 f   rt_nonfinite.obj
 0001:0000cbc0       _rtPrintfNoOp              1000dbc0 f   rt_printf.obj
 0001:0000cbd0       _rt_ZCFcn                  1000dbd0 f   rt_zcfcn.obj
 0001:0000cc90       _rtwCAPI_CountSysRan       1000dc90 f   rtw_modelmap_utils.obj
 0001:0000cd30       _rtwCAPI_EncodePath        1000dd30 f   rtw_modelmap_utils.obj
 0001:0000ce20       _rtwCAPI_FillSysRan        1000de20 f   rtw_modelmap_utils.obj
 0001:0000cf10       _rtwCAPI_FreeFullPaths     1000df10 f   rtw_modelmap_utils.obj
 0001:0000cfa0       _rtwCAPI_GetFullStateBlockPath 1000dfa0 f   rtw_modelmap_utils.obj
 0001:0000d150       _rtwCAPI_GetNumContStateRecords 1000e150 f   rtw_modelmap_utils.obj
 0001:0000d210       _rtwCAPI_GetNumSigLogRecords 1000e210 f   rtw_modelmap_utils.obj
 0001:0000d260       _rtwCAPI_GetNumSigLogRecordsForRTWLogging 1000e260 f   rtw_modelmap_utils.obj
 0001:0000d2f0       _rtwCAPI_GetNumStateRecords 1000e2f0 f   rtw_modelmap_utils.obj
 0001:0000d340       _rtwCAPI_GetNumStateRecordsForRTWLogging 1000e340 f   rtw_modelmap_utils.obj
 0001:0000d3d0       _rtwCAPI_GetSigAddrFromMap 1000e3d0 f   rtw_modelmap_utils.obj
 0001:0000d490       _rtwCAPI_GetSigLogRecordInfo 1000e490 f   rtw_modelmap_utils.obj
 0001:0000d8c0       _rtwCAPI_GetStateRecordInfo 1000e8c0 f   rtw_modelmap_utils.obj
 0001:0000dd70       _rtwCAPI_GetStateWidth     1000ed70 f   rtw_modelmap_utils.obj
 0001:0000ddd0       _rtwCAPI_HasStates         1000edd0 f   rtw_modelmap_utils.obj
 0001:0000de40       _rtwCAPI_UpdateFullPaths   1000ee40 f   rtw_modelmap_utils.obj
 0001:0000e020       _DllMain@12                1000f020 f   xpctarget.obj
 0001:0000e030       _FingerStrokeAssistance_ChangeStepSize 1000f030 f   xpctarget.obj
 0001:0000e080       _SLRTSetErrorStatus        1000f080 f   xpctarget.obj
 0001:0000e0a0       _changeStepSize            1000f0a0 f   xpctarget.obj
 0001:0000e0f0       _getDLMVersion             1000f0f0 f   xpctarget.obj
 0001:0000e100       _getRefMdlPath             1000f100 f   xpctarget.obj
 0001:0000e180       _getRefMdlSignalNumber     1000f180 f   xpctarget.obj
 0001:0000e230       _getrlmdlinfo              1000f230 f   xpctarget.obj
 0001:0000e410       _updateDiscreteEvents      1000f410 f   xpctarget.obj
 0001:0000e420       _getNumRef                 1000f420 f   appmappingData.obj
 0001:0000e430       _encnipcim                 1000f430 f   encnipcim.obj
 0001:0000ea60       _danipcim                  1000fa60 f   danipcim.obj
 0001:0000f200       _adnipcim                  10010200 f   adnipcim.obj
 0001:0000fc30       _niMIdentify               10010c30 f   xpcionim.obj
 0001:0000fdb0       _niM_AISetup               10010db0 f   xpcionim.obj
 0001:000101c0       _niM_AO_Setup              100111c0 f   xpcionim.obj
 0001:00010350       _niM_Cont_Pulse_Train_Generation 10011350 f   xpcionim.obj
 0001:00010490       _niM_Counter_Reset_All     10011490 f   xpcionim.obj
 0001:00010540       _niM_CtrArm                10011540 f   xpcionim.obj
 0001:00010560       _niM_CtrDisarm             10011560 f   xpcionim.obj
 0001:00010580       _niM_CtrReadArm            10011580 f   xpcionim.obj
 0001:000105a0       _niM_CtrReadDisarm         100115a0 f   xpcionim.obj
 0001:000105c0       _niM_PeriodConfigure       100115c0 f   xpcionim.obj
 0001:00010730       _niM_Private_Data          10011730 f   xpcionim.obj
 0001:00010d10       _niM_SetPFIFilter          10011d10 f   xpcionim.obj
 0001:00010d90       _niM_SetPFI_DO             10011d90 f   xpcionim.obj
 0001:00010de0       _niM_SetPFI_Select         10011de0 f   xpcionim.obj
 0001:00010e60       _niM_aiConfigureChannel    10011e60 f   xpcionim.obj
 0001:00010ed0       _niM_aiGetScalingCoefficients 10011ed0 f   xpcionim.obj
 0001:000110b0       _niM_aiPolynomialScaler    100120b0 f   xpcionim.obj
 0001:000111d0       _niM_analogTriggerReset    100121d0 f   xpcionim.obj
 0001:00011220       _niM_aoConfigureDAC        10012220 f   xpcionim.obj
 0001:00011270       _niM_aoGetScalingCoefficients 10012270 f   xpcionim.obj
 0001:00011320       _niM_aoLinearScaler        10012320 f   xpcionim.obj
 0001:00011350       _niM_configureTimebase     10012350 f   xpcionim.obj
 0001:00011370       _niM_eepromReadMSeries     10012370 f   xpcionim.obj
 0001:00011440       _niM_pllReset              10012440 f   xpcionim.obj
 0001:00011470       _niM_resetCtr              10012470 f   xpcionim.obj
 0001:00011490       _niM_whichBank             10012490 f   xpcionim.obj
 0001:000114d0       _niMconfig                 100124d0 f   xpcionim.obj
 0001:00011570       _GetPCIDeviceFull          10012570 f   xpcruntime:xpcimports.obj
 0001:000115a0       _ShowPCIDevice             100125a0 f   xpcruntime:xpcimports.obj
 0001:00011c10       _xpcGetPciConfigAtSlot     10012c10 f   xpcruntime:xpcimports.obj
 0001:00011e90       _xpcInitProcs              10012e90 f   xpcruntime:xpcimports.obj
 0001:000129f0       _xpceuploadevent           100139f0 f   xpcruntime:xpcimports.obj
 0001:000129f1       __heap_alloc               100139f1 f i LIBCMT:malloc.obj
 0001:00012a2e       _malloc                    10013a2e f   LIBCMT:malloc.obj
 0001:00012ac0       __get_printf_count_output  10013ac0 f   LIBCMT:printf.obj
 0001:00012ad5       __printf_l                 10013ad5 f   LIBCMT:printf.obj
 0001:00012aec       __printf_p                 10013aec f   LIBCMT:printf.obj
 0001:00012b02       __printf_p_l               10013b02 f   LIBCMT:printf.obj
 0001:00012b19       __printf_s_l               10013b19 f   LIBCMT:printf.obj
 0001:00012b30       __set_printf_count_output  10013b30 f   LIBCMT:printf.obj
 0001:00012b58       _printf                    10013b58 f   LIBCMT:printf.obj
 0001:00012c07       _printf_s                  10013c07 f   LIBCMT:printf.obj
 0001:00012c1d       ___libm_sse2_pow           10013c1d f   LIBCMT:pow_sse2.obj
 0001:000136a0       _ceil                      100146a0 f   LIBCMT:ceil_pentium4.obj
 0001:000136e0       __ceil_pentium4            100146e0 f   LIBCMT:ceil_pentium4.obj
 0001:000137c0       _memset                    100147c0 f   LIBCMT:memset.obj
 0001:00013850       __fpmath                   10014850 f   LIBCMT:fpinit.obj
 0001:00013867       ___setfflag                10014867 f   LIBCMT:fpinit.obj
 0001:0001387a       __cfltcvt_init             1001487a f   LIBCMT:fpinit.obj
 0001:000138da       ___raise_securityfailure   100148da f   LIBCMT:gs_report.obj
 0001:00013917       ___report_gsfailure        10014917 f   LIBCMT:gs_report.obj
 0001:00013a12       ___report_rangecheckfailure 10014a12 f   LIBCMT:gs_report.obj
 0001:00013a1e       ___report_securityfailure  10014a1e f   LIBCMT:gs_report.obj
 0001:00013aee       ___report_securityfailureEx 10014aee f   LIBCMT:gs_report.obj
 0001:00013c04       ___copy_path_to_wide_string 10014c04 f   LIBCMT:crt0dat.obj
 0001:00013cb6       ___copy_to_char            10014cb6 f   LIBCMT:crt0dat.obj
 0001:00013d6b       ___crtCorExitProcess       10014d6b f   LIBCMT:crt0dat.obj
 0001:00013d9f       ___crtExitProcess          10014d9f f   LIBCMT:crt0dat.obj
 0001:00013db5       ___freeCrtMemory           10014db5 f   LIBCMT:crt0dat.obj
 0001:00013ec2       __amsg_exit                10014ec2 f   LIBCMT:crt0dat.obj
 0001:00013ede       __c_exit                   10014ede f   LIBCMT:crt0dat.obj
 0001:00013eed       __cexit                    10014eed f   LIBCMT:crt0dat.obj
 0001:00013efc       __cinit                    10014efc f   LIBCMT:crt0dat.obj
 0001:00013f80       __exit                     10014f80 f   LIBCMT:crt0dat.obj
 0001:00013f94       __exit_app                 10014f94 f   LIBCMT:crt0dat.obj
 0001:00013fa2       __get_pgmptr               10014fa2 f   LIBCMT:crt0dat.obj
 0001:00013fd1       __get_wpgmptr              10014fd1 f   LIBCMT:crt0dat.obj
 0001:00014000       __init_pointers            10015000 f   LIBCMT:crt0dat.obj
 0001:0001406e       __initterm_e               1001506e f   LIBCMT:crt0dat.obj
 0001:00014090       __lockexit                 10015090 f   LIBCMT:crt0dat.obj
 0001:00014099       __unlockexit               10015099 f   LIBCMT:crt0dat.obj
 0001:000141d1       _exit                      100151d1 f   LIBCMT:crt0dat.obj
 0001:000141e5       _calloc                    100151e5 f   LIBCMT:calloc.obj
 0001:00014225       _free                      10015225 f   LIBCMT:free.obj
 0001:0001425d       _realloc                   1001525d f   LIBCMT:realloc.obj
 0001:00014310       _memmove                   10015310 f   LIBCMT:memmove.obj
 0001:00014960       _strchr                    10015960 f   LIBCMT:strchr.obj
 0001:000149ce       ___from_strstr_to_strchr   100159ce     LIBCMT:strchr.obj
 0001:00014a90       _strncat                   10015a90 f   LIBCMT:strncat.obj
 0001:00014bd0       _strncpy                   10015bd0 f   LIBCMT:strncpy.obj
 0001:00014cf4       ___initstdio               10015cf4 f   LIBCMT:_file.obj
 0001:00014d67       ___endstdio                10015d67 f   LIBCMT:_file.obj
 0001:00014d8e       ___iob_func                10015d8e f   LIBCMT:_file.obj
 0001:00014d94       __lock_file                10015d94 f   LIBCMT:_file.obj
 0001:00014dd3       __lock_file2               10015dd3 f   LIBCMT:_file.obj
 0001:00014e03       __unlock_file              10015e03 f   LIBCMT:_file.obj
 0001:00014e3d       __unlock_file2             10015e3d f   LIBCMT:_file.obj
 0001:00014e6a       __fclose_nolock            10015e6a f   LIBCMT:fclose.obj
 0001:00014ed6       _fclose                    10015ed6 f   LIBCMT:fclose.obj
 0001:00014f4d       __fsopen                   10015f4d f   LIBCMT:fopen.obj
 0001:00015011       _fopen                     10016011 f   LIBCMT:fopen.obj
 0001:00015026       _fopen_s                   10016026 f   LIBCMT:fopen.obj
 0001:0001506b       __fprintf_l                1001606b f   LIBCMT:fprintf.obj
 0001:00015085       __fprintf_p                10016085 f   LIBCMT:fprintf.obj
 0001:0001509e       __fprintf_p_l              1001609e f   LIBCMT:fprintf.obj
 0001:000150b8       __fprintf_s_l              100160b8 f   LIBCMT:fprintf.obj
 0001:000150d2       _fprintf                   100160d2 f   LIBCMT:fprintf.obj
 0001:000151e4       _fprintf_s                 100161e4 f   LIBCMT:fprintf.obj
 0001:000151fd       __fread_nolock             100161fd f   LIBCMT:fread.obj
 0001:00015218       __fread_nolock_s           10016218 f   LIBCMT:fread.obj
 0001:000153dd       _fread                     100163dd f   LIBCMT:fread.obj
 0001:000153f8       _fread_s                   100163f8 f   LIBCMT:fread.obj
 0001:00015489       __fwrite_nolock            10016489 f   LIBCMT:fwrite.obj
 0001:000155e2       _fwrite                    100165e2 f   LIBCMT:fwrite.obj
 0001:00015664       __unlink                   10016664 f   LIBCMT:unlink.obj
 0001:0001566d       _remove                    1001666d f   LIBCMT:unlink.obj
 0001:000156af       _rewind                    100166af f   LIBCMT:rewind.obj
 0001:0001576e       __scprintf                 1001676e f   LIBCMT:sprintf.obj
 0001:00015781       __scprintf_l               10016781 f   LIBCMT:sprintf.obj
 0001:00015798       __scprintf_p               10016798 f   LIBCMT:sprintf.obj
 0001:000157ab       __scprintf_p_l             100167ab f   LIBCMT:sprintf.obj
 0001:000157c2       __snprintf_s               100167c2 f   LIBCMT:sprintf.obj
 0001:000157e1       __snprintf_s_l             100167e1 f   LIBCMT:sprintf.obj
 0001:00015801       __sprintf_l                10016801 f   LIBCMT:sprintf.obj
 0001:0001581b       __sprintf_p                1001681b f   LIBCMT:sprintf.obj
 0001:00015837       __sprintf_p_l              10016837 f   LIBCMT:sprintf.obj
 0001:00015854       __sprintf_s_l              10016854 f   LIBCMT:sprintf.obj
 0001:00015871       _sprintf                   10016871 f   LIBCMT:sprintf.obj
 0001:000158f5       _sprintf_s                 100168f5 f   LIBCMT:sprintf.obj
 0001:00015911       _ldexp                     10016911 f   LIBCMT:ldexp.obj
 0001:00015afd       @__security_check_cookie@4 10016afd f   LIBCMT:secchk.obj
 0001:00015b10       __ftoui3                   10016b10 f   LIBCMT:ftol3.obj
 0001:00015b1f       __ftoul3                   10016b1f f   LIBCMT:ftol3.obj
 0001:00015b2e       __ftol3                    10016b2e f   LIBCMT:ftol3.obj
 0001:00015b3b       __ftol3_NaN                10016b3b f   LIBCMT:ftol3.obj
 0001:00015b53       __ftol3_work               10016b53 f   LIBCMT:ftol3.obj
 0001:00015bd9       __ftol3_common             10016bd9 f   LIBCMT:ftol3.obj
 0001:00015c9b       __ftol3_arg_error          10016c9b f   LIBCMT:ftol3.obj
 0001:00015cad       __ftol3_except             10016cad f   LIBCMT:ftol3.obj
 0001:00015cef       __dtoui3                   10016cef f   LIBCMT:ftol3.obj
 0001:00015cfe       __dtoul3                   10016cfe f   LIBCMT:ftol3.obj
 0001:00015d0d       __dtol3                    10016d0d f   LIBCMT:ftol3.obj
 0001:00015d1a       __dtol3_NaN                10016d1a f   LIBCMT:ftol3.obj
 0001:00015d37       __dtol3_work               10016d37 f   LIBCMT:ftol3.obj
 0001:00015e1c       __ultod3                   10016e1c f   LIBCMT:ftol3.obj
 0001:00015ead       __ltod3                    10016ead f   LIBCMT:ftol3.obj
 0001:00015ee0       _memcpy                    10016ee0 f   LIBCMT:memcpy.obj
 0001:00016524       ___isa_available_init      10017524 f   LIBCMT:cpu_disp.obj
 0001:0001669d       __invoke_watson_if_error   1001769d f i LIBCMT:wassert.obj
 0001:000166bd       __wassert                  100176bd f   LIBCMT:wassert.obj
 0001:00016d61       __CRT_INIT@12              10017d61 f   LIBCMT:dllcrt0.obj
 0001:00016ed3       __DllMainCRTStartup@12     10017ed3 f   LIBCMT:dllcrt0.obj
 0001:00017004       ___DllXcptFilter           10018004 f   LIBCMT:dllcrt0.obj
 0001:00017029       ?_query_new_handler@@YAP6AHI@ZXZ 10018029 f   LIBCMT:handler.obj
 0001:00017036       ?_set_new_handler@@YAP6AHI@ZH@Z 10018036 f   LIBCMT:handler.obj
 0001:0001703f       ?_set_new_handler@@YAP6AHI@ZP6AHI@Z@Z 1001803f f   LIBCMT:handler.obj
 0001:00017074       __callnewh                 10018074 f   LIBCMT:handler.obj
 0001:0001709a       __initp_heap_handler       1001809a f   LIBCMT:handler.obj
 0001:000170a7       __FF_MSGBANNER             100180a7 f   LIBCMT:crt0msg.obj
 0001:000170e0       __GET_RTERRMSG             100180e0 f   LIBCMT:crt0msg.obj
 0001:00017104       __NMSG_WRITE               10018104 f   LIBCMT:crt0msg.obj
 0001:000172c1       ___doserrno                100182c1 f   LIBCMT:dosmap.obj
 0001:000172d4       __dosmaperr                100182d4 f   LIBCMT:dosmap.obj
 0001:000172f5       __errno                    100182f5 f   LIBCMT:dosmap.obj
 0001:00017308       __get_doserrno             10018308 f   LIBCMT:dosmap.obj
 0001:0001732b       __get_errno                1001832b f   LIBCMT:dosmap.obj
 0001:0001734e       __get_errno_from_oserr     1001834e f   LIBCMT:dosmap.obj
 0001:0001738f       __set_doserrno             1001838f f   LIBCMT:dosmap.obj
 0001:000173ae       __set_errno                100183ae f   LIBCMT:dosmap.obj
 0001:000173cd       __get_heap_handle          100183cd f   LIBCMT:heapinit.obj
 0001:000173d3       __heap_init                100183d3 f   LIBCMT:heapinit.obj
 0001:000173e8       __heap_term                100183e8 f   LIBCMT:heapinit.obj
 0001:000173f0       ?_invalid_parameter@@YAXPBG00II@Z 100183f0 f   LIBCMT:invarg.obj
 0001:000173f5       ?_invoke_watson@@YAXPBG00II@Z 100183f5 f   LIBCMT:invarg.obj
 0001:0001740d       __call_reportfault         1001840d f   LIBCMT:invarg.obj
 0001:00017532       __get_invalid_parameter_handler 10018532 f   LIBCMT:invarg.obj
 0001:0001753f       __initp_misc_invarg        1001853f f   LIBCMT:invarg.obj
 0001:0001754c       __invalid_parameter        1001854c f   LIBCMT:invarg.obj
 0001:00017577       __invalid_parameter_noinfo 10018577 f   LIBCMT:invarg.obj
 0001:00017587       __invalid_parameter_noinfo_noreturn 10018587 f   LIBCMT:invarg.obj
 0001:000175a2       __invoke_watson            100185a2 f   LIBCMT:invarg.obj
 0001:000175cd       __set_invalid_parameter_handler 100185cd f   LIBCMT:invarg.obj
 0001:000175f2       __vprintf_l                100185f2 f   LIBCMT:vprintf.obj
 0001:0001760d       __vprintf_p                1001860d f   LIBCMT:vprintf.obj
 0001:00017627       __vprintf_p_l              10018627 f   LIBCMT:vprintf.obj
 0001:00017642       __vprintf_s_l              10018642 f   LIBCMT:vprintf.obj
 0001:0001765d       _vprintf                   1001865d f   LIBCMT:vprintf.obj
 0001:00017677       _vprintf_helper            10018677 f   LIBCMT:vprintf.obj
 0001:00017704       _vprintf_s                 10018704 f   LIBCMT:vprintf.obj
 0001:0001771e       __ftbuf                    1001871e f   LIBCMT:_sftbuf.obj
 0001:0001774f       __stbuf                    1001874f f   LIBCMT:_sftbuf.obj
 0001:000177f5       ??0_LocaleUpdate@@QAE@PAUlocaleinfo_struct@@@Z 100187f5 f i LIBCMT:output.obj
 0001:0001787d       ??1_LocaleUpdate@@QAE@XZ   1001887d f i LIBCMT:output.obj
 0001:0001788b       ?GetLocaleT@_LocaleUpdate@@QAEPAUlocaleinfo_struct@@XZ 1001888b f i LIBCMT:output.obj
 0001:0001788e       __output_l                 1001888e f   LIBCMT:output.obj
 0001:0001840e       _get_int64_arg             1001940e f i LIBCMT:output.obj
 0001:00018421       _get_int_arg               10019421 f i LIBCMT:output.obj
 0001:00018431       _get_short_arg             10019431 f i LIBCMT:output.obj
 0001:00018530       __SEH_prolog4              10019530 f   LIBCMT:sehprolg4.obj
 0001:00018575       __SEH_epilog4              10019575 f   LIBCMT:sehprolg4.obj
 0001:000185d0       __except_handler4          100195d0 f   LIBCMT:chandler4.obj
 0001:00018764       ___libm_error_support      10019764 f   LIBCMT:libm_error.obj
 0001:00018a4c       ___libm_setusermatherr     10019a4c f   LIBCMT:libm_error.obj
 0001:00018a78       __sse2_mathfcns_init       10019a78 f   LIBCMT:mathfcns.obj
 0001:00018a87       __set_SSE2_enable          10019a87 f   LIBCMT:mathfcns.obj
 0001:00018aa6       __ceil_default             10019aa6 f   LIBCMT:ceil.obj
 0001:00018b7d       __VEC_memset               10019b7d f   LIBCMT:p4_memset.obj
 0001:00018c45       ?strrchr@@YAPADPADH@Z      10019c45 f i LIBCMT:cvt.obj
 0001:00018c4e       __cfltcvt                  10019c4e f   LIBCMT:cvt.obj
 0001:00018c6f       __cfltcvt_l                10019c6f f   LIBCMT:cvt.obj
 0001:00018cf5       __cftoa                    10019cf5 f   LIBCMT:cvt.obj
 0001:00018d13       __cftoa_l                  10019d13 f   LIBCMT:cvt.obj
 0001:0001906f       __cftoe                    1001a06f f   LIBCMT:cvt.obj
 0001:000191de       __cftoe_l                  1001a1de f   LIBCMT:cvt.obj
 0001:000192ac       __cftof                    1001a2ac f   LIBCMT:cvt.obj
 0001:000193b3       __cftof_l                  1001a3b3 f   LIBCMT:cvt.obj
 0001:00019474       __cftog                    1001a474 f   LIBCMT:cvt.obj
 0001:00019492       __cftog_l                  1001a492 f   LIBCMT:cvt.obj
 0001:00019591       __cropzeros                1001a591 f   LIBCMT:cvt.obj
 0001:000195a2       __cropzeros_l              1001a5a2 f   LIBCMT:cvt.obj
 0001:00019622       __fassign                  1001a622 f   LIBCMT:cvt.obj
 0001:0001963a       __fassign_l                1001a63a f   LIBCMT:cvt.obj
 0001:0001967c       __forcdecpt                1001a67c f   LIBCMT:cvt.obj
 0001:0001968d       __forcdecpt_l              1001a68d f   LIBCMT:cvt.obj
 0001:00019701       __positive                 1001a701 f   LIBCMT:cvt.obj
 0001:00019743       __setdefaultprecision      1001a743 f   LIBCMT:fp8.obj
 0001:0001976a       __initp_misc_cfltcvt_tab   1001a76a f   LIBCMT:cmiscdat.obj
 0001:00019789       __crt_debugger_hook        1001a789 f   LIBCMT:dbghook.obj
 0001:000197be       ___crtCloseThreadpoolTimer 1001a7be f   LIBCMT:winapisupp.obj
 0001:000197d5       ___crtCloseThreadpoolWait  1001a7d5 f   LIBCMT:winapisupp.obj
 0001:000197ec       ___crtCreateEventExW       1001a7ec f   LIBCMT:winapisupp.obj
 0001:00019827       ___crtCreateSemaphoreExW   1001a827 f   LIBCMT:winapisupp.obj
 0001:00019861       ___crtCreateSymbolicLinkW  1001a861 f   LIBCMT:winapisupp.obj
 0001:0001988a       ___crtCreateThreadpoolTimer 1001a88a f   LIBCMT:winapisupp.obj
 0001:000198ab       ___crtCreateThreadpoolWait 1001a8ab f   LIBCMT:winapisupp.obj
 0001:000198cc       ___crtFlsAlloc             1001a8cc f   LIBCMT:winapisupp.obj
 0001:000198ea       ___crtFlsFree              1001a8ea f   LIBCMT:winapisupp.obj
 0001:00019909       ___crtFlsGetValue          1001a909 f   LIBCMT:winapisupp.obj
 0001:00019928       ___crtFlsSetValue          1001a928 f   LIBCMT:winapisupp.obj
 0001:0001994a       ___crtFlushProcessWriteBuffers 1001a94a f   LIBCMT:winapisupp.obj
 0001:0001995a       ___crtFreeLibraryWhenCallbackReturns 1001a95a f   LIBCMT:winapisupp.obj
 0001:00019974       ___crtGetCurrentProcessorNumber 1001a974 f   LIBCMT:winapisupp.obj
 0001:00019986       ___crtGetFileInformationByHandleEx 1001a986 f   LIBCMT:winapisupp.obj
 0001:000199b2       ___crtGetLogicalProcessorInformation 1001a9b2 f   LIBCMT:winapisupp.obj
 0001:000199d8       ___crtGetShowWindowMode    1001a9d8 f   LIBCMT:winapisupp.obj
 0001:000199fb       ___crtGetTickCount64       1001a9fb f   LIBCMT:winapisupp.obj
 0001:00019a13       ___crtInitializeCriticalSectionEx 1001aa13 f   LIBCMT:winapisupp.obj
 0001:00019a41       ___crtIsPackagedApp        1001aa41 f   LIBCMT:winapisupp.obj
 0001:00019a81       ___crtLoadWinApiPointers   1001aa81 f   LIBCMT:winapisupp.obj
 0001:00019d0c       ___crtSetFileInformationByHandle 1001ad0c f   LIBCMT:winapisupp.obj
 0001:00019d38       ___crtSetThreadStackGuarantee 1001ad38 f   LIBCMT:winapisupp.obj
 0001:00019d53       ___crtSetThreadpoolTimer   1001ad53 f   LIBCMT:winapisupp.obj
 0001:00019d73       ___crtSetThreadpoolWait    1001ad73 f   LIBCMT:winapisupp.obj
 0001:00019d90       ___crtSetUnhandledExceptionFilter 1001ad90 f   LIBCMT:winapisupp.obj
 0001:00019d9e       ___crtSleep                1001ad9e f   LIBCMT:winapisupp.obj
 0001:00019dac       ___crtTerminateProcess     1001adac f   LIBCMT:winapisupp.obj
 0001:00019dc1       ___crtUnhandledException   1001adc1 f   LIBCMT:winapisupp.obj
 0001:00019dd7       ___crtWaitForThreadpoolTimerCallbacks 1001add7 f   LIBCMT:winapisupp.obj
 0001:00019df1       __RTC_Initialize           1001adf1 f   LIBCMT:initsect.obj
 0001:00019e11       __RTC_Terminate            1001ae11 f   LIBCMT:initsect.obj
 0001:00019e31       __lock                     1001ae31 f   LIBCMT:mlock.obj
 0001:00019e65       __lockerr_exit             1001ae65 f   LIBCMT:mlock.obj
 0001:00019e85       __mtdeletelocks            1001ae85 f   LIBCMT:mlock.obj
 0001:00019ed9       __mtinitlocknum            1001aed9 f   LIBCMT:mlock.obj
 0001:00019f82       __mtinitlocks              1001af82 f   LIBCMT:mlock.obj
 0001:00019fbb       __unlock                   1001afbb f   LIBCMT:mlock.obj
 0001:00019fd0       __FindPESection            1001afd0 f   LIBCMT:pesect.obj
 0001:0001a020       __IsNonwritableInCurrentImage 1001b020 f   LIBCMT:pesect.obj
 0001:0001a0e0       __ValidateImageBase        1001b0e0 f   LIBCMT:pesect.obj
 0001:0001a111       ___onexitinit              1001b111 f   LIBCMT:onexit.obj
 0001:0001a140       __onexit                   1001b140 f   LIBCMT:onexit.obj
 0001:0001a23c       _atexit                    1001b23c f   LIBCMT:onexit.obj
 0001:0001a251       __calloc_crt               1001b251 f   LIBCMT:crtheap.obj
 0001:0001a299       __malloc_crt               1001b299 f   LIBCMT:crtheap.obj
 0001:0001a2e0       __realloc_crt              1001b2e0 f   LIBCMT:crtheap.obj
 0001:0001a32a       __recalloc_crt             1001b32a f   LIBCMT:crtheap.obj
 0001:0001a378       __set_malloc_crt_max_wait  1001b378 f   LIBCMT:crtheap.obj
 0001:0001a38b       _wait_a_bit                1001b38b f i LIBCMT:crtheap.obj
 0001:0001a3af       ?_inconsistency@@YAXXZ     1001b3af f   LIBCMT:hooks.obj
 0001:0001a3e7       ?terminate@@YAXXZ          1001b3e7 f   LIBCMT:hooks.obj
 0001:0001a41b       ?unexpected@@YAXXZ         1001b41b f   LIBCMT:hooks.obj
 0001:0001a42e       __initp_eh_hooks           1001b42e f   LIBCMT:hooks.obj
 0001:0001a43f       ___getlocaleinfo           1001b43f f   LIBCMT:inithelp.obj
 0001:0001a618       __initp_misc_purevirt      1001b618 f   LIBCMT:inithelp.obj
 0001:0001a625       ___fpecode                 1001b625 f   LIBCMT:winsig.obj
 0001:0001a62e       ___get_sigabrt             1001b62e f   LIBCMT:winsig.obj
 0001:0001a63b       ___pxcptinfoptrs           1001b63b f   LIBCMT:winsig.obj
 0001:0001a644       __initp_misc_winsig        1001b644 f   LIBCMT:winsig.obj
 0001:0001a705       _raise                     1001b705 f   LIBCMT:winsig.obj
 0001:0001a8fa       _signal                    1001b8fa f   LIBCMT:winsig.obj
 0001:0001ab51       __initp_misc_rand_s        1001bb51 f   LIBCMT:rand_s.obj
 0001:0001ab5e       _rand_s                    1001bb5e f   LIBCMT:rand_s.obj
 0001:0001ac64       ___initmbctable            1001bc64 f   LIBCMT:mbctype.obj
 0001:0001af1b       ___updatetmbcinfo          1001bf1b f   LIBCMT:mbctype.obj
 0001:0001afc1       __getmbcp                  1001bfc1 f   LIBCMT:mbctype.obj
 0001:0001aff2       __setmbcp                  1001bff2 f   LIBCMT:mbctype.obj
 0001:0001b19a       __setmbcp_nolock           1001c19a f   LIBCMT:mbctype.obj
 0001:0001b385       __calloc_impl              1001c385 f   LIBCMT:calloc_impl.obj
 0001:0001b3ff       __fcloseall                1001c3ff f   LIBCMT:closeall.obj
 0001:0001b49c       __fflush_nolock            1001c49c f   LIBCMT:fflush.obj
 0001:0001b4e2       __flush                    1001c4e2 f   LIBCMT:fflush.obj
 0001:0001b546       __flushall                 1001c546 f   LIBCMT:fflush.obj
 0001:0001b54f       _fflush                    1001c54f f   LIBCMT:fflush.obj
 0001:0001b68c       __fileno                   1001c68c f   LIBCMT:fileno.obj
 0001:0001b6b0       __close                    1001c6b0 f   LIBCMT:close.obj
 0001:0001b78b       __close_nolock             1001c78b f   LIBCMT:close.obj
 0001:0001b825       __freebuf                  1001c825 f   LIBCMT:_freebuf.obj
 0001:0001b855       __getstream                1001c855 f   LIBCMT:stream.obj
 0001:0001b974       __openfile                 1001c974 f   LIBCMT:_open.obj
 0001:0001bbf0       __local_unwind4            1001cbf0 f   LIBCMT:exsup4.obj
 0001:0001bcc6       __seh_longjmp_unwind4@4    1001ccc6 f   LIBCMT:exsup4.obj
 0001:0001bce2       @_EH4_CallFilterFunc@8     1001cce2 f   LIBCMT:exsup4.obj
 0001:0001bcf9       @_EH4_TransferToHandler@8  1001ccf9 f   LIBCMT:exsup4.obj
 0001:0001bd12       @_EH4_GlobalUnwind2@8      1001cd12 f   LIBCMT:exsup4.obj
 0001:0001bd2b       @_EH4_LocalUnwind@16       1001cd2b f   LIBCMT:exsup4.obj
 0001:0001bd42       __vfprintf_l               1001cd42 f   LIBCMT:vfprintf.obj
 0001:0001bd60       __vfprintf_p               1001cd60 f   LIBCMT:vfprintf.obj
 0001:0001bd7d       __vfprintf_p_l             1001cd7d f   LIBCMT:vfprintf.obj
 0001:0001bd9b       __vfprintf_s_l             1001cd9b f   LIBCMT:vfprintf.obj
 0001:0001bdb9       _vfprintf                  1001cdb9 f   LIBCMT:vfprintf.obj
 0001:0001bdd6       _vfprintf_helper           1001cdd6 f   LIBCMT:vfprintf.obj
 0001:0001bee7       _vfprintf_s                1001cee7 f   LIBCMT:vfprintf.obj
 0001:0001bf04       __ioinit                   1001cf04 f   LIBCMT:ioinit.obj
 0001:0001c1b8       __ioterm                   1001d1b8 f   LIBCMT:ioinit.obj
 0001:0001c20a       __filbuf                   1001d20a f   LIBCMT:_filbuf.obj
 0001:0001c32b       _memcpy_s                  1001d32b f   LIBCMT:memcpy_s.obj
 0001:0001c3aa       __read                     1001d3aa f   LIBCMT:read.obj
 0001:0001c4be       __read_nolock              1001d4be f   LIBCMT:read.obj
 0001:0001cc4f       __flsbuf                   1001dc4f f   LIBCMT:_flsbuf.obj
 0001:0001cd9e       __write                    1001dd9e f   LIBCMT:write.obj
 0001:0001ce8d       __write_nolock             1001de8d f   LIBCMT:write.obj
 0001:0001d6f2       __wremove                  1001e6f2 f   LIBCMT:wunlink.obj
 0001:0001d720       __wunlink                  1001e720 f   LIBCMT:wunlink.obj
 0001:0001d729       __lseek                    1001e729 f   LIBCMT:lseek.obj
 0001:0001d818       __lseek_nolock             1001e818 f   LIBCMT:lseek.obj
 0001:0001d8bf       __vscprintf                1001e8bf f   LIBCMT:vsprintf.obj
 0001:0001d8d9       __vscprintf_helper         1001e8d9 f   LIBCMT:vsprintf.obj
 0001:0001d935       __vscprintf_l              1001e935 f   LIBCMT:vsprintf.obj
 0001:0001d950       __vscprintf_p              1001e950 f   LIBCMT:vsprintf.obj
 0001:0001d96a       __vscprintf_p_l            1001e96a f   LIBCMT:vsprintf.obj
 0001:0001d985       __vsprintf_l               1001e985 f   LIBCMT:vsprintf.obj
 0001:0001da09       _vsprintf                  1001ea09 f   LIBCMT:vsprintf.obj
 0001:0001da21       __vsnprintf_c              1001ea21 f   LIBCMT:vsnprnc.obj
 0001:0001da48       __vsnprintf_c_l            1001ea48 f   LIBCMT:vsnprnc.obj
 0001:0001da70       __vsnprintf_helper         1001ea70 f   LIBCMT:vsnprnc.obj
 0001:0001db3a       __vsnprintf_s              1001eb3a f   LIBCMT:vsnprnc.obj
 0001:0001db58       __vsnprintf_s_l            1001eb58 f   LIBCMT:vsnprnc.obj
 0001:0001dc58       __vsprintf_p               1001ec58 f   LIBCMT:vsnprnc.obj
 0001:0001dc7f       __vsprintf_p_l             1001ec7f f   LIBCMT:vsnprnc.obj
 0001:0001dca7       __vsprintf_s_l             1001eca7 f   LIBCMT:vsnprnc.obj
 0001:0001dd1c       _vsprintf_s                1001ed1c f   LIBCMT:vsnprnc.obj
 0001:0001dd37       __chgsign                  1001ed37 f   LIBCMT:ieeemisc.obj
 0001:0001dd64       __chgsignf                 1001ed64 f   LIBCMT:ieeemisc.obj
 0001:0001dd85       __copysign                 1001ed85 f   LIBCMT:ieeemisc.obj
 0001:0001ddad       __copysignf                1001edad f   LIBCMT:ieeemisc.obj
 0001:0001ddc9       __finite                   1001edc9 f   LIBCMT:ieeemisc.obj
 0001:0001dde1       __fpclass                  1001ede1 f   LIBCMT:ieeemisc.obj
 0001:0001de7d       __isnan                    1001ee7d f   LIBCMT:ieeemisc.obj
 0001:0001deb0       __logb                     1001eeb0 f   LIBCMT:ieeemisc.obj
 0001:0001df91       __nextafter                1001ef91 f   LIBCMT:ieeemisc.obj
 0001:0001e231       __scalb                    1001f231 f   LIBCMT:ieeemisc.obj
 0001:0001e249       __add_exp                  1001f249 f   LIBCMT:util.obj
 0001:0001e278       __decomp                   1001f278 f   LIBCMT:util.obj
 0001:0001e34a       __get_exp                  1001f34a f   LIBCMT:util.obj
 0001:0001e363       __set_bexp                 1001f363 f   LIBCMT:util.obj
 0001:0001e38c       __set_exp                  1001f38c f   LIBCMT:util.obj
 0001:0001e3bb       __sptype                   1001f3bb f   LIBCMT:util.obj
 0001:0001e416       __errcode                  1001f416 f   LIBCMT:fpexcept.obj
 0001:0001e448       __except1                  1001f448 f   LIBCMT:fpexcept.obj
 0001:0001e510       __except2                  1001f510 f   LIBCMT:fpexcept.obj
 0001:0001e610       __handle_exc               1001f610 f   LIBCMT:fpexcept.obj
 0001:0001e7ee       __handle_qnan1             1001f7ee f   LIBCMT:fpexcept.obj
 0001:0001e83e       __handle_qnan2             1001f83e f   LIBCMT:fpexcept.obj
 0001:0001e89e       __raise_exc                1001f89e f   LIBCMT:fpexcept.obj
 0001:0001e8bf       __raise_exc_ex             1001f8bf f   LIBCMT:fpexcept.obj
 0001:0001eba4       __raise_excf               1001fba4 f   LIBCMT:fpexcept.obj
 0001:0001ebc5       __set_errno_from_matherr   1001fbc5 f   LIBCMT:fpexcept.obj
 0001:0001ebf2       __umatherr                 1001fbf2 f   LIBCMT:fpexcept.obj
 0001:0001ec92       ___clrfp_sse2              1001fc92 f   LIBCMT:fpctrl.obj
 0001:0001ecb3       ___ctrlfp_sse2             1001fcb3 f   LIBCMT:fpctrl.obj
 0001:0001ecec       ___fclrf_sse2              1001fcec f   LIBCMT:fpctrl.obj
 0001:0001ed09       ___get_fpsr_sse2           1001fd09 f   LIBCMT:fpctrl.obj
 0001:0001ed25       ___set_fpsr_sse2           1001fd25 f   LIBCMT:fpctrl.obj
 0001:0001ed9b       ___set_statfp_sse2         1001fd9b f   LIBCMT:fpctrl.obj
 0001:0001edb4       ___statfp_sse2             1001fdb4 f   LIBCMT:fpctrl.obj
 0001:0001edc9       __clrfp                    1001fdc9 f   LIBCMT:fpctrl.obj
 0001:0001edda       __ctrlfp                   1001fdda f   LIBCMT:fpctrl.obj
 0001:0001ee05       __set_statfp               1001fe05 f   LIBCMT:fpctrl.obj
 0001:0001ee5d       __statfp                   1001fe5d f   LIBCMT:fpctrl.obj
 0001:0001ee6d       _wcscat_s                  1001fe6d f   LIBCMT:wcscat_s.obj
 0001:0001eed9       _wcscpy_s                  1001fed9 f   LIBCMT:wcscpy_s.obj
 0001:0001ef35       _wcslen                    1001ff35 f   LIBCMT:wcslen.obj
 0001:0001ef4e       _wcsncat_s                 1001ff4e f   LIBCMT:wcsncat_s.obj
 0001:0001f01c       __set_abort_behavior       1002001c f   LIBCMT:abort.obj
 0001:0001f03b       _abort                     1002003b f   LIBCMT:abort.obj
 0001:0001f07e       ___set_app_type            1002007e f   LIBCMT:errmode.obj
 0001:0001f08b       __set_error_mode           1002008b f   LIBCMT:errmode.obj
 0001:0001f1e7       __i64tow_s                 100201e7 f   LIBCMT:xtows.obj
 0001:0001f218       __itow_s                   10020218 f   LIBCMT:xtows.obj
 0001:0001f241       __ltow_s                   10020241 f   LIBCMT:xtows.obj
 0001:0001f26b       __ui64tow_s                1002026b f   LIBCMT:xtows.obj
 0001:0001f286       __ultow_s                  10020286 f   LIBCMT:xtows.obj
 0001:0001f391       _setvbuf                   10020391 f   LIBCMT:setvbuf.obj
 0001:0001f497       __fwprintf_l               10020497 f   LIBCMT:fwprintf.obj
 0001:0001f4b1       __fwprintf_p               100204b1 f   LIBCMT:fwprintf.obj
 0001:0001f4ca       __fwprintf_p_l             100204ca f   LIBCMT:fwprintf.obj
 0001:0001f4e4       __fwprintf_s_l             100204e4 f   LIBCMT:fwprintf.obj
 0001:0001f4fe       _fwprintf                  100204fe f   LIBCMT:fwprintf.obj
 0001:0001f592       _fwprintf_s                10020592 f   LIBCMT:fwprintf.obj
 0001:0001f5ab       __vsnwprintf_s             100205ab f   LIBCMT:vswprnc.obj
 0001:0001f5c9       __vsnwprintf_s_l           100205c9 f   LIBCMT:vswprnc.obj
 0001:0001f6cd       __vswprintf_c              100206cd f   LIBCMT:vswprnc.obj
 0001:0001f6f4       __vswprintf_c_l            100206f4 f   LIBCMT:vswprnc.obj
 0001:0001f71c       __vswprintf_helper         1002071c f   LIBCMT:vswprnc.obj
 0001:0001f817       __vswprintf_p              10020817 f   LIBCMT:vswprnc.obj
 0001:0001f83e       __vswprintf_p_l            1002083e f   LIBCMT:vswprnc.obj
 0001:0001f866       __vswprintf_s_l            10020866 f   LIBCMT:vswprnc.obj
 0001:0001f8dd       _vswprintf_s               100208dd f   LIBCMT:vswprnc.obj
 0001:0001f8f8       ___crtMessageBoxW          100208f8 f   LIBCMT:crtmboxw.obj
 0001:0001fade       ___crtMessageBoxWaitThreadW@4 10020ade f   LIBCMT:crtmboxw.obj
 0001:0001fafc       __XcptFilter               10020afc f   LIBCMT:winxfltr.obj
 0001:0001fc57       ___CppXcptFilter           10020c57 f   LIBCMT:winxfltr.obj
 0001:0001fca9       ___get_flsindex            10020ca9 f   LIBCMT:tidtable.obj
 0001:0001fcaf       ___threadhandle            10020caf f   LIBCMT:tidtable.obj
 0001:0001fcb5       ___threadid                10020cb5 f   LIBCMT:tidtable.obj
 0001:0001fcbb       __freefls@4                10020cbb f   LIBCMT:tidtable.obj
 0001:0001fdf0       __freeptd                  10020df0 f   LIBCMT:tidtable.obj
 0001:0001fe26       __getptd                   10020e26 f   LIBCMT:tidtable.obj
 0001:0001fe3e       __getptd_noexit            10020e3e f   LIBCMT:tidtable.obj
 0001:0001fead       __initptd                  10020ead f   LIBCMT:tidtable.obj
 0001:0001ff60       __mtinit                   10020f60 f   LIBCMT:tidtable.obj
 0001:0001ffd6       __mtterm                   10020fd6 f   LIBCMT:tidtable.obj
 0001:0001fff3       __set_pgmptr               10020ff3 f i LIBCMT:stdargv.obj
 0001:00020000       __setargv                  10021000 f   LIBCMT:stdargv.obj
 0001:0002022f       __setenvp                  1002122f f   LIBCMT:stdenvp.obj
 0001:00020310       ___security_init_cookie    10021310 f   LIBCMT:gs_support.obj
 0001:000203ac       ___crtGetEnvironmentStringsA 100213ac f   LIBCMT:a_env.obj
 0001:00020440       _strlen                    10021440 f   LIBCMT:strlen.obj
 0001:000204cb       _wcsncpy_s                 100214cb f   LIBCMT:wcsncpy_s.obj
 0001:00020589       __output_s_l               10021589 f   LIBCMT:outputs.obj
 0001:00021211       __output_p_l               10022211 f   LIBCMT:outputp.obj
 0001:00022549       __validate_param_reuseA    10023549 f   LIBCMT:outputp.obj
 0001:0002267f       _get_crtdouble_arg         1002367f f i LIBCMT:outputp.obj
 0001:0002277e       __isatty                   1002377e f   LIBCMT:isatty.obj
 0001:000227d2       ___addlocaleref            100237d2 f   LIBCMT:localref.obj
 0001:00022867       ___freetlocinfo            10023867 f   LIBCMT:localref.obj
 0001:000229c1       ___removelocaleref         100239c1 f   LIBCMT:localref.obj
 0001:00022a61       ___updatetlocinfo          10023a61 f   LIBCMT:localref.obj
 0001:00022ae1       __updatetlocinfoEx_nolock  10023ae1 f   LIBCMT:localref.obj
 0001:00022b2c       ___iswcsym                 10023b2c f i LIBCMT:_wctype.obj
 0001:00022b50       ___iswcsymf                10023b50 f i LIBCMT:_wctype.obj
 0001:00022b74       __isleadbyte_l             10023b74 f i LIBCMT:_wctype.obj
 0001:00022bae       __iswalnum_l               10023bae f i LIBCMT:_wctype.obj
 0001:00022bc2       __iswalpha_l               10023bc2 f i LIBCMT:_wctype.obj
 0001:00022bd6       __iswblank_l               10023bd6 f i LIBCMT:_wctype.obj
 0001:00022bf1       __iswcntrl_l               10023bf1 f i LIBCMT:_wctype.obj
 0001:00022c02       __iswcsym_l                10023c02 f i LIBCMT:_wctype.obj
 0001:00022c26       __iswcsymf_l               10023c26 f i LIBCMT:_wctype.obj
 0001:00022c4a       __iswdigit_l               10023c4a f i LIBCMT:_wctype.obj
 0001:00022c5b       __iswgraph_l               10023c5b f i LIBCMT:_wctype.obj
 0001:00022c6f       __iswlower_l               10023c6f f i LIBCMT:_wctype.obj
 0001:00022c80       __iswprint_l               10023c80 f i LIBCMT:_wctype.obj
 0001:00022c94       __iswpunct_l               10023c94 f i LIBCMT:_wctype.obj
 0001:00022ca5       __iswspace_l               10023ca5 f i LIBCMT:_wctype.obj
 0001:00022cb6       __iswupper_l               10023cb6 f i LIBCMT:_wctype.obj
 0001:00022cc7       __iswxdigit_l              10023cc7 f i LIBCMT:_wctype.obj
 0001:00022cdb       _isleadbyte                10023cdb f i LIBCMT:_wctype.obj
 0001:00022cec       _iswalnum                  10023cec f i LIBCMT:_wctype.obj
 0001:00022d00       _iswalpha                  10023d00 f i LIBCMT:_wctype.obj
 0001:00022d14       _iswascii                  10023d14 f i LIBCMT:_wctype.obj
 0001:00022d26       _iswblank                  10023d26 f i LIBCMT:_wctype.obj
 0001:00022d41       _iswcntrl                  10023d41 f i LIBCMT:_wctype.obj
 0001:00022d52       _iswdigit                  10023d52 f i LIBCMT:_wctype.obj
 0001:00022d63       _iswgraph                  10023d63 f i LIBCMT:_wctype.obj
 0001:00022d77       _iswlower                  10023d77 f i LIBCMT:_wctype.obj
 0001:00022d88       _iswprint                  10023d88 f i LIBCMT:_wctype.obj
 0001:00022d9c       _iswpunct                  10023d9c f i LIBCMT:_wctype.obj
 0001:00022dad       _iswspace                  10023dad f i LIBCMT:_wctype.obj
 0001:00022dbe       _iswupper                  10023dbe f i LIBCMT:_wctype.obj
 0001:00022dcf       _iswxdigit                 10023dcf f i LIBCMT:_wctype.obj
 0001:00022de3       __wctomb_l                 10023de3 f   LIBCMT:wctomb.obj
 0001:00022e32       __wctomb_s_l               10023e32 f   LIBCMT:wctomb.obj
 0001:00022f56       _wctomb                    10023f56 f   LIBCMT:wctomb.obj
 0001:00022f89       _wctomb_s                  10023f89 f   LIBCMT:wctomb.obj
 0001:00022fb0       __aulldvrm                 10023fb0 f   LIBCMT:ulldvrm.obj
 0001:00023045       __matherr                  10024045 f   LIBCMT:matherr.obj
 0001:00023048       __frnd                     10024048 f   LIBCMT:frnd.obj
 0001:0002305c       ___isascii                 1002405c f i LIBCMT:_ctype.obj
 0001:0002306c       ___iscsym                  1002406c f i LIBCMT:_ctype.obj
 0001:0002308c       ___iscsymf                 1002408c f i LIBCMT:_ctype.obj
 0001:000230a9       ___toascii                 100240a9 f i LIBCMT:_ctype.obj
 0001:000230b4       __isalnum_l                100240b4 f i LIBCMT:_ctype.obj
 0001:0002310c       __isalpha_l                1002410c f i LIBCMT:_ctype.obj
 0001:00023164       __isblank_l                10024164 f i LIBCMT:_ctype.obj
 0001:000231be       __iscntrl_l                100241be f i LIBCMT:_ctype.obj
 0001:00023210       __iscsym_l                 10024210 f i LIBCMT:_ctype.obj
 0001:00023231       __iscsymf_l                10024231 f i LIBCMT:_ctype.obj
 0001:00023252       __isdigit_l                10024252 f i LIBCMT:_ctype.obj
 0001:000232a4       __isgraph_l                100242a4 f i LIBCMT:_ctype.obj
 0001:000232fc       __islower_l                100242fc f i LIBCMT:_ctype.obj
 0001:0002334e       __isprint_l                1002434e f i LIBCMT:_ctype.obj
 0001:000233a6       __ispunct_l                100243a6 f i LIBCMT:_ctype.obj
 0001:000233f8       __isspace_l                100243f8 f i LIBCMT:_ctype.obj
 0001:0002344a       __isupper_l                1002444a f i LIBCMT:_ctype.obj
 0001:0002349c       __isxdigit_l               1002449c f i LIBCMT:_ctype.obj
 0001:000234f4       _isalnum                   100244f4 f i LIBCMT:_ctype.obj
 0001:00023521       _isalpha                   10024521 f i LIBCMT:_ctype.obj
 0001:0002354e       _isblank                   1002454e f i LIBCMT:_ctype.obj
 0001:00023583       _iscntrl                   10024583 f i LIBCMT:_ctype.obj
 0001:000235ae       _isdigit                   100245ae f i LIBCMT:_ctype.obj
 0001:000235d9       _isgraph                   100245d9 f i LIBCMT:_ctype.obj
 0001:00023606       _islower                   10024606 f i LIBCMT:_ctype.obj
 0001:00023631       _isprint                   10024631 f i LIBCMT:_ctype.obj
 0001:0002365e       _ispunct                   1002465e f i LIBCMT:_ctype.obj
 0001:00023689       _isspace                   10024689 f i LIBCMT:_ctype.obj
 0001:000236b4       _isupper                   100246b4 f i LIBCMT:_ctype.obj
 0001:000236df       _isxdigit                  100246df f i LIBCMT:_ctype.obj
 0001:0002370c       __tolower                  1002470c f   LIBCMT:tolower.obj
 0001:00023717       __tolower_l                10024717 f   LIBCMT:tolower.obj
 0001:0002385a       _tolower                   1002485a f   LIBCMT:tolower.obj
 0001:00023886       _strcpy_s                  10024886 f   LIBCMT:strcpy_s.obj
 0001:000238e0       _strrchr                   100248e0 f   LIBCMT:strrchr.obj
 0001:00023a17       __fptostr                  10024a17 f   LIBCMT:_fptostr.obj
 0001:00023ac7       ___crt_atoflt_l            10024ac7 f   LIBCMT:atodbl.obj
 0001:00023b6b       __atodbl                   10024b6b f   LIBCMT:atodbl.obj
 0001:00023b80       __atodbl_l                 10024b80 f   LIBCMT:atodbl.obj
 0001:00023c0e       __atoflt                   10024c0e f   LIBCMT:atodbl.obj
 0001:00023c23       __atoflt_l                 10024c23 f   LIBCMT:atodbl.obj
 0001:00023c3b       __atoldbl                  10024c3b f   LIBCMT:atodbl.obj
 0001:00023c50       __atoldbl_l                10024c50 f   LIBCMT:atodbl.obj
 0001:00023cdf       ___dtold                   10024cdf f   LIBCMT:cfout.obj
 0001:00023da7       __fltout2                  10024da7 f   LIBCMT:cfout.obj
 0001:00023e40       __alldvrm                  10024e40 f   LIBCMT:lldvrm.obj
 0001:00023f20       __aullshr                  10024f20 f   LIBCMT:ullshr.obj
 0001:00023f3f       __get_output_format        10024f3f f   LIBCMT:outputformat.obj
 0001:00023f45       __set_output_format        10024f45 f   LIBCMT:outputformat.obj
 0001:00023f77       __controlfp_s              10024f77 f   LIBCMT:contrlfp.obj
 0001:00023fd4       __fptrap                   10024fd4 f   LIBCMT:crt0fp.obj
 0001:00023fdd       __msize                    10024fdd f   LIBCMT:msize.obj
 0001:0002400e       __recalloc                 1002500e f   LIBCMT:recalloc.obj
 0001:00024077       _strncpy_s                 10025077 f   LIBCMT:strncpy_s.obj
 0001:000241ff       __MallocaIsSizeInRange     100251ff f i LIBCMT:a_loc.obj
 0001:00024210       __MarkAllocaS              10025210 f i LIBCMT:a_loc.obj
 0001:00024224       ___crtGetLocaleInfoA       10025224 f   LIBCMT:a_loc.obj
 0001:0002425e       __freea                    1002525e f i LIBCMT:a_loc.obj
 0001:0002427c       _GetTableIndexFromLcid     1002527c f   LIBCMT:winapinls.obj
 0001:000242b1       _GetTableIndexFromLocaleName 100252b1 f   LIBCMT:winapinls.obj
 0001:000242ff       ___crtCompareStringEx      100252ff f   LIBCMT:winapinls.obj
 0001:0002434b       ___crtDownlevelLCIDToLocaleName 1002534b f   LIBCMT:winapinls.obj
 0001:000243c7       ___crtDownlevelLocaleNameToLCID 100253c7 f   LIBCMT:winapinls.obj
 0001:00024405       ___crtEnumSystemLocalesEx  10025405 f   LIBCMT:winapinls.obj
 0001:00024442       ___crtGetDateFormatEx      10025442 f   LIBCMT:winapinls.obj
 0001:0002448b       ___crtGetLocaleInfoEx      1002548b f   LIBCMT:winapinls.obj
 0001:000244ba       ___crtGetTimeFormatEx      100254ba f   LIBCMT:winapinls.obj
 0001:000244ef       ___crtGetUserDefaultLocaleName 100254ef f   LIBCMT:winapinls.obj
 0001:0002451a       ___crtIsValidLocaleName    1002551a f   LIBCMT:winapinls.obj
 0001:00024545       ___crtLCMapStringEx        10025545 f   LIBCMT:winapinls.obj
 0001:00024591       ___wcsnicmp_ascii          10025591 f   LIBCMT:winapinls.obj
 0001:00024823       ___crtLCMapStringA         10025823 f   LIBCMT:a_map.obj
 0001:00024961       ___crtGetStringTypeA       10025961 f   LIBCMT:a_str.obj
 0001:000249a1       __commit                   100259a1 f   LIBCMT:commit.obj
 0001:00024a8a       ___lock_fhandle            10025a8a f   LIBCMT:osfinfo.obj
 0001:00024b18       __alloc_osfhnd             10025b18 f   LIBCMT:osfinfo.obj
 0001:00024cc1       __free_osfhnd              10025cc1 f   LIBCMT:osfinfo.obj
 0001:00024d47       __get_osfhandle            10025d47 f   LIBCMT:osfinfo.obj
 0001:00024dae       __open_osfhandle           10025dae f   LIBCMT:osfinfo.obj
 0001:00024ec4       __set_osfhnd               10025ec4 f   LIBCMT:osfinfo.obj
 0001:00024f46       __unlock_fhandle           10025f46 f   LIBCMT:osfinfo.obj
 0001:00024f6c       __open                     10025f6c f   LIBCMT:open.obj
 0001:0002501c       __sopen                    1002601c f   LIBCMT:open.obj
 0001:0002504f       __sopen_helper             1002604f f   LIBCMT:open.obj
 0001:00025118       __sopen_nolock             10026118 f   LIBCMT:open.obj
 0001:00025166       __sopen_s                  10026166 f   LIBCMT:open.obj
 0001:00025184       __mbsnbcmp                 10026184 f   LIBCMT:mbsnbcmp.obj
 0001:0002519c       __mbsnbcmp_l               1002619c f   LIBCMT:mbsnbcmp.obj
 0001:000252b3       __mbsnbicmp                100262b3 f   LIBCMT:mbsnbicm.obj
 0001:000252cb       __mbsnbicmp_l              100262cb f   LIBCMT:mbsnbicm.obj
 0001:00025490       __global_unwind2           10026490 f   LIBCMT:exsup.obj
 0001:000254f5       __local_unwind2            100264f5 f   LIBCMT:exsup.obj
 0001:00025579       __abnormal_termination     10026579 f   LIBCMT:exsup.obj
 0001:0002559c       __NLG_Notify1              1002659c f   LIBCMT:exsup.obj
 0001:000255a5       __NLG_Notify               100265a5 f   LIBCMT:exsup.obj
 0001:000255bc       __NLG_Dispatch             100265bc     LIBCMT:exsup.obj
 0001:000255bc       __NLG_Dispatch2            100265bc     LIBCMT:exsup.obj
 0001:000255c4       __NLG_Call                 100265c4 f   LIBCMT:exsup.obj
 0001:000255c6       __NLG_Return2              100265c6     LIBCMT:exsup.obj
 0001:000255c7       __getbuf                   100265c7 f   LIBCMT:_getbuf.obj
 0001:0002560d       __lseeki64                 1002660d f   LIBCMT:lseeki64.obj
 0001:00025709       __lseeki64_nolock          10026709 f   LIBCMT:lseeki64.obj
 0001:0002577c       __mbtowc_l                 1002677c f   LIBCMT:mbtowc.obj
 0001:00025871       _mbtowc                    10026871 f   LIBCMT:mbtowc.obj
 0001:00025889       __putwch                   10026889 f   LIBCMT:putwch.obj
 0001:000258d5       __putwch_nolock            100268d5 f   LIBCMT:putwch.obj
 0001:00025920       __chkstk                   10026920 f   LIBCMT:chkstk.obj
 0001:00025920       __alloca_probe             10026920 f   LIBCMT:chkstk.obj
 0001:0002594b       __vfwprintf_l              1002694b f   LIBCMT:vfwprint.obj
 0001:00025969       __vfwprintf_p              10026969 f   LIBCMT:vfwprint.obj
 0001:00025986       __vfwprintf_p_l            10026986 f   LIBCMT:vfwprint.obj
 0001:000259a4       __vfwprintf_s_l            100269a4 f   LIBCMT:vfwprint.obj
 0001:000259c2       _vfwprintf                 100269c2 f   LIBCMT:vfwprint.obj
 0001:000259df       _vfwprintf_helper          100269df f   LIBCMT:vfwprint.obj
 0001:00025a72       _vfwprintf_s               10026a72 f   LIBCMT:vfwprint.obj
 0001:00025a8f       __woutput_l                10026a8f f   LIBCMT:woutput.obj
 0001:0002676e       __woutput_s_l              1002776e f   LIBCMT:woutputs.obj
 0001:00027485       __validate_param_reuseW    10028485 f   LIBCMT:woutputp.obj
 0001:000275fd       __woutput_p_l              100285fd f   LIBCMT:woutputp.obj
 0001:00028a26       __ismbbalnum               10029a26 f   LIBCMT:ismbbyte.obj
 0001:00028a3f       __ismbbalnum_l             10029a3f f   LIBCMT:ismbbyte.obj
 0001:00028a59       __ismbbalpha               10029a59 f   LIBCMT:ismbbyte.obj
 0001:00028a72       __ismbbalpha_l             10029a72 f   LIBCMT:ismbbyte.obj
 0001:00028a8c       __ismbbblank               10029a8c f   LIBCMT:ismbbyte.obj
 0001:00028aad       __ismbbblank_l             10029aad f   LIBCMT:ismbbyte.obj
 0001:00028acf       __ismbbgraph               10029acf f   LIBCMT:ismbbyte.obj
 0001:00028ae8       __ismbbgraph_l             10029ae8 f   LIBCMT:ismbbyte.obj
 0001:00028b02       __ismbbkalnum              10029b02 f   LIBCMT:ismbbyte.obj
 0001:00028b18       __ismbbkalnum_l            10029b18 f   LIBCMT:ismbbyte.obj
 0001:00028b2f       __ismbbkana                10029b2f f   LIBCMT:ismbbyte.obj
 0001:00028b40       __ismbbkana_l              10029b40 f   LIBCMT:ismbbyte.obj
 0001:00028b8c       __ismbbkprint              10029b8c f   LIBCMT:ismbbyte.obj
 0001:00028ba2       __ismbbkprint_l            10029ba2 f   LIBCMT:ismbbyte.obj
 0001:00028bb9       __ismbbkpunct              10029bb9 f   LIBCMT:ismbbyte.obj
 0001:00028bcf       __ismbbkpunct_l            10029bcf f   LIBCMT:ismbbyte.obj
 0001:00028be6       __ismbblead                10029be6 f   LIBCMT:ismbbyte.obj
 0001:00028bfc       __ismbblead_l              10029bfc f   LIBCMT:ismbbyte.obj
 0001:00028c13       __ismbbprint               10029c13 f   LIBCMT:ismbbyte.obj
 0001:00028c2c       __ismbbprint_l             10029c2c f   LIBCMT:ismbbyte.obj
 0001:00028c46       __ismbbpunct               10029c46 f   LIBCMT:ismbbyte.obj
 0001:00028c5c       __ismbbpunct_l             10029c5c f   LIBCMT:ismbbyte.obj
 0001:00028c73       __ismbbtrail               10029c73 f   LIBCMT:ismbbyte.obj
 0001:00028c89       __ismbbtrail_l             10029c89 f   LIBCMT:ismbbyte.obj
 0001:00028ec6       __strtol_l                 10029ec6 f   LIBCMT:strtol.obj
 0001:00028ee1       __strtoul_l                10029ee1 f   LIBCMT:strtol.obj
 0001:00028efc       _strtol                    10029efc f   LIBCMT:strtol.obj
 0001:00028f26       _strtoul                   10029f26 f   LIBCMT:strtol.obj
 0001:00028f50       ___free_lconv_mon          10029f50 f   LIBCMT:initmon.obj
 0001:0002904c       ___init_monetary           1002a04c f   LIBCMT:initmon.obj
 0001:00029425       ___free_lconv_num          1002a425 f   LIBCMT:initnum.obj
 0001:0002948c       ___init_numeric            1002a48c f   LIBCMT:initnum.obj
 0001:000296ca       ___free_lc_time            1002a6ca f   LIBCMT:inittime.obj
 0001:00029a4a       ___init_time               1002aa4a f   LIBCMT:inittime.obj
 0001:0002a2b9       _localeconv                1002b2b9 f   LIBCMT:lconv.obj
 0001:0002a2df       __iswctype_l               1002b2df f   LIBCMT:iswctype.obj
 0001:0002a2f1       _is_wctype                 1002b2f1 f   LIBCMT:iswctype.obj
 0001:0002a2fa       _iswctype                  1002b2fa f   LIBCMT:iswctype.obj
 0001:0002a350       ____lc_codepage_func       1002b350 f   LIBCMT:initctyp.obj
 0001:0002a376       ____lc_collate_cp_func     1002b376 f   LIBCMT:initctyp.obj
 0001:0002a39c       ____lc_locale_name_func    1002b39c f   LIBCMT:initctyp.obj
 0001:0002a3c4       ____mb_cur_max_func        1002b3c4 f   LIBCMT:initctyp.obj
 0001:0002a3ea       ____mb_cur_max_l_func      1002b3ea f   LIBCMT:initctyp.obj
 0001:0002a401       ___init_ctype              1002b401 f   LIBCMT:initctyp.obj
 0001:0002a799       ___pctype_func             1002b799 f   LIBCMT:ctype.obj
 0001:0002a7c2       ___pwctype_func            1002b7c2 f   LIBCMT:ctype.obj
 0001:0002a7c8       __isctype                  1002b7c8 f   LIBCMT:isctype.obj
 0001:0002a7f7       __isctype_l                1002b7f7 f   LIBCMT:isctype.obj
 0001:0002a8a8       ___init_dummy              1002b8a8 f   LIBCMT:wsetloca.obj
 0001:0002a8ab       __locterm                  1002b8ab f   LIBCMT:wsetloca.obj
 0001:0002a8fd       ____setlc_active_func      1002b8fd f   LIBCMT:wsetloca.obj
 0001:0002a903       ____unguarded_readlc_active_add_func 1002b903 f   LIBCMT:wsetloca.obj
 0001:0002a909       ___copy_locale_name        1002b909 f   LIBCMT:wsetloca.obj
 0001:0002a96d       ___create_locale           1002b96d f   LIBCMT:wsetloca.obj
 0001:0002a976       ___free_locale             1002b976 f   LIBCMT:wsetloca.obj
 0001:0002a97b       ___get_current_locale      1002b97b f   LIBCMT:wsetloca.obj
 0001:0002a980       ___lc_lctowcs              1002b980 f   LIBCMT:wsetloca.obj
 0001:0002a9ee       ___lc_wcstolc              1002b9ee f   LIBCMT:wsetloca.obj
 0001:0002ab1a       __configthreadlocale       1002bb1a f   LIBCMT:wsetloca.obj
 0001:0002aba0       __create_locale            1002bba0 f   LIBCMT:wsetloca.obj
 0001:0002ac02       __expandlocale             1002bc02 f   LIBCMT:wsetloca.obj
 0001:0002aef9       __free_locale              1002bef9 f   LIBCMT:wsetloca.obj
 0001:0002afb0       __get_current_locale       1002bfb0 f   LIBCMT:wsetloca.obj
 0001:0002b05f       __wcreate_locale           1002c05f f   LIBCMT:wsetloca.obj
 0001:0002b136       __wcscats                  1002c136 f   LIBCMT:wsetloca.obj
 0001:0002b175       __wsetlocale               1002c175 f   LIBCMT:wsetloca.obj
 0001:0002bab7       __CopyMan                  1002cab7 f i LIBCMT:intrncvt.obj
 0001:0002bad4       __FillZeroMan              1002cad4 f i LIBCMT:intrncvt.obj
 0001:0002bae3       __IncMan                   1002cae3 f i LIBCMT:intrncvt.obj
 0001:0002bb45       __IsZeroMan                1002cb45 f i LIBCMT:intrncvt.obj
 0001:0002bb62       __RoundMan                 1002cb62 f i LIBCMT:intrncvt.obj
 0001:0002bc63       __ShrMan                   1002cc63 f i LIBCMT:intrncvt.obj
 0001:0002bcf1       __ZeroTail                 1002ccf1 f i LIBCMT:intrncvt.obj
 0001:0002bd39       ___addl                    1002cd39 f i LIBCMT:intrncvt.obj
 0001:0002bd5d       __ld12cvt                  1002cd5d f i LIBCMT:intrncvt.obj
 0001:0002c2c8       __ld12tod                  1002d2c8 f   LIBCMT:intrncvt.obj
 0001:0002c83a       __ld12tof                  1002d83a f   LIBCMT:intrncvt.obj
 0001:0002cdac       __ld12told                 1002ddac f   LIBCMT:intrncvt.obj
 0001:0002ce7b       ___STRINGTOLD_L            1002de7b f   LIBCMT:strgtold.obj
 0001:0002ced6       ___ld12mul                 1002ded6 f i LIBCMT:strgtold.obj
 0001:0002d1a2       ___multtenpow12            1002e1a2 f i LIBCMT:strgtold.obj
 0001:0002d4f5       ___shl_12                  1002e4f5 f i LIBCMT:strgtold.obj
 0001:0002d526       ___shr_12                  1002e526 f i LIBCMT:strgtold.obj
 0001:0002d556       ___strgtold12_l            1002e556 f   LIBCMT:strgtold.obj
 0001:0002dcfe       _$I10_OUTPUT               1002ecfe f   LIBCMT:x10fout.obj
 0001:0002e6d2       ___add_12                  1002f6d2 f i LIBCMT:x10fout.obj
 0001:0002e87e       ___control87_2             1002f87e f   LIBCMT:ieee87.obj
 0001:0002eef2       __clearfp                  1002fef2 f   LIBCMT:ieee87.obj
 0001:0002efd2       __control87                1002ffd2 f i LIBCMT:ieee87.obj
 0001:0002f2d4       __controlfp                100302d4 f   LIBCMT:ieee87.obj
 0001:0002f5df       __fpreset                  100305df f   LIBCMT:ieee87.obj
 0001:0002f6ac       __set_controlfp            100306ac f   LIBCMT:ieee87.obj
 0001:0002f71f       __statusfp                 1003071f f   LIBCMT:ieee87.obj
 0001:0002f7b9       __statusfp2                100307b9 f   LIBCMT:ieee87.obj
 0001:0002f820       __alloca_probe_16          10030820 f   LIBCMT:alloca16.obj
 0001:0002f836       __alloca_probe_8           10030836     LIBCMT:alloca16.obj
 0001:0002f84c       _wcsnlen                   1003084c f   LIBCMT:wcslen_s.obj
 0001:0002f8f3       __wopen                    100308f3 f   LIBCMT:wopen.obj
 0001:0002f9a3       __wsopen                   100309a3 f   LIBCMT:wopen.obj
 0001:0002f9d6       __wsopen_helper            100309d6 f   LIBCMT:wopen.obj
 0001:0002fa9f       __wsopen_nolock            10030a9f f   LIBCMT:wopen.obj
 0001:000301f2       __wsopen_s                 100311f2 f   LIBCMT:wopen.obj
 0001:00030210       _strncmp                   10031210 f   LIBCMT:strncmp.obj
 0001:00030288       __strnicmp                 10031288 f   LIBCMT:strnicmp.obj
 0001:000302f3       __strnicmp_l               100312f3 f   LIBCMT:strnicmp.obj
 0001:000303a4       ___termconout              100313a4 f   LIBCMT:initcon.obj
 0001:000303bb       ___initconout              100313bb f   LIBCMT:initcon.obj
 0001:000303da       __fputwc_nolock            100313da f   LIBCMT:fputwc.obj
 0001:00030560       _fputwc                    10031560 f   LIBCMT:fputwc.obj
 0001:000305d7       _putwc                     100315d7 f   LIBCMT:fputwc.obj
 0001:000307c1       __wcstol_l                 100317c1 f   LIBCMT:wcstol.obj
 0001:000307d9       __wcstoul_l                100317d9 f   LIBCMT:wcstol.obj
 0001:000307f1       _wcstol                    100317f1 f   LIBCMT:wcstol.obj
 0001:00030809       _wcstoul                   10031809 f   LIBCMT:wcstol.obj
 0001:00030821       ___init_collate            10031821 f   LIBCMT:initcoll.obj
 0001:00030941       _memcmp                    10031941 f   LIBCMT:memcmp.obj
 0001:00033855       _wcscmp                    10034855 f   LIBCMT:wcscmp.obj
 0001:00033893       _wcscspn                   10034893 f   LIBCMT:wcscspn.obj
 0001:000338de       _wcsncmp                   100348de f   LIBCMT:wcsncmp.obj
 0001:00033914       _wcspbrk                   10034914 f   LIBCMT:wcspbrk.obj
 0001:00033f18       ___get_qualified_locale    10034f18 f   LIBCMT:getqloc.obj
 0001:00034788       ___get_qualified_locale_downlevel 10035788 f   LIBCMT:getqloc_downlevel.obj
 0001:000349a4       ___mtold12                 100359a4 f   LIBCMT:mantold.obj
 0001:00034b84       __chsize                   10035b84 f   LIBCMT:chsize.obj
 0001:00034b9e       __chsize_nolock            10035b9e f   LIBCMT:chsize.obj
 0001:00034d54       __chsize_s                 10035d54 f   LIBCMT:chsize.obj
 0001:00034e42       __get_fmode                10035e42 f   LIBCMT:setmode.obj
 0001:00034e6c       __set_fmode                10035e6c f   LIBCMT:setmode.obj
 0001:00034ea7       __setmode                  10035ea7 f   LIBCMT:setmode.obj
 0001:00034fac       __setmode_nolock           10035fac f   LIBCMT:setmode.obj
 0001:00035080       ___ascii_strnicmp          10036080 f   LIBCMT:_strnicm.obj
 0001:000350e1       __flswbuf                  100360e1 f   LIBCMT:_flswbuf.obj
 0001:00035243       __wchartodigit             10036243 f   LIBCMT:wchtodig.obj
 0001:000353e2       __wtoi                     100363e2 f   LIBCMT:wtox.obj
 0001:000353eb       __wtoi64                   100363eb f   LIBCMT:wtox.obj
 0001:000353ff       __wtoi64_l                 100363ff f   LIBCMT:wtox.obj
 0001:00035416       __wtoi_l                   10036416 f   LIBCMT:wtox.obj
 0001:0003541f       __wtol                     1003641f f   LIBCMT:wtox.obj
 0001:00035433       __wtol_l                   10036433 f   LIBCMT:wtox.obj
 0001:0003544a       __wtoll                    1003644a f   LIBCMT:wtox.obj
 0001:0003545e       __wtoll_l                  1003645e f   LIBCMT:wtox.obj
 0001:00035475       _wcschr                    10036475 f   LIBCMT:wcschr.obj
 0001:00035523       __wcsicmp                  10036523 f   LIBCMT:wcsicmp.obj
 0001:000355b6       __wcsicmp_l                100365b6 f   LIBCMT:wcsicmp.obj
 0001:00035691       __wcsnicmp                 10036691 f   LIBCMT:wcsnicmp.obj
 0001:00035747       __wcsnicmp_l               10036747 f   LIBCMT:wcsnicmp.obj
 0001:00035b10       __wcstof_l                 10036b10 f   LIBCMT:wcstoq.obj
 0001:00035bc3       __wcstoi64                 10036bc3 f   LIBCMT:wcstoq.obj
 0001:00035bed       __wcstoi64_l               10036bed f   LIBCMT:wcstoq.obj
 0001:00035c08       __wcstoimax_l              10036c08 f   LIBCMT:wcstoq.obj
 0001:00035c11       __wcstold_l                10036c11 f   LIBCMT:wcstoq.obj
 0001:00035c1a       __wcstoll_l                10036c1a f   LIBCMT:wcstoq.obj
 0001:00035c23       __wcstoui64                10036c23 f   LIBCMT:wcstoq.obj
 0001:00035c4d       __wcstoui64_l              10036c4d f   LIBCMT:wcstoq.obj
 0001:00035c68       __wcstoull_l               10036c68 f   LIBCMT:wcstoq.obj
 0001:00035c71       __wcstoumax_l              10036c71 f   LIBCMT:wcstoq.obj
 0001:00035c7a       _wcstof                    10036c7a f   LIBCMT:wcstoq.obj
 0001:00035c8f       _wcstoimax                 10036c8f f   LIBCMT:wcstoq.obj
 0001:00035c98       _wcstold                   10036c98 f   LIBCMT:wcstoq.obj
 0001:00035ca1       _wcstoll                   10036ca1 f   LIBCMT:wcstoq.obj
 0001:00035caa       _wcstoull                  10036caa f   LIBCMT:wcstoq.obj
 0001:00035cb3       _wcstoumax                 10036cb3 f   LIBCMT:wcstoq.obj
 0001:00035cbc       __towlower_l               10036cbc f   LIBCMT:towlower.obj
 0001:00035d6d       _towlower                  10036d6d f   LIBCMT:towlower.obj
 0001:00035d7e       __wcstod_l                 10036d7e f   LIBCMT:wcstod.obj
 0001:00035e79       _wcstod                    10036e79 f   LIBCMT:wcstod.obj
 0001:00035e90       __allmul                   10036e90 f   LIBCMT:llmul.obj
 0001:00035ec4       ___crtLCMapStringW         10036ec4 f   LIBCMT:w_map.obj
 0001:00035ef3       __wfltin2                  10036ef3 f   LIBCMT:wcfin.obj
 0001:00035fa0       ___WSTRINGTOLD_L           10036fa0 f   LIBCMT:wstrgtold.obj
 0001:00035ffb       ___wstrgtold12_l           10036ffb f   LIBCMT:wstrgtold.obj
 0001:0003684c       _GetModuleHandleA@4        1003784c f   kernel32:KERNEL32.dll
 0001:00036852       _GetProcAddress@8          10037852 f   kernel32:KERNEL32.dll
 0001:00036858       _HeapAlloc@12              10037858 f   kernel32:KERNEL32.dll
 0001:0003685e       _IsDebuggerPresent@0       1003785e f   kernel32:KERNEL32.dll
 0001:00036864       _IsProcessorFeaturePresent@4 10037864 f   kernel32:KERNEL32.dll
 0001:0003686a       _EncodePointer@4           1003786a f   kernel32:KERNEL32.dll
 0001:00036870       _DecodePointer@4           10037870 f   kernel32:KERNEL32.dll
 0001:00036876       _GetLastError@0            10037876 f   kernel32:KERNEL32.dll
 0001:0003687c       _ExitProcess@4             1003787c f   kernel32:KERNEL32.dll
 0001:00036882       _GetModuleHandleExW@12     10037882 f   kernel32:KERNEL32.dll
 0001:00036888       _AreFileApisANSI@0         10037888 f   kernel32:KERNEL32.dll
 0001:0003688e       _MultiByteToWideChar@24    1003788e f   kernel32:KERNEL32.dll
 0001:00036894       _WideCharToMultiByte@32    10037894 f   kernel32:KERNEL32.dll
 0001:0003689a       _HeapFree@12               1003789a f   kernel32:KERNEL32.dll
 0001:000368a0       _HeapReAlloc@16            100378a0 f   kernel32:KERNEL32.dll
 0001:000368a6       _EnterCriticalSection@4    100378a6 f   kernel32:KERNEL32.dll
 0001:000368ac       _LeaveCriticalSection@4    100378ac f   kernel32:KERNEL32.dll
 0001:000368b2       _GetStdHandle@4            100378b2 f   kernel32:KERNEL32.dll
 0001:000368b8       _GetFileType@4             100378b8 f   kernel32:KERNEL32.dll
 0001:000368be       _GetModuleFileNameW@12     100378be f   kernel32:KERNEL32.dll
 0001:000368c4       _WriteConsoleW@20          100378c4 f   kernel32:KERNEL32.dll
 0001:000368ca       _GetCommandLineA@0         100378ca f   kernel32:KERNEL32.dll
 0001:000368d0       _GetCurrentThreadId@0      100378d0 f   kernel32:KERNEL32.dll
 0001:000368d6       _WriteFile@20              100378d6 f   kernel32:KERNEL32.dll
 0001:000368dc       _GetProcessHeap@0          100378dc f   kernel32:KERNEL32.dll
 0001:000368e2       _UnhandledExceptionFilter@4 100378e2 f   kernel32:KERNEL32.dll
 0001:000368e8       _SetUnhandledExceptionFilter@4 100378e8 f   kernel32:KERNEL32.dll
 0001:000368ee       _SetLastError@4            100378ee f   kernel32:KERNEL32.dll
 0001:000368f4       _InitializeCriticalSectionAndSpinCount@8 100378f4 f   kernel32:KERNEL32.dll
 0001:000368fa       _CreateEventW@16           100378fa f   kernel32:KERNEL32.dll
 0001:00036900       _Sleep@4                   10037900 f   kernel32:KERNEL32.dll
 0001:00036906       _GetCurrentProcess@0       10037906 f   kernel32:KERNEL32.dll
 0001:0003690c       _TerminateProcess@8        1003790c f   kernel32:KERNEL32.dll
 0001:00036912       _TlsAlloc@0                10037912 f   kernel32:KERNEL32.dll
 0001:00036918       _TlsGetValue@4             10037918 f   kernel32:KERNEL32.dll
 0001:0003691e       _TlsSetValue@8             1003791e f   kernel32:KERNEL32.dll
 0001:00036924       _TlsFree@4                 10037924 f   kernel32:KERNEL32.dll
 0001:0003692a       _GetStartupInfoW@4         1003792a f   kernel32:KERNEL32.dll
 0001:00036930       _GetTickCount@0            10037930 f   kernel32:KERNEL32.dll
 0001:00036936       _GetModuleHandleW@4        10037936 f   kernel32:KERNEL32.dll
 0001:0003693c       _CreateSemaphoreW@16       1003793c f   kernel32:KERNEL32.dll
 0001:00036942       _DeleteCriticalSection@4   10037942 f   kernel32:KERNEL32.dll
 0001:00036948       _FatalAppExitA@8           10037948 f   kernel32:KERNEL32.dll
 0001:0003694e       _SetConsoleCtrlHandler@8   1003794e f   kernel32:KERNEL32.dll
 0001:00036954       _FreeLibrary@4             10037954 f   kernel32:KERNEL32.dll
 0001:0003695a       _LoadLibraryExW@12         1003795a f   kernel32:KERNEL32.dll
 0001:00036960       _IsValidCodePage@4         10037960 f   kernel32:KERNEL32.dll
 0001:00036966       _GetACP@0                  10037966 f   kernel32:KERNEL32.dll
 0001:0003696c       _GetOEMCP@0                1003796c f   kernel32:KERNEL32.dll
 0001:00036972       _GetCPInfo@8               10037972 f   kernel32:KERNEL32.dll
 0001:00036978       _CloseHandle@4             10037978 f   kernel32:KERNEL32.dll
 0001:0003697e       _RtlUnwind@16              1003797e f   kernel32:KERNEL32.dll
 0001:00036984       _ReadFile@20               10037984 f   kernel32:KERNEL32.dll
 0001:0003698a       _GetConsoleMode@8          1003798a f   kernel32:KERNEL32.dll
 0001:00036990       _ReadConsoleW@20           10037990 f   kernel32:KERNEL32.dll
 0001:00036996       _GetConsoleCP@0            10037996 f   kernel32:KERNEL32.dll
 0001:0003699c       _DeleteFileW@4             1003799c f   kernel32:KERNEL32.dll
 0001:000369a2       _SetFilePointerEx@20       100379a2 f   kernel32:KERNEL32.dll
 0001:000369a8       _RaiseException@16         100379a8 f   kernel32:KERNEL32.dll
 0001:000369ae       _OutputDebugStringW@4      100379ae f   kernel32:KERNEL32.dll
 0001:000369b4       _GetCurrentThread@0        100379b4 f   kernel32:KERNEL32.dll
 0001:000369ba       _GetModuleFileNameA@12     100379ba f   kernel32:KERNEL32.dll
 0001:000369c0       _QueryPerformanceCounter@4 100379c0 f   kernel32:KERNEL32.dll
 0001:000369c6       _GetCurrentProcessId@0     100379c6 f   kernel32:KERNEL32.dll
 0001:000369cc       _GetSystemTimeAsFileTime@4 100379cc f   kernel32:KERNEL32.dll
 0001:000369d2       _GetEnvironmentStringsW@0  100379d2 f   kernel32:KERNEL32.dll
 0001:000369d8       _FreeEnvironmentStringsW@4 100379d8 f   kernel32:KERNEL32.dll
 0001:000369de       _HeapSize@12               100379de f   kernel32:KERNEL32.dll
 0001:000369e4       _GetDateFormatW@24         100379e4 f   kernel32:KERNEL32.dll
 0001:000369ea       _GetTimeFormatW@24         100379ea f   kernel32:KERNEL32.dll
 0001:000369f0       _CompareStringW@24         100379f0 f   kernel32:KERNEL32.dll
 0001:000369f6       _LCMapStringW@24           100379f6 f   kernel32:KERNEL32.dll
 0001:000369fc       _GetLocaleInfoW@16         100379fc f   kernel32:KERNEL32.dll
 0001:00036a02       _IsValidLocale@8           10037a02 f   kernel32:KERNEL32.dll
 0001:00036a08       _GetUserDefaultLCID@0      10037a08 f   kernel32:KERNEL32.dll
 0001:00036a0e       _EnumSystemLocalesW@8      10037a0e f   kernel32:KERNEL32.dll
 0001:00036a14       _GetStringTypeW@16         10037a14 f   kernel32:KERNEL32.dll
 0001:00036a1a       _FlushFileBuffers@4        10037a1a f   kernel32:KERNEL32.dll
 0001:00036a20       _SetStdHandle@8            10037a20 f   kernel32:KERNEL32.dll
 0001:00036a26       _CreateFileW@28            10037a26 f   kernel32:KERNEL32.dll
 0001:00036a2c       _SetEndOfFile@4            10037a2c f   kernel32:KERNEL32.dll
 0002:00000000       ___xc_a                    10042000     LIBCMT:crt0init.obj
 0002:00000104       ___xc_z                    10042104     LIBCMT:crt0init.obj
 0002:00000208       ___xi_a                    10042208     LIBCMT:crt0init.obj
 0002:00000424       ___xi_z                    10042424     LIBCMT:crt0init.obj
 0002:00000528       ___xp_a                    10042528     LIBCMT:crt0init.obj
 0002:0000083c       ___xp_z                    1004283c     LIBCMT:crt0init.obj
 0002:00000940       ___xt_a                    10042940     LIBCMT:crt0init.obj
 0002:00000a44       ___xt_z                    10042a44     LIBCMT:crt0init.obj
 0002:00000b88       _FingerStrokeAssistance_M  10042b88     FingerStrokeAssistance.obj
 0002:00000b8c       ??_C@_0BI@PBFPDHLE@Error?5creating?5scope?54?6?$AA@ 10042b8c     FingerStrokeAssistance.obj
 0002:00000ba8       ??_C@_0O@LGBPGFOL@signals?1Gain3?$AA@ 10042ba8     FingerStrokeAssistance.obj
 0002:00000bb8       ??_C@_0DB@ENPBKHPM@Robot?1account?5for?5handedness1?1MA@ 10042bb8     FingerStrokeAssistance.obj
 0002:00000bf4       ??_C@_0O@CAPLFIJB@Robot?1Gain?1s2?$AA@ 10042bf4     FingerStrokeAssistance.obj
 0002:00000c04       ??_C@_0BG@JDAHNDCJ@MATLAB?5Function?1p7?1s2?$AA@ 10042c04     FingerStrokeAssistance.obj
 0002:00000c20       ??_C@_0N@NDALLKN@Robot?1Sum?1s2?$AA@ 10042c20     FingerStrokeAssistance.obj
 0002:00000c30       ??_C@_0O@DNKOCOOP@f_ref2?3?$CF15?46f?$AA@ 10042c30     FingerStrokeAssistance.obj
 0002:00000c40       ??_C@_0BA@BAONOGED@enc_raw2?3?$CF15?46f?$AA@ 10042c40     FingerStrokeAssistance.obj
 0002:00000c54       ??_C@_0BB@NKMEAAFC@enc_norm2?3?$CF15?46f?$AA@ 10042c54     FingerStrokeAssistance.obj
 0002:00000c68       ??_C@_0BB@GFJCGJHB@pos_ref_2?3?$CF15?46f?$AA@ 10042c68     FingerStrokeAssistance.obj
 0002:00000c7c       ??_C@_0BC@IDGACA@pos_meas_2?3?$CF15?46f?$AA@ 10042c7c     FingerStrokeAssistance.obj
 0002:00000c94       ??_C@_0BI@PEBACBDB@Error?5creating?5scope?53?6?$AA@ 10042c94     FingerStrokeAssistance.obj
 0002:00000cb0       ??_C@_0O@KPAEFEKK@signals?1Gain2?$AA@ 10042cb0     FingerStrokeAssistance.obj
 0002:00000cc0       ??_C@_0DB@GGNMPEDP@Robot?1account?5for?5handedness1?1MA@ 10042cc0     FingerStrokeAssistance.obj
 0002:00000cfc       ??_C@_0O@LNGALFC@Robot?1Gain?1s1?$AA@ 10042cfc     FingerStrokeAssistance.obj
 0002:00000d0c       ??_C@_0BG@LICKIAOK@MATLAB?5Function?1p7?1s1?$AA@ 10042d0c     FingerStrokeAssistance.obj
 0002:00000d28       ??_C@_0N@CGBNOIGO@Robot?1Sum?1s1?$AA@ 10042d28     FingerStrokeAssistance.obj
 0002:00000d38       ??_C@_0BA@MKGFJNCI@f_ref1?3?$CF15?46f?5N?$AA@ 10042d38     FingerStrokeAssistance.obj
 0002:00000d4c       ??_C@_0P@JDGPLDCK@enc_raw?3?$CF15?46f?$AA@ 10042d4c     FingerStrokeAssistance.obj
 0002:00000d60       ??_C@_0BA@ELCINL@enc_norm?3?$CF15?46f?$AA@ 10042d60     FingerStrokeAssistance.obj
 0002:00000d74       ??_C@_0BB@FMBPFFLE@pos_ref_1?3?$CF15?46f?$AA@ 10042d74     FingerStrokeAssistance.obj
 0002:00000d88       ??_C@_0BC@DJAOFMOF@pos_meas_1?3?$CF15?46f?$AA@ 10042d88     FingerStrokeAssistance.obj
 0002:00000da0       ??_C@_0BI@PHJEPFFP@Error?5creating?5scope?51?6?$AA@ 10042da0     FingerStrokeAssistance.obj
 0002:00000dbc       ??_C@_0BD@KDGDPNDI@MATLAB?5Function?1p1?$AA@ 10042dbc     FingerStrokeAssistance.obj
 0002:00000dd4       ??_C@_0BA@KHHDAHD@signals?1Gain?1s1?$AA@ 10042dd4     FingerStrokeAssistance.obj
 0002:00000de8       ??_C@_0BA@CBFKGDLA@signals?1Gain?1s2?$AA@ 10042de8     FingerStrokeAssistance.obj
 0002:00000dfc       ??_C@_0N@NEDGIMDD@state?3?$CF15?46f?$AA@ 10042dfc     FingerStrokeAssistance.obj
 0002:00000e0c       ??_C@_0BH@DNEEKCDA@f_ref_limited_1?3?$CF15?46f?$AA@ 10042e0c     FingerStrokeAssistance.obj
 0002:00000e28       ??_C@_0BH@EMJJOPF@f_ref_limited_2?3?$CF15?46f?$AA@ 10042e28     FingerStrokeAssistance.obj
 0002:00000e44       ??_C@_0BI@PFNCELAG@Error?5creating?5scope?52?6?$AA@ 10042e44     FingerStrokeAssistance.obj
 0002:00000e60       ??_C@_0BB@CCEOJAFD@signals?1Gain1?1s1?$AA@ 10042e60     FingerStrokeAssistance.obj
 0002:00000e74       ??_C@_0BB@JGDMDJA@signals?1Gain1?1s2?$AA@ 10042e74     FingerStrokeAssistance.obj
 0002:00000e88       ??_C@_0CH@PENCCFNF@HL?5Controller?1Discrete?9Time?5Inte@ 10042e88     FingerStrokeAssistance.obj
 0002:00000eb8       ??_C@_0BK@CIALIDMG@Robot?1Discrete?5Filter1?1s1?$AA@ 10042eb8     FingerStrokeAssistance.obj
 0002:00000ed8       ??_C@_0BK@DCGNAAF@Robot?1Discrete?5Filter1?1s2?$AA@ 10042ed8     FingerStrokeAssistance.obj
 0002:00000ef8       ??_C@_0BD@LBKJDOHN@f_ref_pid_1?3?$CF15?46f?$AA@ 10042ef8     FingerStrokeAssistance.obj
 0002:00000f10       ??_C@_0BD@IICEACLI@f_ref_pid_2?3?$CF15?46f?$AA@ 10042f10     FingerStrokeAssistance.obj
 0002:00000f28       ??_C@_0BB@FNFHGNEI@pos_ref_g?3?$CF15?46f?$AA@ 10042f28     FingerStrokeAssistance.obj
 0002:00000f3c       ??_C@_0BC@GNJDGGJN@vel_meas_1?3?$CF15?46f?$AA@ 10042f3c     FingerStrokeAssistance.obj
 0002:00000f54       ??_C@_0BC@FEBOFKFI@vel_meas_2?3?$CF15?46f?$AA@ 10042f54     FingerStrokeAssistance.obj
 0002:00000f6c       ??_C@_0BC@OJJPBDHH@FixedStepDiscrete?$AA@ 10042f6c     FingerStrokeAssistance.obj
 0002:00000f84       ??_C@_04EPKDLPPB@tout?$AA@ 10042f84     FingerStrokeAssistance.obj
 0002:00000f8a       ??_C@_00CNPNBAHC@?$AA@     10042f8a     FingerStrokeAssistance.obj
 0002:00000f8c       ??_C@_03HBFGMJOD@rt_?$AA@  10042f8c     FingerStrokeAssistance.obj
 0002:00000f90       ??_C@_0O@IFKELIIB@PCI?56221?5ENC?5?$AA@ 10042f90     FingerStrokeAssistance.obj
 0002:00000fa0       ??_C@_0CL@FGFCPCFH@FingerStrokeAssistance?1Robot?1PCI@ 10042fa0     FingerStrokeAssistance.obj
 0002:00000fd4       ??_C@_0P@FMGHBALM@PCI?56221?5ENC?51?$AA@ 10042fd4     FingerStrokeAssistance.obj
 0002:00000fe8       ??_C@_0CM@DDAEJBBH@FingerStrokeAssistance?1Robot?1PCI@ 10042fe8     FingerStrokeAssistance.obj
 0002:0000101c       ??_C@_0M@HBIEHIJL@PCI?96221?5DA?$AA@ 1004301c     FingerStrokeAssistance.obj
 0002:0000102c       ??_C@_0CJ@KACMKMOO@FingerStrokeAssistance?1Robot?1PCI@ 1004302c     FingerStrokeAssistance.obj
 0002:00001060       ??_C@_0N@JAOEPLNP@PCI?96221?5AD1?$AA@ 10043060     FingerStrokeAssistance.obj
 0002:00001070       ??_C@_0CK@LAFKNGLI@FingerStrokeAssistance?1Robot?1PCI@ 10043070     FingerStrokeAssistance.obj
 0002:000010a8       __real@0000000000000000    100430a8     FingerStrokeAssistance.obj
 0002:000010b8       __real@3f50624dd2f1a9fc    100430b8     FingerStrokeAssistance.obj
 0002:000010c8       __real@3f9eb851eb851eb8    100430c8     FingerStrokeAssistance.obj
 0002:000010d8       __real@3fb999999999999a    100430d8     FingerStrokeAssistance.obj
 0002:000010e8       __real@3fe0000000000000    100430e8     FingerStrokeAssistance.obj
 0002:000010f8       __real@3feccccccccccccd    100430f8     FingerStrokeAssistance.obj
 0002:00001108       __real@3ff0000000000000    10043108     FingerStrokeAssistance.obj
 0002:00001118       __real@4000000000000000    10043118     FingerStrokeAssistance.obj
 0002:00001128       __real@4004000000000000    10043128     FingerStrokeAssistance.obj
 0002:00001138       __real@4008000000000000    10043138     FingerStrokeAssistance.obj
 0002:00001148       __real@4010000000000000    10043148     FingerStrokeAssistance.obj
 0002:00001158       __real@4014000000000000    10043158     FingerStrokeAssistance.obj
 0002:00001168       __real@4018000000000000    10043168     FingerStrokeAssistance.obj
 0002:00001178       __real@4024000000000000    10043178     FingerStrokeAssistance.obj
 0002:00001188       __real@402e000000000000    10043188     FingerStrokeAssistance.obj
 0002:00001198       __real@41f0000000000000    10043198     FingerStrokeAssistance.obj
 0002:000011a8       __real@4330000000000000    100431a8     FingerStrokeAssistance.obj
 0002:000011b8       __real@8000000000000000    100431b8     FingerStrokeAssistance.obj
 0002:000011c8       __real@bfe0000000000000    100431c8     FingerStrokeAssistance.obj
 0002:000011d8       __real@bff0000000000000    100431d8     FingerStrokeAssistance.obj
 0002:000011e8       __real@c004000000000000    100431e8     FingerStrokeAssistance.obj
 0002:00001200       __xmm@00000000000000003f50624dd2f1a9fc 10043200     FingerStrokeAssistance.obj
 0002:00001220       __xmm@00000000000000003ff0000000000000 10043220     FingerStrokeAssistance.obj
 0002:00001240       __xmm@000000fc000000820000008300000001 10043240     FingerStrokeAssistance.obj
 0002:00001260       __xmm@3ff00000000000003feccccccccccccd 10043260     FingerStrokeAssistance.obj
 0002:00001280       __xmm@41f00000000000000000000000000000 10043280     FingerStrokeAssistance.obj
 0002:000012a0       __xmm@7fffffffffffffff7fffffffffffffff 100432a0     FingerStrokeAssistance.obj
 0002:000031a8       ??_C@_0BD@IIEOKOPL@MATLAB?5Function?1p2?$AA@ 100451a8     FingerStrokeAssistance_capi.obj
 0002:000031c0       ??_C@_0BD@JBFFJPLK@MATLAB?5Function?1p3?$AA@ 100451c0     FingerStrokeAssistance_capi.obj
 0002:000031d8       ??_C@_0BD@NOBEAJHN@MATLAB?5Function?1p4?$AA@ 100451d8     FingerStrokeAssistance_capi.obj
 0002:000031f0       ??_C@_0BD@MHAPDIDM@MATLAB?5Function?1p5?$AA@ 100451f0     FingerStrokeAssistance_capi.obj
 0002:00003208       ??_C@_0BD@OMCCGLPP@MATLAB?5Function?1p6?$AA@ 10045208     FingerStrokeAssistance_capi.obj
 0002:00003220       ??_C@_0BD@PFDJFKLO@MATLAB?5Function?1p7?$AA@ 10045220     FingerStrokeAssistance_capi.obj
 0002:00003238       ??_C@_0BD@HCKBEGHB@MATLAB?5Function?1p8?$AA@ 10045238     FingerStrokeAssistance_capi.obj
 0002:00003250       ??_C@_0BD@GLLKHHDA@MATLAB?5Function?1p9?$AA@ 10045250     FingerStrokeAssistance_capi.obj
 0002:00003268       ??_C@_0BF@GGMNNFDC@Data?5Type?5Conversion?$AA@ 10045268     FingerStrokeAssistance_capi.obj
 0002:00003284       ??_C@_0BG@OOMJLOH@Data?5Type?5Conversion1?$AA@ 10045284     FingerStrokeAssistance_capi.obj
 0002:000032a0       ??_C@_0L@EGNLABOL@Unit?5Delay?$AA@ 100452a0     FingerStrokeAssistance_capi.obj
 0002:000032b0       ??_C@_0M@PBMDOHED@Unit?5Delay1?$AA@ 100452b0     FingerStrokeAssistance_capi.obj
 0002:000032c0       ??_C@_0M@NKOOLEIA@Unit?5Delay2?$AA@ 100452c0     FingerStrokeAssistance_capi.obj
 0002:000032d0       ??_C@_0M@MDPFIFMB@Unit?5Delay3?$AA@ 100452d0     FingerStrokeAssistance_capi.obj
 0002:000032e0       ??_C@_0CD@GLAMPGEM@HL?5Controller?1Data?5Type?5Conversi@ 100452e0     FingerStrokeAssistance_capi.obj
 0002:0000330c       ??_C@_0BG@JLDBOJPN@HL?5Controller?1Damping?$AA@ 1004530c     FingerStrokeAssistance_capi.obj
 0002:00003328       ??_C@_0BE@OJENBPFA@HL?5Controller?1Gain1?$AA@ 10045328     FingerStrokeAssistance_capi.obj
 0002:00003340       ??_C@_0BE@JOHLLJDM@HL?5Controller?1Delay?$AA@ 10045340     FingerStrokeAssistance_capi.obj
 0002:00003358       ??_C@_0BF@OJKMAAIM@HL?5Controller?1Delay1?$AA@ 10045358     FingerStrokeAssistance_capi.obj
 0002:00003374       ??_C@_0BP@PNFNPGMG@HL?5Controller?1Discrete?5Filter1?$AA@ 10045374     FingerStrokeAssistance_capi.obj
 0002:0000339c       ??_C@_0BJ@ELDEKLE@LL?5Force?5Controller?1Gain?$AA@ 1004539c     FingerStrokeAssistance_capi.obj
 0002:000033bc       ??_C@_0BL@CCMCIEEP@LL?5Position?5Controller?1Sum?$AA@ 100453bc     FingerStrokeAssistance_capi.obj
 0002:000033dc       ??_C@_0L@NEPEIPFM@Robot?1Gain?$AA@ 100453dc     FingerStrokeAssistance_capi.obj
 0002:000033ec       ??_C@_0M@KEFEOOOC@Robot?1Gain1?$AA@ 100453ec     FingerStrokeAssistance_capi.obj
 0002:000033fc       ??_C@_0BE@OMELOOBD@Robot?1PCI?56221?5ENC?5?$AA@ 100453fc     FingerStrokeAssistance_capi.obj
 0002:00003414       ??_C@_0BF@ECAPANIC@Robot?1PCI?56221?5ENC?51?$AA@ 10045414     FingerStrokeAssistance_capi.obj
 0002:00003430       ??_C@_0BG@HNHIMJLG@Robot?1PCI?96221?5AD1?1p1?$AA@ 10045430     FingerStrokeAssistance_capi.obj
 0002:0000344c       ??_C@_0BG@FGFFJKHF@Robot?1PCI?96221?5AD1?1p2?$AA@ 1004544c     FingerStrokeAssistance_capi.obj
 0002:00003468       ??_C@_0BG@EPEOKLDE@Robot?1PCI?96221?5AD1?1p3?$AA@ 10045468     FingerStrokeAssistance_capi.obj
 0002:00003484       ??_C@_0BG@PDNPD@Robot?1PCI?96221?5AD1?1p4?$AA@ 10045484     FingerStrokeAssistance_capi.obj
 0002:000034a0       ??_C@_0BG@BJBEAMLC@Robot?1PCI?96221?5AD1?1p5?$AA@ 100454a0     FingerStrokeAssistance_capi.obj
 0002:000034bc       ??_C@_0BG@DCDJFPHB@Robot?1PCI?96221?5AD1?1p6?$AA@ 100454bc     FingerStrokeAssistance_capi.obj
 0002:000034d8       ??_C@_0BG@CLCCGODA@Robot?1PCI?96221?5AD1?1p7?$AA@ 100454d8     FingerStrokeAssistance_capi.obj
 0002:000034f4       ??_C@_0BG@KMLKHCPP@Robot?1PCI?96221?5AD1?1p8?$AA@ 100454f4     FingerStrokeAssistance_capi.obj
 0002:00003510       ??_C@_09EFINPMFM@Robot?1Sum?$AA@ 10045510     FingerStrokeAssistance_capi.obj
 0002:0000351c       ??_C@_0BH@LHMPPFDF@Robot?1Discrete?5Filter1?$AA@ 1004551c     FingerStrokeAssistance_capi.obj
 0002:00003538       ??_C@_0BB@ONCKFKHP@Robot?1Unit?5Delay?$AA@ 10045538     FingerStrokeAssistance_capi.obj
 0002:0000354c       ??_C@_0BP@HDIBGFHC@Subsystem?1Data?5Type?5Conversion?$AA@ 1004554c     FingerStrokeAssistance_capi.obj
 0002:00003574       ??_C@_0CD@IGDCNCLO@Subsystem?1Discrete?9Time?5Integrat@ 10045574     FingerStrokeAssistance_capi.obj
 0002:000035a0       ??_C@_0BG@DAMAHEPC@Subsystem?1Unit?5Delay1?$AA@ 100455a0     FingerStrokeAssistance_capi.obj
 0002:000035bc       ??_C@_0BG@BLONCHDB@Subsystem?1Unit?5Delay2?$AA@ 100455bc     FingerStrokeAssistance_capi.obj
 0002:000035d8       ??_C@_0CA@EBCNJBOK@Subsystem1?1Data?5Type?5Conversion?$AA@ 100455d8     FingerStrokeAssistance_capi.obj
 0002:00003600       ??_C@_0CE@IGGOGCJM@Subsystem1?1Discrete?9Time?5Integra@ 10045600     FingerStrokeAssistance_capi.obj
 0002:0000362c       ??_C@_0BH@OCBAAL@Subsystem1?1Unit?5Delay1?$AA@ 1004562c     FingerStrokeAssistance_capi.obj
 0002:00003648       ??_C@_0BH@CLMPEDMI@Subsystem1?1Unit?5Delay2?$AA@ 10045648     FingerStrokeAssistance_capi.obj
 0002:00003664       ??_C@_0BJ@LDIJMIN@parameters?1parChangeRate?$AA@ 10045664     FingerStrokeAssistance_capi.obj
 0002:00003684       ??_C@_0BG@MANKCMPG@parameters?1parFThresh?$AA@ 10045684     FingerStrokeAssistance_capi.obj
 0002:000036a0       ??_C@_0BH@GKLAKHLL@parameters?1parFixedDur?$AA@ 100456a0     FingerStrokeAssistance_capi.obj
 0002:000036bc       ??_C@_0BL@EGOKLGEF@parameters?1parForceTrigger?$AA@ 100456bc     FingerStrokeAssistance_capi.obj
 0002:000036dc       ??_C@_0BC@FKHIPIEO@parameters?1parKd1?$AA@ 100456dc     FingerStrokeAssistance_capi.obj
 0002:000036f4       ??_C@_0BC@HBFFKLIN@parameters?1parKd2?$AA@ 100456f4     FingerStrokeAssistance_capi.obj
 0002:0000370c       ??_C@_0BD@BKPLMOHI@parameters?1parKdV1?$AA@ 1004570c     FingerStrokeAssistance_capi.obj
 0002:00003724       ??_C@_0BD@DBNGJNLL@parameters?1parKdV2?$AA@ 10045724     FingerStrokeAssistance_capi.obj
 0002:0000373c       ??_C@_0BC@EBFHPDOC@parameters?1parKp1?$AA@ 1004573c     FingerStrokeAssistance_capi.obj
 0002:00003754       ??_C@_0BC@GKHKKACB@parameters?1parKp2?$AA@ 10045754     FingerStrokeAssistance_capi.obj
 0002:0000376c       ??_C@_0BH@PENPCGFM@parameters?1parLeftMode?$AA@ 1004576c     FingerStrokeAssistance_capi.obj
 0002:00003788       ??_C@_0BF@GLMDNGIG@parameters?1parMarker?$AA@ 10045788     FingerStrokeAssistance_capi.obj
 0002:000037a4       ??_C@_0BJ@BNLOJEEL@parameters?1parMaxTrajDur?$AA@ 100457a4     FingerStrokeAssistance_capi.obj
 0002:000037c4       ??_C@_0BE@GHPCIJPH@parameters?1parPStop?$AA@ 100457c4     FingerStrokeAssistance_capi.obj
 0002:000037dc       ??_C@_0BH@GJMCKDGC@parameters?1parTrajMode?$AA@ 100457dc     FingerStrokeAssistance_capi.obj
 0002:000037f8       ??_C@_0BG@LMGBBNNN@parameters?1parVThresh?$AA@ 100457f8     FingerStrokeAssistance_capi.obj
 0002:00003814       ??_C@_0BI@PBEPHEEP@parameters?1parWiggleAmp?$AA@ 10045814     FingerStrokeAssistance_capi.obj
 0002:00003830       ??_C@_0BN@BNDFGDOE@parameters?1Rounding?5Function?$AA@ 10045830     FingerStrokeAssistance_capi.obj
 0002:00003854       ??_C@_0BG@KKGOACNA@parameters?1Saturation?$AA@ 10045854     FingerStrokeAssistance_capi.obj
 0002:00003870       ??_C@_0BH@EACELLGE@parameters?1Saturation1?$AA@ 10045870     FingerStrokeAssistance_capi.obj
 0002:0000388c       ??_C@_0BH@GLAJOIKH@parameters?1Saturation2?$AA@ 1004588c     FingerStrokeAssistance_capi.obj
 0002:000038a8       ??_C@_0N@MGJILHCJ@signals?1Gain?$AA@ 100458a8     FingerStrokeAssistance_capi.obj
 0002:000038b8       ??_C@_0O@IECJAHGJ@signals?1Gain1?$AA@ 100458b8     FingerStrokeAssistance_capi.obj
 0002:000038c8       ??_C@_0DG@IOBGNGCJ@HL?5Controller?1Detect?5Change?1FixP@ 100458c8     FingerStrokeAssistance_capi.obj
 0002:00003908       ??_C@_0CJ@CLPCMDPG@HL?5Controller?1Detect?5Change?1Dela@ 10045908     FingerStrokeAssistance_capi.obj
 0002:0000393c       ??_C@_06CFNEEADJ@U?$CIk?91?$CJ?$AA@ 1004593c     FingerStrokeAssistance_capi.obj
 0002:00003944       ??_C@_0DG@KEKODAM@LL?5Position?5Controller?1Discrete?5@ 10045944     FingerStrokeAssistance_capi.obj
 0002:00003984       ??_C@_0DK@FEAOEOMF@LL?5Position?5Controller?1Discrete?5@ 10045984     FingerStrokeAssistance_capi.obj
 0002:000039cc       ??_C@_0DP@BEAACIAJ@LL?5Position?5Controller?1Discrete?5@ 100459cc     FingerStrokeAssistance_capi.obj
 0002:00003a18       ??_C@_0EC@JPHJHLOK@LL?5Position?5Controller?1Discrete?5@ 10045a18     FingerStrokeAssistance_capi.obj
 0002:00003a68       ??_C@_0DN@OCDKGAHF@LL?5Position?5Controller?1Discrete?5@ 10045a68     FingerStrokeAssistance_capi.obj
 0002:00003ab8       ??_C@_0EB@MFGGOBNC@LL?5Position?5Controller?1Discrete?5@ 10045ab8     FingerStrokeAssistance_capi.obj
 0002:00003b08       ??_C@_0DD@GAMJPEHE@LL?5Position?5Controller?1Discrete?5@ 10045b08     FingerStrokeAssistance_capi.obj
 0002:00003b48       ??_C@_0DE@MDBNPGNA@LL?5Position?5Controller?1Discrete?5@ 10045b48     FingerStrokeAssistance_capi.obj
 0002:00003b88       ??_C@_0DH@KBAOACOF@LL?5Position?5Controller?1Saturatio@ 10045b88     FingerStrokeAssistance_capi.obj
 0002:00003bcc       ??_C@_0DG@OJDANGHJ@LL?5Position?5Controller?1Saturatio@ 10045bcc     FingerStrokeAssistance_capi.obj
 0002:00003c0c       ??_C@_0DC@BEODJEFG@LL?5Position?5Controller?1Saturatio@ 10045c0c     FingerStrokeAssistance_capi.obj
 0002:00003c48       ??_C@_0DD@GPGMEDCE@LL?5Position?5Controller?1Saturatio@ 10045c48     FingerStrokeAssistance_capi.obj
 0002:00003c88       ??_C@_0BP@DAEPAEBF@Robot?1Discrete?5Derivative?1Diff?$AA@ 10045c88     FingerStrokeAssistance_capi.obj
 0002:00003cb0       ??_C@_0CA@DLBHKHPN@Robot?1Discrete?5Derivative?1TSamp?$AA@ 10045cb0     FingerStrokeAssistance_capi.obj
 0002:00003cd8       ??_C@_0BN@GNNONLLN@Robot?1Discrete?5Derivative?1UD?$AA@ 10045cd8     FingerStrokeAssistance_capi.obj
 0002:00003cfc       ??_C@_0CF@JOKCEMIH@Robot?1Saturation?5Dynamic?1LowerRe@ 10045cfc     FingerStrokeAssistance_capi.obj
 0002:00003d28       ??_C@_0CE@PAHIGJNP@Robot?1Saturation?5Dynamic?1UpperRe@ 10045d28     FingerStrokeAssistance_capi.obj
 0002:00003d54       ??_C@_0CA@NDOLBHN@Robot?1Saturation?5Dynamic?1Switch?$AA@ 10045d54     FingerStrokeAssistance_capi.obj
 0002:00003d7c       ??_C@_0CB@MDMJGHEB@Robot?1Saturation?5Dynamic?1Switch2@ 10045d7c     FingerStrokeAssistance_capi.obj
 0002:00003da4       ??_C@_0BO@KMPBMPBM@Robot?1Triggered?5Subsystem?1In1?$AA@ 10045da4     FingerStrokeAssistance_capi.obj
 0002:00003dc8       ??_C@_0DA@IHGHECDK@Robot?1account?5for?5handedness?1MAT@ 10045dc8     FingerStrokeAssistance_capi.obj
 0002:00003e04       ??_C@_0DA@KMEKBBPJ@Robot?1account?5for?5handedness?1MAT@ 10045e04     FingerStrokeAssistance_capi.obj
 0002:00003e40       ??_C@_0DD@LGPLBJIP@Robot?1account?5for?5handedness?5for@ 10045e40     FingerStrokeAssistance_capi.obj
 0002:00003e80       ??_C@_0DB@BNMCHGNM@Robot?1account?5for?5handedness2?1MA@ 10045e80     FingerStrokeAssistance_capi.obj
 0002:00003ebc       ??_C@_0DB@DGOPCFBP@Robot?1account?5for?5handedness2?1MA@ 10045ebc     FingerStrokeAssistance_capi.obj
 0002:00003ef8       ??_C@_0CM@LEIBMJGE@Robot?1filtered?5force?5output?1Low?5@ 10045ef8     FingerStrokeAssistance_capi.obj
 0002:00003f2c       ??_C@_0CN@IMDGCDDK@Robot?1filtered?5force?5output?1Low?5@ 10045f2c     FingerStrokeAssistance_capi.obj
 0002:00003f64       ??_C@_0CD@NAELEMPL@Robot?1filtered?5force?5output?1Memo@ 10045f64     FingerStrokeAssistance_capi.obj
 0002:00003f90       ??_C@_0CE@OMOCGHGK@Robot?1filtered?5force?5output?1Memo@ 10045f90     FingerStrokeAssistance_capi.obj
 0002:00003fbc       ??_C@_0BD@BNMELIGD@Robot?1gravDir?1gain?$AA@ 10045fbc     FingerStrokeAssistance_capi.obj
 0002:00003fd4       ??_C@_0BC@NJKIOKBB@Robot?1gravDir?1Sum?$AA@ 10045fd4     FingerStrokeAssistance_capi.obj
 0002:00003fec       ??_C@_0DC@HIOFCDHB@Subsystem?1Detect?5Change?1FixPt?5Re@ 10045fec     FingerStrokeAssistance_capi.obj
 0002:00004028       ??_C@_0CF@IOCCGEMF@Subsystem?1Detect?5Change?1Delay?5In@ 10046028     FingerStrokeAssistance_capi.obj
 0002:00004054       ??_C@_0DD@ODDDIJKC@Subsystem1?1Detect?5Change?1FixPt?5R@ 10046054     FingerStrokeAssistance_capi.obj
 0002:00004094       ??_C@_0CG@OCPBJBDF@Subsystem1?1Detect?5Change?1Delay?5I@ 10046094     FingerStrokeAssistance_capi.obj
 0002:000040c4       ??_C@_0CH@KJDMLLPO@parameters?1gain?5transition?1gainr@ 100460c4     FingerStrokeAssistance_capi.obj
 0002:000040f4       ??_C@_0CH@ICBBOIDN@parameters?1gain?5transition?1gainr@ 100460f4     FingerStrokeAssistance_capi.obj
 0002:00004124       ??_C@_0CC@BDCPHDEE@parameters?1gain?5transition?1Memor@ 10046124     FingerStrokeAssistance_capi.obj
 0002:0000414c       ??_C@_0CI@PJCJMMGB@parameters?1gain?5transition1?1gain@ 1004614c     FingerStrokeAssistance_capi.obj
 0002:0000417c       ??_C@_0CI@NCAEJPKC@parameters?1gain?5transition1?1gain@ 1004617c     FingerStrokeAssistance_capi.obj
 0002:000041ac       ??_C@_0CD@LNHEJADF@parameters?1gain?5transition1?1Memo@ 100461ac     FingerStrokeAssistance_capi.obj
 0002:000041d8       ??_C@_0CI@IFEIOJLK@parameters?1gain?5transition2?1gain@ 100461d8     FingerStrokeAssistance_capi.obj
 0002:00004208       ??_C@_0CI@KOGFLKHJ@parameters?1gain?5transition2?1gain@ 10046208     FingerStrokeAssistance_capi.obj
 0002:00004238       ??_C@_0CD@IEPJKMPA@parameters?1gain?5transition2?1Memo@ 10046238     FingerStrokeAssistance_capi.obj
 0002:00004264       ??_C@_0CI@BIEHAIMM@parameters?1gain?5transition3?1gain@ 10046264     FingerStrokeAssistance_capi.obj
 0002:00004294       ??_C@_0CI@DDGKFLAP@parameters?1gain?5transition3?1gain@ 10046294     FingerStrokeAssistance_capi.obj
 0002:000042c4       ??_C@_0CD@JDICLILD@parameters?1gain?5transition3?1Memo@ 100462c4     FingerStrokeAssistance_capi.obj
 0002:000042f0       ??_C@_0CI@HNIKKCAM@parameters?1gain?5transition4?1gain@ 100462f0     FingerStrokeAssistance_capi.obj
 0002:00004320       ??_C@_0CI@FGKHPBMP@parameters?1gain?5transition4?1gain@ 10046320     FingerStrokeAssistance_capi.obj
 0002:00004350       ??_C@_0CD@PHODNFHK@parameters?1gain?5transition4?1Memo@ 10046350     FingerStrokeAssistance_capi.obj
 0002:0000437c       ??_C@_0CI@OAIFEDHK@parameters?1gain?5transition5?1gain@ 1004637c     FingerStrokeAssistance_capi.obj
 0002:000043ac       ??_C@_0CI@MLKIBALJ@parameters?1gain?5transition5?1gain@ 100463ac     FingerStrokeAssistance_capi.obj
 0002:000043dc       ??_C@_0CD@OAJIMBDJ@parameters?1gain?5transition5?1Memo@ 100463dc     FingerStrokeAssistance_capi.obj
 0002:00004408       ??_C@_09IIHOELEE@Constant1?$AA@ 10046408     FingerStrokeAssistance_capi.obj
 0002:00004414       ??_C@_05LPIJGKJ@Value?$AA@ 10046414     FingerStrokeAssistance_capi.obj
 0002:0000441c       ??_C@_09KDFDBIIH@Constant2?$AA@ 1004641c     FingerStrokeAssistance_capi.obj
 0002:00004428       ??_C@_09LKEICJMG@Constant3?$AA@ 10046428     FingerStrokeAssistance_capi.obj
 0002:00004434       ??_C@_09PFAJLPAB@Constant4?$AA@ 10046434     FingerStrokeAssistance_capi.obj
 0002:00004440       ??_C@_09OMBCIOEA@Constant5?$AA@ 10046440     FingerStrokeAssistance_capi.obj
 0002:0000444c       ??_C@_09MHDPNNID@Constant6?$AA@ 1004644c     FingerStrokeAssistance_capi.obj
 0002:00004458       ??_C@_0BB@CFEOEMDC@InitialCondition?$AA@ 10046458     FingerStrokeAssistance_capi.obj
 0002:0000446c       ??_C@_0BM@NNJFPEF@HL?5Controller?1Detect?5Change?$AA@ 1004646c     FingerStrokeAssistance_capi.obj
 0002:00004490       ??_C@_05NAMIGJNB@vinit?$AA@ 10046490     FingerStrokeAssistance_capi.obj
 0002:00004498       ??_C@_07KKMCCDCH@gainval?$AA@ 10046498     FingerStrokeAssistance_capi.obj
 0002:000044a4       ??_C@_0BF@GLIOIDJM@UpperSaturationLimit?$AA@ 100464a4     FingerStrokeAssistance_capi.obj
 0002:000044c0       ??_C@_0BF@EMCFELNH@LowerSaturationLimit?$AA@ 100464c0     FingerStrokeAssistance_capi.obj
 0002:000044dc       ??_C@_04OMOMKKFL@Gain?$AA@ 100464dc     FingerStrokeAssistance_capi.obj
 0002:000044e4       ??_C@_0M@KNNCJG@DelayLength?$AA@ 100464e4     FingerStrokeAssistance_capi.obj
 0002:000044f4       ??_C@_09OMDFKCLN@Numerator?$AA@ 100464f4     FingerStrokeAssistance_capi.obj
 0002:00004500       ??_C@_0M@KDILNJPK@Denominator?$AA@ 10046500     FingerStrokeAssistance_capi.obj
 0002:00004510       ??_C@_0O@KHJPNGBD@InitialStates?$AA@ 10046510     FingerStrokeAssistance_capi.obj
 0002:00004520       ??_C@_0CP@MNGHIGCN@LL?5Position?5Controller?1Discrete?5@ 10046520     FingerStrokeAssistance_capi.obj
 0002:00004558       ??_C@_01EJNLAFE@P?$AA@     10046558     FingerStrokeAssistance_capi.obj
 0002:0000455c       ??_C@_01JPJNBJEM@I?$AA@    1004655c     FingerStrokeAssistance_capi.obj
 0002:00004560       ??_C@_01CKDDGHAB@D?$AA@    10046560     FingerStrokeAssistance_capi.obj
 0002:00004564       ??_C@_01NANMIPIL@N?$AA@    10046564     FingerStrokeAssistance_capi.obj
 0002:00004568       ??_C@_0BB@BPKEPNND@ON?1?1OFF?1Constant?$AA@ 10046568     FingerStrokeAssistance_capi.obj
 0002:0000457c       ??_C@_0CL@IJMAEGGM@Position?5Control?5?1?1?5Force?5Contro@ 1004657c     FingerStrokeAssistance_capi.obj
 0002:000045b0       ??_C@_0BK@MMODBLJF@Robot?1Discrete?5Derivative?$AA@ 100465b0     FingerStrokeAssistance_capi.obj
 0002:000045d0       ??_C@_0BC@DNAKAAEE@ICPrevScaledInput?$AA@ 100465d0     FingerStrokeAssistance_capi.obj
 0002:000045e8       ??_C@_02KKFPAPOP@P1?$AA@   100465e8     FingerStrokeAssistance_capi.obj
 0002:000045ec       ??_C@_02IBHCFMCM@P2?$AA@   100465ec     FingerStrokeAssistance_capi.obj
 0002:000045f0       ??_C@_02JIGJGNGN@P3?$AA@   100465f0     FingerStrokeAssistance_capi.obj
 0002:000045f4       ??_C@_02NHCIPLKK@P4?$AA@   100465f4     FingerStrokeAssistance_capi.obj
 0002:000045f8       ??_C@_02MODDMKOL@P5?$AA@   100465f8     FingerStrokeAssistance_capi.obj
 0002:000045fc       ??_C@_02OFBOJJCI@P6?$AA@   100465fc     FingerStrokeAssistance_capi.obj
 0002:00004600       ??_C@_02PMAFKIGJ@P7?$AA@   10046600     FingerStrokeAssistance_capi.obj
 0002:00004604       ??_C@_02HLJNLEKG@P8?$AA@   10046604     FingerStrokeAssistance_capi.obj
 0002:00004608       ??_C@_02GCIGIFOH@P9?$AA@   10046608     FingerStrokeAssistance_capi.obj
 0002:0000460c       ??_C@_03OPFJJGBF@P10?$AA@  1004660c     FingerStrokeAssistance_capi.obj
 0002:00004610       ??_C@_0BD@HJHAJHEM@Robot?1PCI?96221?5AD1?$AA@ 10046610     FingerStrokeAssistance_capi.obj
 0002:00004628       ??_C@_0BC@IGENNOJN@Robot?1PCI?96221?5DA?$AA@ 10046628     FingerStrokeAssistance_capi.obj
 0002:00004640       ??_C@_0BI@CCIOLKMP@Subsystem?1Detect?5Change?$AA@ 10046640     FingerStrokeAssistance_capi.obj
 0002:0000465c       ??_C@_0BJ@KNCPHFFI@Subsystem1?1Detect?5Change?$AA@ 1004665c     FingerStrokeAssistance_capi.obj
 0002:0000467c       ??_C@_0CD@NBHNHEJB@parameters?1paremeters_?5must_be_o@ 1004667c     FingerStrokeAssistance_capi.obj
 0002:000046a8       ??_C@_0L@FBCGKKEN@UpperLimit?$AA@ 100466a8     FingerStrokeAssistance_capi.obj
 0002:000046b8       ??_C@_0L@DGFJOHKP@LowerLimit?$AA@ 100466b8     FingerStrokeAssistance_capi.obj
 0002:000046c8       ??_C@_04GKLBNPCL@WtEt?$AA@ 100466c8     FingerStrokeAssistance_capi.obj
 0002:000046d0       ??_C@_0BP@KMPJMACH@Robot?1Triggered?5Subsystem?1Out1?$AA@ 100466d0     FingerStrokeAssistance_capi.obj
 0002:000046f8       ??_C@_0O@LILIEJBO@InitialOutput?$AA@ 100466f8     FingerStrokeAssistance_capi.obj
 0002:00004708       ??_C@_02LNFHGPBG@X0?$AA@   10046708     FingerStrokeAssistance_capi.obj
 0002:0000470c       ??_C@_0BH@BIOEOLDB@Robot?1gravDir?1Constant?$AA@ 1004670c     FingerStrokeAssistance_capi.obj
 0002:00004728       ??_C@_04OELFCIM@Alow?$AA@  10046728     FingerStrokeAssistance_capi.obj
 0002:00004730       ??_C@_04EJOLCIFM@Blow?$AA@ 10046730     FingerStrokeAssistance_capi.obj
 0002:00004738       ??_C@_04HEILABOM@Clow?$AA@ 10046738     FingerStrokeAssistance_capi.obj
 0002:00004740       ??_C@_04MGKLNNPM@Dlow?$AA@ 10046740     FingerStrokeAssistance_capi.obj
 0002:00004748       ??_C@_05FKGIECOB@x0low?$AA@ 10046748     FingerStrokeAssistance_capi.obj
 0002:00004750       ??_C@_06BNJCAIGJ@double?$AA@ 10046750     FingerStrokeAssistance_capi.obj
 0002:00004758       ??_C@_06CNMIJIPB@real_T?$AA@ 10046758     FingerStrokeAssistance_capi.obj
 0002:00004760       ??_C@_0O@PPAIJIHF@unsigned?5char?$AA@ 10046760     FingerStrokeAssistance_capi.obj
 0002:00004770       ??_C@_09JBMFCIMO@boolean_T?$AA@ 10046770     FingerStrokeAssistance_capi.obj
 0002:0000477c       ??_C@_0N@OFHMGPAL@unsigned?5int?$AA@ 1004677c     FingerStrokeAssistance_capi.obj
 0002:0000478c       ??_C@_08CCMIKNJF@uint32_T?$AA@ 1004678c     FingerStrokeAssistance_capi.obj
 0002:00004798       ??_C@_05KNFBNCOH@float?$AA@ 10046798     FingerStrokeAssistance_capi.obj
 0002:000047a0       ??_C@_0CJ@GGPBKPNK@Could?5not?5start?5ToAsyncQueue?5app@ 100467a0     FingerStrokeAssistance_tgtconn.obj
 0002:00005038       ??_C@_0DJ@FHKINPLE@Unexpected?5itemKind?5?$DN?5DATA_ITEM?5@ 10047038     rt_logging.obj
 0002:0000507c       ??_C@_0DA@IEHFPFCJ@Unexpected?5itemKind?$DN?$CFd?5in?5rt_Pro@ 1004707c     rt_logging.obj
 0002:000050b8       ??_C@_0DA@IFLHJPBO@Unexpected?5itemKind?$DN?$CFd?5in?5rt_Pro@ 100470b8     rt_logging.obj
 0002:000050f4       ??_C@_0DA@IAPIIJJL@Unexpected?5itemKind?$DN?$CFd?5in?5rt_Pro@ 100470f4     rt_logging.obj
 0002:00005130       ??_C@_0BE@LCIGPJIG@MATLAB?55?40?5MAT?9file?$AA@ 10047130     rt_logging.obj
 0002:00005148       ??_C@_0FB@PCJEAJIB@?$CK?$CK?$CK?5Log?5variable?5?$CFs?5has?5wrapped?5@ 10047148     rt_logging.obj
 0002:000051b0       ??_C@_0MG@NKMLMOGF@?$CK?$CK?$CK?5To?5avoid?5wrapping?0?5explicitl@ 100471b0     rt_logging.obj
 0002:000052a0       ??_C@_0N@IPAEOLLP@_rtw_tmw?4tmw?$AA@ 100472a0     rt_logging.obj
 0002:000052b0       ??_C@_04HDOCAJNK@?$CFs?$CFs?$AA@ 100472b0     rt_logging.obj
 0002:000052b8       ??_C@_03ELIABIOC@w?$CLb?$AA@ 100472b8     rt_logging.obj
 0002:000052bc       ??_C@_0BF@JPILDDFA@?$CK?$CK?$CK?5Error?5opening?5?$CFs?$AA@ 100472bc     rt_logging.obj
 0002:000052d8       ??_C@_0BK@EEMDELA@unable?5to?5open?5data?5file?6?$AA@ 100472d8     rt_logging.obj
 0002:000052f8       ??_C@_04CGFJFPFD@none?$AA@ 100472f8     rt_logging.obj
 0002:00005300       ??_C@_0EE@LCGFPNON@?$CK?$CK?$CK?5Error?5creating?5signals?5struc@ 10047300     rt_logging.obj
 0002:00005354       ??_C@_0CE@NHECEDMK@?$CK?$CK?$CK?5Error?5creating?5log?5variable?5@ 10047354     rt_logging.obj
 0002:00005380       ??_C@_0DB@IOCGKAGH@?$CK?$CK?$CK?5Errors?5occurred?5when?5startin@ 10047380     rt_logging.obj
 0002:000053bc       ??_C@_0BO@BBLOGEBK@?$CK?$CK?$CK?5Memory?5allocation?5error?4?6?$AA@ 100473bc     rt_logging.obj
 0002:000053e0       ??_C@_0N@LGFBAGEL@?5?$CIreal?5part?$CJ?$AA@ 100473e0     rt_logging.obj
 0002:000053f0       ??_C@_0KH@CGNMHNFE@?5?5?5?5varName?5?5?5?5?5?5?5?5?5?5?$DN?5?$CFs?$CFs?6?5?5?5?5@ 100473f0     rt_logging.obj
 0002:000054b8       ??_C@_0LE@OALKKEFM@?5?5?5?5varName?5?5?5?5?5?5?5?5?5?5?$DN?5?$CFs?5?$CIcompl@ 100474b8     rt_logging.obj
 0002:00005590       ??_C@_0KF@JDDLEOKO@?5?5?5?5varName?5?5?5?5?5?5?5?5?5?5?$DN?5?$CFs?6?5?5?5?5nR@ 10047590     rt_logging.obj
 0002:00005658       ??_C@_0DP@HPDMIOFM@?$CK?$CK?$CK?5Using?5a?5default?5buffer?5of?5si@ 10047658     rt_logging.obj
 0002:000056a8       ??_C@_0KE@JEFOLKNF@?6?$CK?$CK?$CK?5Memory?5required?5to?5log?5vari@ 100476a8     rt_logging.obj
 0002:00005770       ??_C@_0JP@DKLMHCBI@?$CK?$CK?$CK?5Details?3?6?5?5?5?5?5?5?5varName?5?5?5?5?5@ 10047770     rt_logging.obj
 0002:00005830       ??_C@_0CM@CAMILBED@?$CK?$CK?$CK?5Error?5allocating?5memory?5for?5@ 10047830     rt_logging.obj
 0002:00005864       ??_C@_0DF@BBCNMOPM@?$CK?$CK?$CK?5Error?5allocating?5memory?5for?5@ 10047864     rt_logging.obj
 0002:000058a8       ??_C@_0JP@DBCLPCCI@?$CK?$CK?$CK?5Details?3?6?5?5?5?5?5?5?5varName?5?5?5?5?5@ 100478a8     rt_logging.obj
 0002:00005968       ??_C@_0FK@DPGAOBGA@?$CK?$CK?$CK?5Error?5allocating?5memory?5for?5@ 10047968     rt_logging.obj
 0002:000059d4       ??_C@_0BI@GGDNPHLJ@?$CK?$CK?$CK?5Error?5writing?5to?5?$CFs?$AA@ 100479d4     rt_logging.obj
 0002:000059f0       ??_C@_0CB@IBGJGELG@?$CK?$CK?$CK?5Error?5writing?5?$CFs?5due?5to?3?5?$CFs?6@ 100479f0     rt_logging.obj
 0002:00005a18       ??_C@_0CN@FLMCHCPB@?$CK?$CK?$CK?5Error?5writing?5log?5variable?5?$CF@ 10047a18     rt_logging.obj
 0002:00005a50       ??_C@_0DH@GAJCNOJP@?$CK?$CK?$CK?5Error?5writing?5structure?5log?5@ 10047a50     rt_logging.obj
 0002:00005a94       ??_C@_0BD@POEALECL@?$CK?$CK?5created?5?$CFs?5?$CK?$CK?6?6?$AA@ 10047a94     rt_logging.obj
 0002:00005ab0       __real@4020000000000000    10047ab0     rt_logging.obj
 0002:00005ac0       __real@41dfffffffc00000    10047ac0     rt_logging.obj
 0002:00005ad0       __real@41efffffffe00000    10047ad0     rt_logging.obj
 0002:00005ae0       __real@bfbf9add3afd2773    10047ae0     rt_logging.obj
 0002:00005af0       __real@c000000000000000    10047af0     rt_logging.obj
 0002:00005b00       __xmm@20202020202020202020202020202020 10047b00     rt_logging.obj
 0002:00005b30       __real@3cb0000000000000    10047b30     rt_matrx.obj
 0002:00005b50       ??_C@_0BI@INNPNFJN@Memory?5Allocation?5Error?$AA@ 10047b50     rtw_modelmap_utils.obj
 0002:00005b70       ??_C@_1HC@OAPLBLFC@?$AAC?$AA?3?$AA?2?$AAP?$AAR?$AAO?$AAG?$AAR?$AAA?$AA?$HO?$AA1?$AA?2?$AAM?$AAA?$AAT?$AAL?$AAA?$AAB?$AA?2?$AAR?$AA2?$AA0?$AA1?$AA6?$AAa?$AA?2?$AAr?$AAt?$AAw?$AA?2?$AAc?$AA?2@ 10047b70     rtw_modelmap_utils.obj
 0002:00005bf8       ??_C@_1CI@OEAJCJND@?$AAj?$AA?5?$AA?$DN?$AA?$DN?$AA?5?$AAe?$AAn?$AAc?$AAo?$AAd?$AAe?$AAd?$AAP?$AAa?$AAt?$AAh?$AAL?$AAe?$AAn?$AA?$AA@ 10047bf8     rtw_modelmap_utils.obj
 0002:00005c28       ??_C@_1DC@NFAOIFKB@?$AAe?$AAn?$AAc?$AAo?$AAd?$AAe?$AAd?$AAP?$AAa?$AAt?$AAh?$AA?$FL?$AAj?$AA?9?$AA1?$AA?$FN?$AA?5?$AA?$DN?$AA?$DN?$AA?5?$AA?8?$AA?2?$AA0?$AA?8?$AA?$AA@ 10047c28     rtw_modelmap_utils.obj
 0002:00005c64       ??_C@_1DI@FLNJGPEE@?$AAs?$AAi?$AAg?$AAC?$AAo?$AAm?$AAp?$AAl?$AAe?$AAx?$AAi?$AAt?$AAy?$AA?$FL?$AA?$CK?$AAs?$AAi?$AAg?$AAI?$AAd?$AAx?$AA?$FN?$AA?5?$AA?$CB?$AA?$DN?$AA?5?$AA1?$AA?$AA@ 10047c64     rtw_modelmap_utils.obj
 0002:00005ca8       ??_C@_1KI@OFELMGBG@?$AA?$CI?$AA?$CI?$AA?$CI?$AAd?$AAa?$AAt?$AAa?$AAT?$AAy?$AAp?$AAe?$AAM?$AAa?$AAp?$AA?$CJ?$AA?$FL?$AA?$CI?$AA?$CI?$AA?$CI?$AAs?$AAt?$AAa?$AAt?$AAe?$AAs?$AA?$CJ?$AA?$FL?$AA?$CI?$AAi?$AA?$CJ?$AA?$FN?$AA?4@ 10047ca8     rtw_modelmap_utils.obj
 0002:00005d74       ??_C@_1DA@ILCMPHNE@?$AAf?$AAu?$AAl?$AAl?$AAP?$AAa?$AAt?$AAh?$AA?5?$AA?$CB?$AA?$DN?$AA?5?$AA?$CI?$AA?$CI?$AAv?$AAo?$AAi?$AAd?$AA?5?$AA?$CK?$AA?$CJ?$AA0?$AA?$CJ?$AA?$AA@ 10047d74     rtw_modelmap_utils.obj
 0002:00005db0       ??_C@_1CI@OEPPFCCA@?$AAp?$AAa?$AAt?$AAh?$AA?5?$AA?$CB?$AA?$DN?$AA?5?$AA?$CI?$AA?$CI?$AAv?$AAo?$AAi?$AAd?$AA?5?$AA?$CK?$AA?$CJ?$AA0?$AA?$CJ?$AA?$AA@ 10047db0     rtw_modelmap_utils.obj
 0002:00005de0       ??_C@_1FK@GLJIMFHB@?$AA?$CI?$AA?$CI?$AAm?$AAm?$AAi?$AA?$CJ?$AA?9?$AA?$DO?$AAI?$AAn?$AAs?$AAt?$AAa?$AAn?$AAc?$AAe?$AAM?$AAa?$AAp?$AA?4?$AAf?$AAu?$AAl?$AAl?$AAP?$AAa?$AAt?$AAh?$AA?$CJ?$AA?5?$AA?$DN?$AA?$DN@ 10047de0     rtw_modelmap_utils.obj
 0002:00005e4c       ??_C@_1DG@HPCJGNCE@?$AAm?$AAm?$AAi?$AAP?$AAa?$AAt?$AAh?$AA?$FL?$AAp?$AAa?$AAt?$AAh?$AAL?$AAe?$AAn?$AA?9?$AA1?$AA?$FN?$AA?5?$AA?$DN?$AA?$DN?$AA?5?$AA?8?$AA?2?$AA0?$AA?8?$AA?$AA@ 10047e4c     rtw_modelmap_utils.obj
 0002:00005e8c       ??_C@_1DM@DBAOGGOO@?$AAm?$AAm?$AAi?$AAP?$AAa?$AAt?$AAh?$AA?$FL?$AAm?$AAm?$AAi?$AAP?$AAa?$AAt?$AAh?$AAL?$AAe?$AAn?$AA?9?$AA1?$AA?$FN?$AA?5?$AA?$DN?$AA?$DN?$AA?5?$AA?8?$AA?2?$AA0?$AA?8?$AA?$AA@ 10047e8c     rtw_modelmap_utils.obj
 0002:00005ed4       ??_C@_1DC@LHIAKAFE@?$AAb?$AAl?$AAo?$AAc?$AAk?$AAP?$AAa?$AAt?$AAh?$AA?5?$AA?$CB?$AA?$DN?$AA?5?$AA?$CI?$AA?$CI?$AAv?$AAo?$AAi?$AAd?$AA?5?$AA?$CK?$AA?$CJ?$AA0?$AA?$CJ?$AA?$AA@ 10047ed4     rtw_modelmap_utils.obj
 0002:00005f10       ??_C@_1GI@KIEJKPGC@?$AAf?$AAu?$AAl?$AAl?$AAS?$AAt?$AAa?$AAt?$AAe?$AAB?$AAl?$AAo?$AAc?$AAk?$AAP?$AAa?$AAt?$AAh?$AA?$FL?$AAf?$AAu?$AAl?$AAl?$AAS?$AAt?$AAa?$AAt?$AAe?$AAB?$AAl?$AAo?$AAc@ 10047f10     rtw_modelmap_utils.obj
 0002:00005f90       ??_C@_1EE@DNPIBJHC@?$AA?$CI?$AA?$CI?$AAd?$AAi?$AAm?$AAM?$AAa?$AAp?$AA?$CJ?$AA?$FL?$AA?$CI?$AAm?$AAa?$AAp?$AAI?$AAd?$AAx?$AA?$CJ?$AA?$FN?$AA?4?$AAn?$AAu?$AAm?$AAD?$AAi?$AAm?$AAs?$AA?$CJ?$AA?5?$AA?$DN?$AA?$DN?$AA?5@ 10047f90     rtw_modelmap_utils.obj
 0002:00005fe4       ??_C@_06JFOKFOED@CSTATE?$AA@ 10047fe4     rtw_modelmap_utils.obj
 0002:00005fec       ??_C@_06FAENGAMN@DSTATE?$AA@ 10047fec     rtw_modelmap_utils.obj
 0002:00005ff4       ??_C@_1BI@LEBJNOGG@?$AAc?$AAs?$AAv?$AAI?$AAd?$AAx?$AA?5?$AA?$DO?$AA?$DN?$AA?5?$AA0?$AA?$AA@ 10047ff4     rtw_modelmap_utils.obj
 0002:00006010       ??_C@_1BA@KDMGHCHP@?$AAT?$AAI?$AAD?$AA?$DN?$AA?$DN?$AA?9?$AA1?$AA?$AA@ 10048010     rtw_modelmap_utils.obj
 0002:00006024       ??_C@_1DM@DHGKBPCE@?$AAs?$AAi?$AAg?$AAP?$AAa?$AAt?$AAh?$AA?$FL?$AAs?$AAi?$AAg?$AAP?$AAa?$AAt?$AAh?$AAL?$AAe?$AAn?$AA?9?$AA1?$AA?$FN?$AA?5?$AA?$DN?$AA?$DN?$AA?5?$AA?8?$AA?2?$AA0?$AA?8?$AA?$AA@ 10048024     rtw_modelmap_utils.obj
 0002:0000606c       _serialfifoground          1004806c     xpc_datatype_ground.obj
 0002:00006078       _bcmsg1553ground           10048078     xpc_datatype_ground.obj
 0002:00006088       _bcstatground              10048088     xpc_datatype_ground.obj
 0002:000060a0       _bmmsg1553ground           100480a0     xpc_datatype_ground.obj
 0002:000060c0       _ptsetfilename             100480c0     xpctarget.obj
 0002:000060c4       _xmlfile                   100480c4     xpctarget.obj
 0002:000060cc       ??_C@_0BH@DNMKOCPI@FingerStrokeAssistance?$AA@ 100480cc     xpctarget.obj
 0002:000060e8       ??_C@_0L@CHBJKKFC@xpceSetVar?$AA@ 100480e8     xpctarget.obj
 0002:000060f8       ??_C@_03ICACBPID@6?44?$AA@ 100480f8     xpctarget.obj
 0002:00006100       __real@408f400000000000    10048100     xpctarget.obj
 0002:00006110       _FingerStrokeAssistance_BIOMAP 10048110     appmappingData.obj
 0002:00006728       _FingerStrokeAssistance_LBLMAP 10048728     appmappingData.obj
 0002:00006d40       _FingerStrokeAssistance_SIDMAP 10048d40     appmappingData.obj
 0002:00007358       _FingerStrokeAssistance_SBIO 10049358     appmappingData.obj
 0002:00007560       _FingerStrokeAssistance_SLBL 10049560     appmappingData.obj
 0002:00007768       _FingerStrokeAssistance_PTIDSMAP 10049768     appmappingData.obj
 0002:00007b88       _FingerStrokeAssistance_PTNAMESMAP 10049b88     appmappingData.obj
 0002:00007fa8       _FingerStrokeAssistance_SPTMAP 10049fa8     appmappingData.obj
 0002:000081b8       _FingerStrokeAssistance_dtmap 1004a1b8     appmappingData.obj
 0002:000081e0       _appInfo                   1004a1e0     appmappingData.obj
 0002:000088cc       ??_C@_0CC@FIFFDAB@?$CFd?5input?5args?5expected?0?5?$CFd?5passe@ 1004a8cc     encnipcim.obj
 0002:000088f4       ??_C@_0BN@JIEFLHEB@?$CFs?3?5Too?5many?5M?5series?5boards?$AA@ 1004a8f4     encnipcim.obj
 0002:00008918       ??_C@_0ED@LKHIFFLC@Wrong?5number?5of?5input?5arguments?5@ 1004a918     danipcim.obj
 0002:00008968       ??_C@_0DB@HFHLNKLE@Channel?5?$CFd?5exceeds?5the?5max?5DA?5ch@ 1004a968     danipcim.obj
 0002:000089a4       ??_C@_0CL@GCJHHCMG@Output?5range?5?$CFd?5is?5not?5supported@ 1004a9a4     danipcim.obj
 0002:000089d8       ??_C@_0CI@FOFDKLAN@NI?5?$CFs?3?5Can?8t?5allocate?5temporary?5@ 1004a9d8     adnipcim.obj
 0002:00008a08       ??_C@_0CK@PIIIKEIH@NI?5M?5series?3?5Channel?5?$CFf?5out?5of?5r@ 1004aa08     adnipcim.obj
 0002:00008a3c       ??_C@_0CF@LKNEFAOG@NI?5M?5series?3?5Timeout?5waiting?5for@ 1004aa3c     adnipcim.obj
 0002:00008a68       __real@417312d000000000    1004aa68     adnipcim.obj
 0002:00008a74       ??_C@_0M@IMCLKBPP@NI?5PCI?96220?$AA@ 1004aa74     xpcionim.obj
 0002:00008a84       ??_C@_0M@JFDAJALO@NI?5PCI?96221?$AA@ 1004aa84     xpcionim.obj
 0002:00008a94       ??_C@_0P@NGCDCNKM@NI?5PCI?96221?137?$AA@ 1004aa94     xpcionim.obj
 0002:00008aa8       ??_C@_0M@OIEHGEPL@NI?5PCI?96224?$AA@ 1004aaa8     xpcionim.obj
 0002:00008ab8       ??_C@_0M@PBFMFFLK@NI?5PCI?96225?$AA@ 1004aab8     xpcionim.obj
 0002:00008ac8       ??_C@_0M@FNOJBKLG@NI?5PCI?96229?$AA@ 1004aac8     xpcionim.obj
 0002:00008ad8       ??_C@_0M@INOJMLMI@NI?5PCI?96230?$AA@ 1004aad8     xpcionim.obj
 0002:00008ae8       ??_C@_0M@LPNPKJEK@NI?5PCI?96232?$AA@ 1004aae8     xpcionim.obj
 0002:00008af8       ??_C@_0M@KGMEJIAL@NI?5PCI?96233?$AA@ 1004aaf8     xpcionim.obj
 0002:00008b08       ??_C@_0M@NLLDGMEO@NI?5PCI?96236?$AA@ 1004ab08     xpcionim.obj
 0002:00008b18       ??_C@_0M@EFDAEBMA@NI?5PCI?96238?$AA@ 1004ab18     xpcionim.obj
 0002:00008b28       ??_C@_0M@FMCLHAIB@NI?5PCI?96239?$AA@ 1004ab28     xpcionim.obj
 0002:00008b38       ??_C@_0M@IJGELHHK@NI?5PCI?96250?$AA@ 1004ab38     xpcionim.obj
 0002:00008b48       ??_C@_0M@JAHPIGDL@NI?5PCI?96251?$AA@ 1004ab48     xpcionim.obj
 0002:00008b58       ??_C@_0M@ONAIHCHO@NI?5PCI?96254?$AA@ 1004ab58     xpcionim.obj
 0002:00008b68       ??_C@_0M@PEBDEDDP@NI?5PCI?96255?$AA@ 1004ab68     xpcionim.obj
 0002:00008b78       ??_C@_0M@FIKGAMDD@NI?5PCI?96259?$AA@ 1004ab78     xpcionim.obj
 0002:00008b88       ??_C@_0M@IBLMCECJ@NI?5PCI?96280?$AA@ 1004ab88     xpcionim.obj
 0002:00008b98       ??_C@_0M@JIKHBFGI@NI?5PCI?96281?$AA@ 1004ab98     xpcionim.obj
 0002:00008ba8       ??_C@_0M@OFNAOBCN@NI?5PCI?96284?$AA@ 1004aba8     xpcionim.obj
 0002:00008bb8       ??_C@_0M@FAHOJPGA@NI?5PCI?96289?$AA@ 1004abb8     xpcionim.obj
 0002:00008bc8       ??_C@_0CI@NFFNBHJA@?$CFs?5?$CIbus?5?$CFd?0?5slot?5?$CFd?$CJ?3?5board?5not?5@ 1004abc8     xpcionim.obj
 0002:00008bf8       ??_C@_0CD@MBDNCLAI@NI?5M?5series?3?5Unknown?5board?5type?5@ 1004abf8     xpcionim.obj
 0002:00008c24       ??_C@_0CC@DMFKNLL@VendorId?5?$DN?50x?$CFx?0?5DeviceId?5?$DN?50x?$CFx@ 1004ac24     xpcruntime:xpcimports.obj
 0002:00008c48       ??_C@_0DH@OHCBLNMG@Subsystem?5Device?5ID?5?$DN?50x?$CFx?6Subsy@ 1004ac48     xpcruntime:xpcimports.obj
 0002:00008c80       ??_C@_0BD@MMMMEFCM@Class?5Code?5?$DN?50x?$CFx?6?$AA@ 1004ac80     xpcruntime:xpcimports.obj
 0002:00008c94       ??_C@_0BE@OLDDDNHM@InterruptLine?5?$DN?5?$CFd?6?$AA@ 1004ac94     xpcruntime:xpcimports.obj
 0002:00008ca8       ??_C@_0BF@OLKLEKBD@bus?5?$DN?5?$CFd?0?5slot?5?$DN?5?$CFd?6?$AA@ 1004aca8     xpcruntime:xpcimports.obj
 0002:00008cc0       ??_C@_0CE@DGLLGDFH@?5?5?5?5Phys?5?5?5Virtual?5?5?5Length?5IO?1M@ 1004acc0     xpcruntime:xpcimports.obj
 0002:00008ce4       ??_C@_0BI@FEOPLEMG@?$CF08x?5?$CF08x?5?$CF08x?5?5?5?5?5?5?$CFc?6?$AA@ 1004ace4     xpcruntime:xpcimports.obj
 0002:00008cfc       ??_C@_0BB@BNNCEDPC@rl32eScopeExists?$AA@ 1004acfc     xpcruntime:xpcimports.obj
 0002:00008d10       ??_C@_0BM@FJBFEGFG@rl32eScopeExists?5not?5found?6?$AA@ 1004ad10     xpcruntime:xpcimports.obj
 0002:00008d2c       ??_C@_0O@BNNGKJEA@rl32eDefScope?$AA@ 1004ad2c     xpcruntime:xpcimports.obj
 0002:00008d3c       ??_C@_0BJ@CDNOENKA@rl32eDefScope?5not?5found?6?$AA@ 1004ad3c     xpcruntime:xpcimports.obj
 0002:00008d58       ??_C@_0P@CKNKILDP@rl32eAddSignal?$AA@ 1004ad58     xpcruntime:xpcimports.obj
 0002:00008d68       ??_C@_0BK@GMJAJBAI@rl32eAddSignal?5not?5found?6?$AA@ 1004ad68     xpcruntime:xpcimports.obj
 0002:00008d84       ??_C@_0BB@LDMIHGCE@rl32eGetSignalNo?$AA@ 1004ad84     xpcruntime:xpcimports.obj
 0002:00008d98       ??_C@_0BM@LGAMBAID@rl32eGetSignalNo?5not?5found?6?$AA@ 1004ad98     xpcruntime:xpcimports.obj
 0002:00008db4       ??_C@_0O@CFDGALBP@rl32eSetScope?$AA@ 1004adb4     xpcruntime:xpcimports.obj
 0002:00008dc4       ??_C@_0BJ@JCLHHIN@rl32eSetScope?5not?5found?6?$AA@ 1004adc4     xpcruntime:xpcimports.obj
 0002:00008de0       ??_C@_0P@IKMCBMHH@xpceFSScopeSet?$AA@ 1004ade0     xpcruntime:xpcimports.obj
 0002:00008df0       ??_C@_0BK@JODJPNNH@xpceFSScopeSet?5not?5found?6?$AA@ 1004adf0     xpcruntime:xpcimports.obj
 0002:00008e0c       ??_C@_0BE@DLACEEJM@rl32eSetTargetScope?$AA@ 1004ae0c     xpcruntime:xpcimports.obj
 0002:00008e20       ??_C@_0BP@JCHFMKPJ@rl32eSetTargetScope?5not?5found?6?$AA@ 1004ae20     xpcruntime:xpcimports.obj
 0002:00008e40       ??_C@_0BJ@LIDLNDHC@rl32eSetTargetScopeSigFt?$AA@ 1004ae40     xpcruntime:xpcimports.obj
 0002:00008e5c       ??_C@_0CE@JLGHCFHI@rl32eSetTargetScopeSigFt?5not?5fou@ 1004ae5c     xpcruntime:xpcimports.obj
 0002:00008e80       ??_C@_0BI@JAPOIDNG@rl32eRestartAcquisition?$AA@ 1004ae80     xpcruntime:xpcimports.obj
 0002:00008e98       ??_C@_0CD@LLBEFFBO@rl32eRestartAcquisition?5not?5foun@ 1004ae98     xpcruntime:xpcimports.obj
 0002:00008ebc       ??_C@_0P@IEIIADJB@xpceScopeAcqOK?$AA@ 1004aebc     xpcruntime:xpcimports.obj
 0002:00008ecc       ??_C@_0BK@NJCKNFPN@xpceScopeAcqOK?5not?5found?6?$AA@ 1004aecc     xpcruntime:xpcimports.obj
 0002:00008ee8       ??_C@_0BA@IJINKAHF@xpceRegisterISR?$AA@ 1004aee8     xpcruntime:xpcimports.obj
 0002:00008ef8       ??_C@_0BL@NNDLOEJE@xpceRegisterISR?5not?5found?6?$AA@ 1004aef8     xpcruntime:xpcimports.obj
 0002:00008f14       ??_C@_0BC@NLBADGKF@xpceDeRegisterISR?$AA@ 1004af14     xpcruntime:xpcimports.obj
 0002:00008f28       ??_C@_0BN@DCAIKFFD@xpceDeRegisterISR?5not?5found?6?$AA@ 1004af28     xpcruntime:xpcimports.obj
 0002:00008f48       ??_C@_0P@CPGPNKEB@xpceFTReadTime?$AA@ 1004af48     xpcruntime:xpcimports.obj
 0002:00008f58       ??_C@_0BK@NMABIODN@xpceFTReadTime?5not?5found?6?$AA@ 1004af58     xpcruntime:xpcimports.obj
 0002:00008f74       ??_C@_09PHNHCHFH@xpceFTAdd?$AA@ 1004af74     xpcruntime:xpcimports.obj
 0002:00008f80       ??_C@_0BF@FJLEIILA@xpceFTAdd?5not?5found?6?$AA@ 1004af80     xpcruntime:xpcimports.obj
 0002:00008f98       ??_C@_0P@KEODBLHO@xpceFTSubtract?$AA@ 1004af98     xpcruntime:xpcimports.obj
 0002:00008fa8       ??_C@_0BK@HONODOKP@xpceFTSubtract?5not?5found?6?$AA@ 1004afa8     xpcruntime:xpcimports.obj
 0002:00008fc4       ??_C@_07JPMEPILD@xpcInpB?$AA@ 1004afc4     xpcruntime:xpcimports.obj
 0002:00008fcc       ??_C@_0BD@PGABEJOL@xpcInpB?5not?5found?6?$AA@ 1004afcc     xpcruntime:xpcimports.obj
 0002:00008fe0       ??_C@_07KIHBBOKH@xpcInpW?$AA@ 1004afe0     xpcruntime:xpcimports.obj
 0002:00008fe8       ??_C@_0BD@FPCJFMCC@xpcInpW?5not?5found?6?$AA@ 1004afe8     xpcruntime:xpcimports.obj
 0002:00008ffc       ??_C@_08KDIAJBOP@xpcInpDW?$AA@ 1004affc     xpcruntime:xpcimports.obj
 0002:00009008       ??_C@_0BE@PIELDNIL@xpcInpDW?5not?5found?6?$AA@ 1004b008     xpcruntime:xpcimports.obj
 0002:0000901c       ??_C@_08PJFMOIGO@xpcOutpB?$AA@ 1004b01c     xpcruntime:xpcimports.obj
 0002:00009028       ??_C@_0BE@HCKNCEKF@xpcOutpB?5not?5found?6?$AA@ 1004b028     xpcruntime:xpcimports.obj
 0002:0000903c       ??_C@_08MOOJAOHK@xpcOutpW?$AA@ 1004b03c     xpcruntime:xpcimports.obj
 0002:00009048       ??_C@_0BE@NLIFDBGM@xpcOutpW?5not?5found?6?$AA@ 1004b048     xpcruntime:xpcimports.obj
 0002:0000905c       ??_C@_09FLIEKHJG@xpcOutpDW?$AA@ 1004b05c     xpcruntime:xpcimports.obj
 0002:00009068       ??_C@_0BF@GJKLPNHB@xpcOutpDW?5not?5found?6?$AA@ 1004b068     xpcruntime:xpcimports.obj
 0002:00009080       ??_C@_0BH@EHOLELHH@xpcReserveMemoryRegion?$AA@ 1004b080     xpcruntime:xpcimports.obj
 0002:00009098       ??_C@_0CC@KAAAGPI@xpcReserveMemoryRegion?5not?5found@ 1004b098     xpcruntime:xpcimports.obj
 0002:000090bc       ??_C@_0BA@JGPMHGAF@rl32eShowPCIDev?$AA@ 1004b0bc     xpcruntime:xpcimports.obj
 0002:000090cc       ??_C@_0BL@DDFFLNHI@rl32eShowPCIDev?5not?5found?6?$AA@ 1004b0cc     xpcruntime:xpcimports.obj
 0002:000090e8       ??_C@_0BB@KBCOJPFB@rl32eShowPCIInfo?$AA@ 1004b0e8     xpcruntime:xpcimports.obj
 0002:000090fc       ??_C@_0BM@IFDMAGLO@rl32eShowPCIInfo?5not?5found?6?$AA@ 1004b0fc     xpcruntime:xpcimports.obj
 0002:00009118       ??_C@_0BA@BGPAADB@rl32eGetPCIInfo?$AA@ 1004b118     xpcruntime:xpcimports.obj
 0002:00009128       ??_C@_0BL@IGOMLDCK@rl32eGetPCIInfo?5not?5found?6?$AA@ 1004b128     xpcruntime:xpcimports.obj
 0002:00009144       ??_C@_0BG@NJPFKFDP@rl32eGetPCIInfoAtSlot?$AA@ 1004b144     xpcruntime:xpcimports.obj
 0002:0000915c       ??_C@_0CB@BBKIPMLA@rl32eGetPCIInfoAtSlot?5not?5found?6@ 1004b15c     xpcruntime:xpcimports.obj
 0002:00009180       ??_C@_0BH@OKBOPNFG@xpceAssignPCIInterrupt?$AA@ 1004b180     xpcruntime:xpcimports.obj
 0002:00009198       ??_C@_0CC@CDNDNJBJ@xpceAssignPCIInterrupt?5not?5found@ 1004b198     xpcruntime:xpcimports.obj
 0002:000091bc       ??_C@_0BB@FCHHFAAH@rl32eInitCOMPort?$AA@ 1004b1bc     xpcruntime:xpcimports.obj
 0002:000091d0       ??_C@_0BM@DDJGKAHB@rl32eInitCOMPort?5not?5found?6?$AA@ 1004b1d0     xpcruntime:xpcimports.obj
 0002:000091ec       ??_C@_0BC@CHEEFCP@rl32eCloseCOMPort?$AA@ 1004b1ec     xpcruntime:xpcimports.obj
 0002:00009200       ??_C@_0BN@KCOFELEM@rl32eCloseCOMPort?5not?5found?6?$AA@ 1004b200     xpcruntime:xpcimports.obj
 0002:00009220       ??_C@_0O@LLJGKFOG@rl32eSendChar?$AA@ 1004b220     xpcruntime:xpcimports.obj
 0002:00009230       ??_C@_0BJ@JCJKDACJ@rl32eSendChar?5not?5found?6?$AA@ 1004b230     xpcruntime:xpcimports.obj
 0002:0000924c       ??_C@_0BB@OMFKCOEK@rl32eReceiveChar?$AA@ 1004b24c     xpcruntime:xpcimports.obj
 0002:00009260       ??_C@_0BM@HGAIOAND@rl32eReceiveChar?5not?5found?6?$AA@ 1004b260     xpcruntime:xpcimports.obj
 0002:0000927c       ??_C@_0BI@PKEJFHMJ@rl32eReceiveBufferCount?$AA@ 1004b27c     xpcruntime:xpcimports.obj
 0002:00009294       ??_C@_0CD@LNMOFLAH@rl32eReceiveBufferCount?5not?5foun@ 1004b294     xpcruntime:xpcimports.obj
 0002:000092b8       ??_C@_0BA@CFIJOJPK@rl32eLineStatus?$AA@ 1004b2b8     xpcruntime:xpcimports.obj
 0002:000092c8       ??_C@_0BL@PLIDKKGI@rl32eLineStatus?5not?5found?6?$AA@ 1004b2c8     xpcruntime:xpcimports.obj
 0002:000092e4       ??_C@_0P@MDMKIJF@rl32eSendBlock?$AA@ 1004b2e4     xpcruntime:xpcimports.obj
 0002:000092f4       ??_C@_0BK@KNBNFIKH@rl32eSendBlock?5not?5found?6?$AA@ 1004b2f4     xpcruntime:xpcimports.obj
 0002:00009310       ??_C@_0BD@PCKOKHO@xpceGetSignalValue?$AA@ 1004b310     xpcruntime:xpcimports.obj
 0002:00009324       ??_C@_0BO@GCBDJHMB@xpceGetSignalValue?5not?5found?6?$AA@ 1004b324     xpcruntime:xpcimports.obj
 0002:00009344       ??_C@_0BB@BJONJAGA@xpceSetParameter?$AA@ 1004b344     xpcruntime:xpcimports.obj
 0002:00009358       ??_C@_0BM@BJIKDLHA@xpceSetParameter?5not?5found?6?$AA@ 1004b358     xpcruntime:xpcimports.obj
 0002:00009374       ??_C@_0BB@GNFDFMCM@xpceGetParameter?$AA@ 1004b374     xpcruntime:xpcimports.obj
 0002:00009388       ??_C@_0BM@POHNKBC@xpceGetParameter?5not?5found?6?$AA@ 1004b388     xpcruntime:xpcimports.obj
 0002:000093a4       ??_C@_0BB@CEIJLFCD@xpceGetParamDims?$AA@ 1004b3a4     xpcruntime:xpcimports.obj
 0002:000093b8       ??_C@_0BM@OABDBKAO@xpceGetParamDims?5not?5found?6?$AA@ 1004b3b8     xpcruntime:xpcimports.obj
 0002:000093d4       ??_C@_0L@OCBLLHBM@xpceGetTET?$AA@ 1004b3d4     xpcruntime:xpcimports.obj
 0002:000093e0       ??_C@_0BG@HNOFBOB@xpceGetTET?5not?5found?6?$AA@ 1004b3e0     xpcruntime:xpcimports.obj
 0002:000093f8       ??_C@_0BA@FHMIOKFL@xpceUDPOpenSend?$AA@ 1004b3f8     xpcruntime:xpcimports.obj
 0002:00009408       ??_C@_0BL@HNLPFEK@xpceUDPOpenSend?5not?5found?6?$AA@ 1004b408     xpcruntime:xpcimports.obj
 0002:00009424       ??_C@_0BD@BCELJJJL@xpceUDPOpenReceive?$AA@ 1004b424     xpcruntime:xpcimports.obj
 0002:00009438       ??_C@_0BO@IFKJBHKC@xpceUDPOpenReceive?5not?5found?6?$AA@ 1004b438     xpcruntime:xpcimports.obj
 0002:00009458       ??_C@_0M@OFPFLJGN@xpceUDPSend?$AA@ 1004b458     xpcruntime:xpcimports.obj
 0002:00009464       ??_C@_0BH@NOIKLPAB@xpceUDPSend?5not?5found?6?$AA@ 1004b464     xpcruntime:xpcimports.obj
 0002:0000947c       ??_C@_0P@PLFDECIN@xpceUDPReceive?$AA@ 1004b47c     xpcruntime:xpcimports.obj
 0002:0000948c       ??_C@_0BK@OPJMLDLH@xpceUDPReceive?5not?5found?6?$AA@ 1004b48c     xpcruntime:xpcimports.obj
 0002:000094a8       ??_C@_0N@IEHPMFME@xpceUDPClose?$AA@ 1004b4a8     xpcruntime:xpcimports.obj
 0002:000094b8       ??_C@_0BI@FHPFHECO@xpceUDPClose?5not?5found?6?$AA@ 1004b4b8     xpcruntime:xpcimports.obj
 0002:000094d0       ??_C@_0P@OKGNGAGH@xpcIsModelInit?$AA@ 1004b4d0     xpcruntime:xpcimports.obj
 0002:000094e0       ??_C@_0BK@DHEMLBIM@xpcIsModelInit?5not?5found?6?$AA@ 1004b4e0     xpcruntime:xpcimports.obj
 0002:000094fc       ??_C@_0BH@KJJLCAOJ@xpcAllocPhysicalMemory?$AA@ 1004b4fc     xpcruntime:xpcimports.obj
 0002:00009514       ??_C@_0CC@MOJPNHKL@xpcAllocPhysicalMemory?5not?5found@ 1004b514     xpcruntime:xpcimports.obj
 0002:00009538       ??_C@_0BG@CBNPGAEL@xpcFreePhysicalMemory?$AA@ 1004b538     xpcruntime:xpcimports.obj
 0002:00009550       ??_C@_0CB@PKJEBPOG@xpcFreePhysicalMemory?5not?5found?6@ 1004b550     xpcruntime:xpcimports.obj
 0002:00009574       ??_C@_0BC@JGKNLICL@xpcGetElapsedTime?$AA@ 1004b574     xpcruntime:xpcimports.obj
 0002:00009588       ??_C@_0BN@OEOAHCIO@xpcGetElapsedTime?5not?5found?6?$AA@ 1004b588     xpcruntime:xpcimports.obj
 0002:000095a8       ??_C@_0M@ICBLMODA@xpcBusyWait?$AA@ 1004b5a8     xpcruntime:xpcimports.obj
 0002:000095b4       ??_C@_0BH@FBOPECBI@xpcBusyWait?5not?5found?6?$AA@ 1004b5b4     xpcruntime:xpcimports.obj
 0002:000095cc       ??_C@_0N@LKKJEKKA@TBCreateSpin?$AA@ 1004b5cc     xpcruntime:xpcimports.obj
 0002:000095dc       ??_C@_0BI@FHKMLKOE@TBCreateSpin?5not?5found?6?$AA@ 1004b5dc     xpcruntime:xpcimports.obj
 0002:000095f4       ??_C@_0N@HOAJHNBD@TBDeleteSpin?$AA@ 1004b5f4     xpcruntime:xpcimports.obj
 0002:00009604       ??_C@_0BI@BKCPAAG@TBDeleteSpin?5not?5found?6?$AA@ 1004b604     xpcruntime:xpcimports.obj
 0002:0000961c       ??_C@_0P@DAHDDBJG@TBTakeSpinFast?$AA@ 1004b61c     xpcruntime:xpcimports.obj
 0002:0000962c       ??_C@_0BK@NKAIBHGB@TBTakeSpinFast?5not?5found?6?$AA@ 1004b62c     xpcruntime:xpcimports.obj
 0002:00009648       ??_C@_0P@FKNAAELA@TBGiveSpinFast?$AA@ 1004b648     xpcruntime:xpcimports.obj
 0002:00009658       ??_C@_0BK@KGPJBJND@TBGiveSpinFast?5not?5found?6?$AA@ 1004b658     xpcruntime:xpcimports.obj
 0002:00009674       ??_C@_0BE@IIGBFDHK@xpceCreateSemaphore?$AA@ 1004b674     xpcruntime:xpcimports.obj
 0002:00009688       ??_C@_0BP@KFBAFFKJ@xpceCreateSemaphore?5not?5found?6?$AA@ 1004b688     xpcruntime:xpcimports.obj
 0002:000096a8       ??_C@_0BC@IFNIONKJ@xpceWaitSemaphore?$AA@ 1004b6a8     xpcruntime:xpcimports.obj
 0002:000096bc       ??_C@_0BN@NMFAADIO@xpceWaitSemaphore?5not?5found?6?$AA@ 1004b6bc     xpcruntime:xpcimports.obj
 0002:000096dc       ??_C@_0BE@NNDIOBKE@xpceSignalSemaphore?$AA@ 1004b6dc     xpcruntime:xpcimports.obj
 0002:000096f0       ??_C@_0BP@LBANMHJP@xpceSignalSemaphore?5not?5found?6?$AA@ 1004b6f0     xpcruntime:xpcimports.obj
 0002:00009710       ??_C@_0BE@MEBEKOIM@xpceDeleteSemaphore?$AA@ 1004b710     xpcruntime:xpcimports.obj
 0002:00009724       ??_C@_0BP@OFNCKOJH@xpceDeleteSemaphore?5not?5found?6?$AA@ 1004b724     xpcruntime:xpcimports.obj
 0002:00009744       ??_C@_0BD@MFNDMBOF@FindUsbVideoDevice?$AA@ 1004b744     xpcruntime:xpcimports.obj
 0002:00009758       ??_C@_0BO@POKLDHMI@FindUsbVideoDevice?5not?5found?6?$AA@ 1004b758     xpcruntime:xpcimports.obj
 0002:00009778       ??_C@_0BA@PLPAPNAB@GetVideoConfigs?$AA@ 1004b778     xpcruntime:xpcimports.obj
 0002:00009788       ??_C@_0BL@DALDHKHC@GetVideoConfigs?5not?5found?6?$AA@ 1004b788     xpcruntime:xpcimports.obj
 0002:000097a4       ??_C@_0L@GBAEMHMH@StartVideo?$AA@ 1004b7a4     xpcruntime:xpcimports.obj
 0002:000097b0       ??_C@_0BG@HDCELEBP@StartVideo?5not?5found?6?$AA@ 1004b7b0     xpcruntime:xpcimports.obj
 0002:000097c8       ??_C@_0BA@FDNPOCLN@ReadFrameBuffer?$AA@ 1004b7c8     xpcruntime:xpcimports.obj
 0002:000097d8       ??_C@_0BL@JHGHPNBI@ReadFrameBuffer?5not?5found?6?$AA@ 1004b7d8     xpcruntime:xpcimports.obj
 0002:000097f4       ??_C@_09FAHCLKAG@StopVideo?$AA@ 1004b7f4     xpcruntime:xpcimports.obj
 0002:00009800       ??_C@_0BF@NKGKKADL@StopVideo?5not?5found?6?$AA@ 1004b800     xpcruntime:xpcimports.obj
 0002:00009818       ??_C@_0O@MCPKDLLL@ConvertUImage?$AA@ 1004b818     xpcruntime:xpcimports.obj
 0002:00009828       ??_C@_0BJ@PHJKOAFL@ConvertUImage?5not?5found?6?$AA@ 1004b828     xpcruntime:xpcimports.obj
 0002:00009844       ??_C@_0BD@NKCBPBJJ@CreateVideoDisplay?$AA@ 1004b844     xpcruntime:xpcimports.obj
 0002:00009858       ??_C@_0BO@HPPLLNFP@CreateVideoDisplay?5not?5found?6?$AA@ 1004b858     xpcruntime:xpcimports.obj
 0002:00009878       ??_C@_0BE@KJCKGPHA@DestroyVideoDisplay?$AA@ 1004b878     xpcruntime:xpcimports.obj
 0002:0000988c       ??_C@_0BP@FMGLJAIJ@DestroyVideoDisplay?5not?5found?6?$AA@ 1004b88c     xpcruntime:xpcimports.obj
 0002:000098ac       ??_C@_0BC@HCMIMIDN@StartVideoDisplay?$AA@ 1004b8ac     xpcruntime:xpcimports.obj
 0002:000098c0       ??_C@_0BN@EFIEBGOO@StartVideoDisplay?5not?5found?6?$AA@ 1004b8c0     xpcruntime:xpcimports.obj
 0002:000098e0       ??_C@_0BB@JBBLMILG@StopVideoDisplay?$AA@ 1004b8e0     xpcruntime:xpcimports.obj
 0002:000098f4       ??_C@_0BM@DBJBPLEL@StopVideoDisplay?5not?5found?6?$AA@ 1004b8f4     xpcruntime:xpcimports.obj
 0002:00009910       ??_C@_0M@MFJEGMHC@StreamVideo?$AA@ 1004b910     xpcruntime:xpcimports.obj
 0002:0000991c       ??_C@_0BH@OINCDMLA@StreamVideo?5not?5found?6?$AA@ 1004b91c     xpcruntime:xpcimports.obj
 0002:00009934       ??_C@_0N@IGGLCIGE@xpceaddEvent?$AA@ 1004b934     xpcruntime:xpcimports.obj
 0002:00009944       ??_C@_0BI@NHJNFMKH@xpceaddEvent?5not?5found?6?$AA@ 1004b944     xpcruntime:xpcimports.obj
 0002:0000995c       ??_C@_0BB@LCMHHHFN@getMemoryService?$AA@ 1004b95c     xpcruntime:xpcimports.obj
 0002:00009970       ??_C@_0BM@MPLCNIIE@getMemoryService?5not?5found?6?$AA@ 1004b970     xpcruntime:xpcimports.obj
 0002:0000998c       ??_C@_0P@KIKONDKK@getCommService?$AA@ 1004b98c     xpcruntime:xpcimports.obj
 0002:0000999c       ??_C@_0BK@NCECBKNM@getCommService?5not?5found?6?$AA@ 1004b99c     xpcruntime:xpcimports.obj
 0002:000099b8       ??_C@_0P@GDLHFECE@getStatusFlags?$AA@ 1004b9b8     xpcruntime:xpcimports.obj
 0002:000099c8       ??_C@_0BK@NEKDLJHG@getStatusFlags?5not?5found?6?$AA@ 1004b9c8     xpcruntime:xpcimports.obj
 0002:000099e4       ??_C@_0BL@CDFCLKOL@startToAsyncQueueTgtAppSvc?$AA@ 1004b9e4     xpcruntime:xpcimports.obj
 0002:00009a00       ??_C@_0CG@JGOFFKEL@startToAsyncQueueTgtAppSvc?5not?5f@ 1004ba00     xpcruntime:xpcimports.obj
 0002:00009a28       ??_C@_0BP@IJNGPPPE@terminateToAsyncQueueTgtAppSvc?$AA@ 1004ba28     xpcruntime:xpcimports.obj
 0002:00009a48       ??_C@_0CK@NDEMAMKF@terminateToAsyncQueueTgtAppSvc?5n@ 1004ba48     xpcruntime:xpcimports.obj
 0002:00009a74       ??_C@_0BK@IDACEHAO@sendToAsyncQueueTgtAppSvc?$AA@ 1004ba74     xpcruntime:xpcimports.obj
 0002:00009a90       ??_C@_0CF@PNCKPEHN@sendToAsyncQueueTgtAppSvc?5not?5fo@ 1004ba90     xpcruntime:xpcimports.obj
 0002:00009ab8       ??_C@_0BN@HJOHIFOM@xpceGetIntTimerGranularityNS?$AA@ 1004bab8     xpcruntime:xpcimports.obj
 0002:00009ad8       ??_C@_0CI@OADDPMKB@xpceGetIntTimerGranularityNS?5not@ 1004bad8     xpcruntime:xpcimports.obj
 0002:00009b00       ??_C@_0BG@CCHICKPN@slrteSetStepSizeDelta?$AA@ 1004bb00     xpcruntime:xpcimports.obj
 0002:00009b18       ??_C@_0CB@MKHINEIJ@slrteSetStepSizeDelta?5not?5found?6@ 1004bb18     xpcruntime:xpcimports.obj
 0002:00009b3c       ??_C@_0BI@CLNBLDKJ@slrteGetCurrentStepSize?$AA@ 1004bb3c     xpcruntime:xpcimports.obj
 0002:00009b54       ??_C@_0CD@GIOJPGJA@slrteGetCurrentStepSize?5not?5foun@ 1004bb54     xpcruntime:xpcimports.obj
 0002:00009b78       ??_C@_0BE@FCLCBOC@registerPTPTimeRead?$AA@ 1004bb78     xpcruntime:xpcimports.obj
 0002:00009b8c       ??_C@_0BP@LHPKAJIP@registerPTPTimeRead?5not?5found?6?$AA@ 1004bb8c     xpcruntime:xpcimports.obj
 0002:00009bac       ??_C@_0BG@KIGCDDJI@unRegisterPTPTimeRead?$AA@ 1004bbac     xpcruntime:xpcimports.obj
 0002:00009bc4       ??_C@_0CB@MLFFBFCM@unRegisterPTPTimeRead?5not?5found?6@ 1004bbc4     xpcruntime:xpcimports.obj
 0002:00009be8       ??_C@_0BB@IPMDDBHK@slTestInitialize?$AA@ 1004bbe8     xpcruntime:xpcimports.obj
 0002:00009bfc       ??_C@_0BM@LAJFCCJH@slTestInitialize?5not?5found?6?$AA@ 1004bbfc     xpcruntime:xpcimports.obj
 0002:00009c18       ??_C@_0BF@OOMPMEBC@slTestLogAssessments?$AA@ 1004bc18     xpcruntime:xpcimports.obj
 0002:00009c30       ??_C@_0CA@FGJCEBAG@slTestLogAssessments?5not?5found?6?$AA@ 1004bc30     xpcruntime:xpcimports.obj
 0002:00009c50       ??_C@_0BB@HJHKONHO@slTestEvalOnFail?$AA@ 1004bc50     xpcruntime:xpcimports.obj
 0002:00009c64       ??_C@_0BM@JIKCFFNJ@slTestEvalOnFail?5not?5found?6?$AA@ 1004bc64     xpcruntime:xpcimports.obj
 0002:00009c80       ??_C@_0BA@LBHLABFP@slTestTerminate?$AA@ 1004bc80     xpcruntime:xpcimports.obj
 0002:00009c90       ??_C@_0BL@EMFGKAPA@slTestTerminate?5not?5found?6?$AA@ 1004bc90     xpcruntime:xpcimports.obj
 0002:00009cac       ??_C@_0BE@JPNPBBEO@slTestRegAssessment?$AA@ 1004bcac     xpcruntime:xpcimports.obj
 0002:00009cc0       ??_C@_0BP@FBDEJJJH@slTestRegAssessment?5not?5found?6?$AA@ 1004bcc0     xpcruntime:xpcimports.obj
 0002:0000d648       __FPinit                   1004f648     LIBCMT:fpinit.obj
 0002:0000d654       ??_C@_1BI@BGOHAHKC@?$AAm?$AAs?$AAc?$AAo?$AAr?$AAe?$AAe?$AA?4?$AAd?$AAl?$AAl?$AA?$AA@ 1004f654     LIBCMT:crt0dat.obj
 0002:0000d66c       ??_C@_0P@MIGLKIOC@CorExitProcess?$AA@ 1004f66c     LIBCMT:crt0dat.obj
 0002:0000d704       ??_C@_17LGKOMLJ@?$AA?4?$AA?4?$AA?4?$AA?$AA@ 1004f704     LIBCMT:wassert.obj
 0002:0000d70c       ??_C@_13LBAGMAIH@?$AA?6?$AA?$AA@ 1004f70c     LIBCMT:wassert.obj
 0002:0000d710       ??_C@_15IABLJNFO@?$AA?6?$AA?6?$AA?$AA@ 1004f710     LIBCMT:wassert.obj
 0002:0000d718       ??_C@_1CE@OJBNHDMO@?$AAA?$AAs?$AAs?$AAe?$AAr?$AAt?$AAi?$AAo?$AAn?$AA?5?$AAf?$AAa?$AAi?$AAl?$AAe?$AAd?$AA?$CB?$AA?$AA@ 1004f718     LIBCMT:wassert.obj
 0002:0000d73c       ??_C@_1BE@PHKBBGE@?$AAP?$AAr?$AAo?$AAg?$AAr?$AAa?$AAm?$AA?3?$AA?5?$AA?$AA@ 1004f73c     LIBCMT:wassert.obj
 0002:0000d750       ??_C@_1CO@EAEJAADC@?$AA?$DM?$AAp?$AAr?$AAo?$AAg?$AAr?$AAa?$AAm?$AA?5?$AAn?$AAa?$AAm?$AAe?$AA?5?$AAu?$AAn?$AAk?$AAn?$AAo?$AAw?$AAn?$AA?$DO?$AA?$AA@ 1004f750     LIBCMT:wassert.obj
 0002:0000d780       ??_C@_1O@HEMHKNDC@?$AAF?$AAi?$AAl?$AAe?$AA?3?$AA?5?$AA?$AA@ 1004f780     LIBCMT:wassert.obj
 0002:0000d790       ??_C@_1O@KCAFKHJE@?$AAL?$AAi?$AAn?$AAe?$AA?3?$AA?5?$AA?$AA@ 1004f790     LIBCMT:wassert.obj
 0002:0000d7a0       ??_C@_1BK@PEDCIPMA@?$AAE?$AAx?$AAp?$AAr?$AAe?$AAs?$AAs?$AAi?$AAo?$AAn?$AA?3?$AA?5?$AA?$AA@ 1004f7a0     LIBCMT:wassert.obj
 0002:0000d7c0       ??_C@_1OA@EGMLFBHJ@?$AAF?$AAo?$AAr?$AA?5?$AAi?$AAn?$AAf?$AAo?$AAr?$AAm?$AAa?$AAt?$AAi?$AAo?$AAn?$AA?5?$AAo?$AAn?$AA?5?$AAh?$AAo?$AAw?$AA?5?$AAy?$AAo?$AAu?$AAr?$AA?5?$AAp?$AAr?$AAo?$AAg@ 1004f7c0     LIBCMT:wassert.obj
 0002:0000d8a0       ??_C@_1HK@POCJMFGK@?$AA?$CI?$AAP?$AAr?$AAe?$AAs?$AAs?$AA?5?$AAR?$AAe?$AAt?$AAr?$AAy?$AA?5?$AAt?$AAo?$AA?5?$AAd?$AAe?$AAb?$AAu?$AAg?$AA?5?$AAt?$AAh?$AAe?$AA?5?$AAa?$AAp?$AAp?$AAl?$AAi?$AAc@ 1004f8a0     LIBCMT:wassert.obj
 0002:0000d920       ??_C@_1EK@MBDPDCGA@?$AAM?$AAi?$AAc?$AAr?$AAo?$AAs?$AAo?$AAf?$AAt?$AA?5?$AAV?$AAi?$AAs?$AAu?$AAa?$AAl?$AA?5?$AAC?$AA?$CL?$AA?$CL?$AA?5?$AAR?$AAu?$AAn?$AAt?$AAi?$AAm?$AAe?$AA?5?$AAL?$AAi?$AAb@ 1004f920     LIBCMT:wassert.obj
 0002:0000d96c       __pDefaultRawDllMain       1004f96c     LIBCMT:dllcrt0.obj
 0002:0000d96c       __pRawDllMain              1004f96c     LIBCMT:dllcrt0.obj
 0002:0000d970       ?ProcessDetach@NativeDll@<CrtImplementationDetails>@@0IB 1004f970     LIBCMT:handler.obj
 0002:0000d974       ?ProcessAttach@NativeDll@<CrtImplementationDetails>@@0IB 1004f974     LIBCMT:handler.obj
 0002:0000d978       ?ThreadAttach@NativeDll@<CrtImplementationDetails>@@0IB 1004f978     LIBCMT:handler.obj
 0002:0000d97c       ?ThreadDetach@NativeDll@<CrtImplementationDetails>@@0IB 1004f97c     LIBCMT:handler.obj
 0002:0000d980       ?ProcessVerifier@NativeDll@<CrtImplementationDetails>@@0IB 1004f980     LIBCMT:handler.obj
 0002:0000da40       ??_C@_1FK@PGACCAFB@?$AAR?$AA6?$AA0?$AA0?$AA2?$AA?$AN?$AA?6?$AA?9?$AA?5?$AAf?$AAl?$AAo?$AAa?$AAt?$AAi?$AAn?$AAg?$AA?5?$AAp?$AAo?$AAi?$AAn?$AAt?$AA?5?$AAs?$AAu?$AAp?$AAp?$AAo?$AAr?$AAt?$AA?5@ 1004fa40     LIBCMT:crt0msg.obj
 0002:0000daa0       ??_C@_1FE@LLNEDJMD@?$AAR?$AA6?$AA0?$AA0?$AA8?$AA?$AN?$AA?6?$AA?9?$AA?5?$AAn?$AAo?$AAt?$AA?5?$AAe?$AAn?$AAo?$AAu?$AAg?$AAh?$AA?5?$AAs?$AAp?$AAa?$AAc?$AAe?$AA?5?$AAf?$AAo?$AAr?$AA?5?$AAa?$AAr@ 1004faa0     LIBCMT:crt0msg.obj
 0002:0000daf8       ??_C@_1FI@HONFMGBI@?$AAR?$AA6?$AA0?$AA0?$AA9?$AA?$AN?$AA?6?$AA?9?$AA?5?$AAn?$AAo?$AAt?$AA?5?$AAe?$AAn?$AAo?$AAu?$AAg?$AAh?$AA?5?$AAs?$AAp?$AAa?$AAc?$AAe?$AA?5?$AAf?$AAo?$AAr?$AA?5?$AAe?$AAn@ 1004faf8     LIBCMT:crt0msg.obj
 0002:0000db50       ??_C@_1EG@BEHAGFJD@?$AAR?$AA6?$AA0?$AA1?$AA0?$AA?$AN?$AA?6?$AA?9?$AA?5?$AAa?$AAb?$AAo?$AAr?$AAt?$AA?$CI?$AA?$CJ?$AA?5?$AAh?$AAa?$AAs?$AA?5?$AAb?$AAe?$AAe?$AAn?$AA?5?$AAc?$AAa?$AAl?$AAl?$AAe?$AAd@ 1004fb50     LIBCMT:crt0msg.obj
 0002:0000db98       ??_C@_1FI@LOGNIKDM@?$AAR?$AA6?$AA0?$AA1?$AA6?$AA?$AN?$AA?6?$AA?9?$AA?5?$AAn?$AAo?$AAt?$AA?5?$AAe?$AAn?$AAo?$AAu?$AAg?$AAh?$AA?5?$AAs?$AAp?$AAa?$AAc?$AAe?$AA?5?$AAf?$AAo?$AAr?$AA?5?$AAt?$AAh@ 1004fb98     LIBCMT:crt0msg.obj
 0002:0000dbf0       ??_C@_1FK@BEOGODMC@?$AAR?$AA6?$AA0?$AA1?$AA7?$AA?$AN?$AA?6?$AA?9?$AA?5?$AAu?$AAn?$AAe?$AAx?$AAp?$AAe?$AAc?$AAt?$AAe?$AAd?$AA?5?$AAm?$AAu?$AAl?$AAt?$AAi?$AAt?$AAh?$AAr?$AAe?$AAa?$AAd?$AA?5@ 1004fbf0     LIBCMT:crt0msg.obj
 0002:0000dc50       ??_C@_1EC@JIBHAOPH@?$AAR?$AA6?$AA0?$AA1?$AA8?$AA?$AN?$AA?6?$AA?9?$AA?5?$AAu?$AAn?$AAe?$AAx?$AAp?$AAe?$AAc?$AAt?$AAe?$AAd?$AA?5?$AAh?$AAe?$AAa?$AAp?$AA?5?$AAe?$AAr?$AAr?$AAo?$AAr?$AA?$AN?$AA?6@ 1004fc50     LIBCMT:crt0msg.obj
 0002:0000dc98       ??_C@_1FC@ECHBIFBC@?$AAR?$AA6?$AA0?$AA1?$AA9?$AA?$AN?$AA?6?$AA?9?$AA?5?$AAu?$AAn?$AAa?$AAb?$AAl?$AAe?$AA?5?$AAt?$AAo?$AA?5?$AAo?$AAp?$AAe?$AAn?$AA?5?$AAc?$AAo?$AAn?$AAs?$AAo?$AAl?$AAe?$AA?5@ 1004fc98     LIBCMT:crt0msg.obj
 0002:0000dcf0       ??_C@_1GK@FHCKBEFA@?$AAR?$AA6?$AA0?$AA2?$AA4?$AA?$AN?$AA?6?$AA?9?$AA?5?$AAn?$AAo?$AAt?$AA?5?$AAe?$AAn?$AAo?$AAu?$AAg?$AAh?$AA?5?$AAs?$AAp?$AAa?$AAc?$AAe?$AA?5?$AAf?$AAo?$AAr?$AA?5?$AA_?$AAo@ 1004fcf0     LIBCMT:crt0msg.obj
 0002:0000dd60       ??_C@_1EM@MAADIHMB@?$AAR?$AA6?$AA0?$AA2?$AA5?$AA?$AN?$AA?6?$AA?9?$AA?5?$AAp?$AAu?$AAr?$AAe?$AA?5?$AAv?$AAi?$AAr?$AAt?$AAu?$AAa?$AAl?$AA?5?$AAf?$AAu?$AAn?$AAc?$AAt?$AAi?$AAo?$AAn?$AA?5?$AAc@ 1004fd60     LIBCMT:crt0msg.obj
 0002:0000ddb0       ??_C@_1GK@MCAAGJMO@?$AAR?$AA6?$AA0?$AA2?$AA6?$AA?$AN?$AA?6?$AA?9?$AA?5?$AAn?$AAo?$AAt?$AA?5?$AAe?$AAn?$AAo?$AAu?$AAg?$AAh?$AA?5?$AAs?$AAp?$AAa?$AAc?$AAe?$AA?5?$AAf?$AAo?$AAr?$AA?5?$AAs?$AAt@ 1004fdb0     LIBCMT:crt0msg.obj
 0002:0000de20       ??_C@_1GK@MFGOKLAG@?$AAR?$AA6?$AA0?$AA2?$AA7?$AA?$AN?$AA?6?$AA?9?$AA?5?$AAn?$AAo?$AAt?$AA?5?$AAe?$AAn?$AAo?$AAu?$AAg?$AAh?$AA?5?$AAs?$AAp?$AAa?$AAc?$AAe?$AA?5?$AAf?$AAo?$AAr?$AA?5?$AAl?$AAo@ 1004fe20     LIBCMT:crt0msg.obj
 0002:0000de90       ??_C@_1EK@HHFLMAOL@?$AAR?$AA6?$AA0?$AA2?$AA8?$AA?$AN?$AA?6?$AA?9?$AA?5?$AAu?$AAn?$AAa?$AAb?$AAl?$AAe?$AA?5?$AAt?$AAo?$AA?5?$AAi?$AAn?$AAi?$AAt?$AAi?$AAa?$AAl?$AAi?$AAz?$AAe?$AA?5?$AAh?$AAe@ 1004fe90     LIBCMT:crt0msg.obj
 0002:0000dedc       ??_C@_1DO@BMFCDCD@?$AAR?$AA6?$AA0?$AA3?$AA0?$AA?$AN?$AA?6?$AA?9?$AA?5?$AAC?$AAR?$AAT?$AA?5?$AAn?$AAo?$AAt?$AA?5?$AAi?$AAn?$AAi?$AAt?$AAi?$AAa?$AAl?$AAi?$AAz?$AAe?$AAd?$AA?$AN?$AA?6?$AA?$AA@ 1004fedc     LIBCMT:crt0msg.obj
 0002:0000df20       ??_C@_1MG@ENCOOIDF@?$AAR?$AA6?$AA0?$AA3?$AA1?$AA?$AN?$AA?6?$AA?9?$AA?5?$AAA?$AAt?$AAt?$AAe?$AAm?$AAp?$AAt?$AA?5?$AAt?$AAo?$AA?5?$AAi?$AAn?$AAi?$AAt?$AAi?$AAa?$AAl?$AAi?$AAz?$AAe?$AA?5?$AAt@ 1004ff20     LIBCMT:crt0msg.obj
 0002:0000dfe8       ??_C@_1GG@GOPILAJP@?$AAR?$AA6?$AA0?$AA3?$AA2?$AA?$AN?$AA?6?$AA?9?$AA?5?$AAn?$AAo?$AAt?$AA?5?$AAe?$AAn?$AAo?$AAu?$AAg?$AAh?$AA?5?$AAs?$AAp?$AAa?$AAc?$AAe?$AA?5?$AAf?$AAo?$AAr?$AA?5?$AAl?$AAo@ 1004ffe8     LIBCMT:crt0msg.obj
 0002:0000e050       ??_C@_1BOO@KGEDBGAJ@?$AAR?$AA6?$AA0?$AA3?$AA3?$AA?$AN?$AA?6?$AA?9?$AA?5?$AAA?$AAt?$AAt?$AAe?$AAm?$AAp?$AAt?$AA?5?$AAt?$AAo?$AA?5?$AAu?$AAs?$AAe?$AA?5?$AAM?$AAS?$AAI?$AAL?$AA?5?$AAc?$AAo?$AAd@ 10050050     LIBCMT:crt0msg.obj
 0002:0000e240       ??_C@_1GG@MKFPEKFO@?$AAR?$AA6?$AA0?$AA3?$AA4?$AA?$AN?$AA?6?$AA?9?$AA?5?$AAi?$AAn?$AAc?$AAo?$AAn?$AAs?$AAi?$AAs?$AAt?$AAe?$AAn?$AAt?$AA?5?$AAo?$AAn?$AAe?$AAx?$AAi?$AAt?$AA?5?$AAb?$AAe?$AAg@ 10050240     LIBCMT:crt0msg.obj
 0002:0000e2a8       ??_C@_1BO@BFCDCGC@?$AAD?$AAO?$AAM?$AAA?$AAI?$AAN?$AA?5?$AAe?$AAr?$AAr?$AAo?$AAr?$AA?$AN?$AA?6?$AA?$AA@ 100502a8     LIBCMT:crt0msg.obj
 0002:0000e2c8       ??_C@_1BK@KMOMNAAI@?$AAS?$AAI?$AAN?$AAG?$AA?5?$AAe?$AAr?$AAr?$AAo?$AAr?$AA?$AN?$AA?6?$AA?$AA@ 100502c8     LIBCMT:crt0msg.obj
 0002:0000e2e4       ??_C@_1BM@JBBEPPHI@?$AAT?$AAL?$AAO?$AAS?$AAS?$AA?5?$AAe?$AAr?$AAr?$AAo?$AAr?$AA?$AN?$AA?6?$AA?$AA@ 100502e4     LIBCMT:crt0msg.obj
 0002:0000e300       ??_C@_15JNBOKNOG@?$AA?$AN?$AA?6?$AA?$AA@ 10050300     LIBCMT:crt0msg.obj
 0002:0000e308       ??_C@_1BO@BKOMIGKJ@?$AAr?$AAu?$AAn?$AAt?$AAi?$AAm?$AAe?$AA?5?$AAe?$AAr?$AAr?$AAo?$AAr?$AA?5?$AA?$AA@ 10050308     LIBCMT:crt0msg.obj
 0002:0000e328       ??_C@_1DE@JNGNBFGO@?$AAR?$AAu?$AAn?$AAt?$AAi?$AAm?$AAe?$AA?5?$AAE?$AAr?$AAr?$AAo?$AAr?$AA?$CB?$AA?6?$AA?6?$AAP?$AAr?$AAo?$AAg?$AAr?$AAa?$AAm?$AA?3?$AA?5?$AA?$AA@ 10050328     LIBCMT:crt0msg.obj
 0002:0000e35c       ??_C@_06OJHGLDPL@?$CInull?$CJ?$AA@ 1005035c     LIBCMT:output.obj
 0002:0000e364       ??_C@_1O@CEDCILHN@?$AA?$CI?$AAn?$AAu?$AAl?$AAl?$AA?$CJ?$AA?$AA@ 10050364     LIBCMT:output.obj
 0002:0000e378       ___lookuptable             10050378     LIBCMT:output.obj
 0002:0000e440       ??_C@_03MGHMBJCF@log?$AA@  10050440     LIBCMT:libm_error.obj
 0002:0000e444       ??_C@_05HGHHAHAP@log10?$AA@ 10050444     LIBCMT:libm_error.obj
 0002:0000e44c       ??_C@_03KHJOGHMM@exp?$AA@  1005044c     LIBCMT:libm_error.obj
 0002:0000e450       ??_C@_03JGHBODFD@pow?$AA@  10050450     LIBCMT:libm_error.obj
 0002:0000e454       ??_C@_04FIHNOPOL@asin?$AA@ 10050454     LIBCMT:libm_error.obj
 0002:0000e45c       ??_C@_04PDIFKINK@acos?$AA@ 1005045c     LIBCMT:libm_error.obj
 0002:0000e464       ??_C@_05EOHGHCHD@exp10?$AA@ 10050464     LIBCMT:libm_error.obj
 0002:0000e46c       ??_C@_04MLLJIGOK@atan?$AA@ 1005046c     LIBCMT:libm_error.obj
 0002:0000e474       ??_C@_04GFPJNGEK@ceil?$AA@ 10050474     LIBCMT:libm_error.obj
 0002:0000e47c       ??_C@_05PBJFFIGL@floor?$AA@ 1005047c     LIBCMT:libm_error.obj
 0002:0000e484       ??_C@_04EHEDPDJG@modf?$AA@ 10050484     LIBCMT:libm_error.obj
 0002:0000e48c       ??_C@_03BLEJJJBH@sin?$AA@  1005048c     LIBCMT:libm_error.obj
 0002:0000e490       ??_C@_03LALBNOCG@cos?$AA@  10050490     LIBCMT:libm_error.obj
 0002:0000e494       ??_C@_03IIINPABG@tan?$AA@  10050494     LIBCMT:libm_error.obj
 0002:0000e498       ??_C@_04EIAKFFMI@sqrt?$AA@ 10050498     LIBCMT:libm_error.obj
 0002:0000e4a0       ??_C@_05KLBDPFGC@e?$CL000?$AA@ 100504a0     LIBCMT:cvt.obj
 0002:0000e4a8       ??_C@_1BK@MGMFAEKH@?$AAk?$AAe?$AAr?$AAn?$AAe?$AAl?$AA3?$AA2?$AA?4?$AAd?$AAl?$AAl?$AA?$AA@ 100504a8     LIBCMT:winapisupp.obj
 0002:0000e4c4       ??_C@_08KNHFBNJ@FlsAlloc?$AA@ 100504c4     LIBCMT:winapisupp.obj
 0002:0000e4d0       ??_C@_07PEJMOBNF@FlsFree?$AA@ 100504d0     LIBCMT:winapisupp.obj
 0002:0000e4d8       ??_C@_0M@GDNOONDI@FlsGetValue?$AA@ 100504d8     LIBCMT:winapisupp.obj
 0002:0000e4e4       ??_C@_0M@JCPCPOEF@FlsSetValue?$AA@ 100504e4     LIBCMT:winapisupp.obj
 0002:0000e4f0       ??_C@_0BM@HCFOFFN@InitializeCriticalSectionEx?$AA@ 100504f0     LIBCMT:winapisupp.obj
 0002:0000e50c       ??_C@_0P@DLHPPCNH@CreateEventExW?$AA@ 1005050c     LIBCMT:winapisupp.obj
 0002:0000e51c       ??_C@_0BD@KIEEOEEH@CreateSemaphoreExW?$AA@ 1005051c     LIBCMT:winapisupp.obj
 0002:0000e530       ??_C@_0BI@BKLFFAPO@SetThreadStackGuarantee?$AA@ 10050530     LIBCMT:winapisupp.obj
 0002:0000e548       ??_C@_0BG@OGFAJCKC@CreateThreadpoolTimer?$AA@ 10050548     LIBCMT:winapisupp.obj
 0002:0000e560       ??_C@_0BD@LPLEMMDI@SetThreadpoolTimer?$AA@ 10050560     LIBCMT:winapisupp.obj
 0002:0000e574       ??_C@_0CA@FMNJENH@WaitForThreadpoolTimerCallbacks?$AA@ 10050574     LIBCMT:winapisupp.obj
 0002:0000e594       ??_C@_0BF@DCFCCNOC@CloseThreadpoolTimer?$AA@ 10050594     LIBCMT:winapisupp.obj
 0002:0000e5ac       ??_C@_0BF@FLABGKKM@CreateThreadpoolWait?$AA@ 100505ac     LIBCMT:winapisupp.obj
 0002:0000e5c4       ??_C@_0BC@MGCOHNA@SetThreadpoolWait?$AA@ 100505c4     LIBCMT:winapisupp.obj
 0002:0000e5d8       ??_C@_0BE@OCIOMIMP@CloseThreadpoolWait?$AA@ 100505d8     LIBCMT:winapisupp.obj
 0002:0000e5ec       ??_C@_0BJ@LKGHFHBO@FlushProcessWriteBuffers?$AA@ 100505ec     LIBCMT:winapisupp.obj
 0002:0000e608       ??_C@_0BP@KALKKPMO@FreeLibraryWhenCallbackReturns?$AA@ 10050608     LIBCMT:winapisupp.obj
 0002:0000e628       ??_C@_0BK@DFNBACLA@GetCurrentProcessorNumber?$AA@ 10050628     LIBCMT:winapisupp.obj
 0002:0000e644       ??_C@_0BP@KHGALBC@GetLogicalProcessorInformation?$AA@ 10050644     LIBCMT:winapisupp.obj
 0002:0000e664       ??_C@_0BE@FKKLLFLM@CreateSymbolicLinkW?$AA@ 10050664     LIBCMT:winapisupp.obj
 0002:0000e678       ??_C@_0BJ@OHNKDLIJ@SetDefaultDllDirectories?$AA@ 10050678     LIBCMT:winapisupp.obj
 0002:0000e694       ??_C@_0BE@LJANKFHF@EnumSystemLocalesEx?$AA@ 10050694     LIBCMT:winapisupp.obj
 0002:0000e6a8       ??_C@_0BA@IHGNDAEB@CompareStringEx?$AA@ 100506a8     LIBCMT:winapisupp.obj
 0002:0000e6b8       ??_C@_0BA@EPCJIIPD@GetDateFormatEx?$AA@ 100506b8     LIBCMT:winapisupp.obj
 0002:0000e6c8       ??_C@_0BA@ONOKGCMP@GetLocaleInfoEx?$AA@ 100506c8     LIBCMT:winapisupp.obj
 0002:0000e6d8       ??_C@_0BA@CIJJKCJJ@GetTimeFormatEx?$AA@ 100506d8     LIBCMT:winapisupp.obj
 0002:0000e6e8       ??_C@_0BJ@PBCCBIPI@GetUserDefaultLocaleName?$AA@ 100506e8     LIBCMT:winapisupp.obj
 0002:0000e704       ??_C@_0BC@CELBKLLA@IsValidLocaleName?$AA@ 10050704     LIBCMT:winapisupp.obj
 0002:0000e718       ??_C@_0O@KKBNKAPF@LCMapStringEx?$AA@ 10050718     LIBCMT:winapisupp.obj
 0002:0000e728       ??_C@_0BE@JOGNEJCI@GetCurrentPackageId?$AA@ 10050728     LIBCMT:winapisupp.obj
 0002:0000e73c       ??_C@_0P@CDHHOHKP@GetTickCount64?$AA@ 1005073c     LIBCMT:winapisupp.obj
 0002:0000e74c       ??_C@_0BO@KPCLFDJJ@GetFileInformationByHandleExW?$AA@ 1005074c     LIBCMT:winapisupp.obj
 0002:0000e76c       ??_C@_0BM@MHIDLABK@SetFileInformationByHandleW?$AA@ 1005076c     LIBCMT:winapisupp.obj
 0002:0000e788       ??_C@_1BK@GAEMIDIL@?$AAA?$AAD?$AAV?$AAA?$AAP?$AAI?$AA3?$AA2?$AA?4?$AAD?$AAL?$AAL?$AA?$AA@ 10050788     LIBCMT:rand_s.obj
 0002:0000e7a4       ??_C@_0BC@JEAENNKH@SystemFunction036?$AA@ 100507a4     LIBCMT:rand_s.obj
 0002:0000e7c8       ??_C@_1M@HPNHIDJI@?$AAj?$AAa?$AA?9?$AAJ?$AAP?$AA?$AA@ 100507c8     LIBCMT:mbctype.obj
 0002:0000e7d4       ??_C@_1M@BIBDDEMK@?$AAz?$AAh?$AA?9?$AAC?$AAN?$AA?$AA@ 100507d4     LIBCMT:mbctype.obj
 0002:0000e7e0       ??_C@_1M@JLOOOEGK@?$AAk?$AAo?$AA?9?$AAK?$AAR?$AA?$AA@ 100507e0     LIBCMT:mbctype.obj
 0002:0000e7ec       ??_C@_1M@CLNBBOPM@?$AAz?$AAh?$AA?9?$AAT?$AAW?$AA?$AA@ 100507ec     LIBCMT:mbctype.obj
 0002:0000e818       ??_C@_04FJHINJAO@tanh?$AA@ 10050818     LIBCMT:fpexcept.obj
 0002:0000e820       ??_C@_05KNGEOGJB@atan2?$AA@ 10050820     LIBCMT:fpexcept.obj
 0002:0000e828       ??_C@_04ODHECPBC@fabs?$AA@ 10050828     LIBCMT:fpexcept.obj
 0002:0000e830       ??_C@_05CEJMAHNP@ldexp?$AA@ 10050830     LIBCMT:fpexcept.obj
 0002:0000e838       ??_C@_05KBKMEMPO@_cabs?$AA@ 10050838     LIBCMT:fpexcept.obj
 0002:0000e840       ??_C@_06MEIMCGCF@_hypot?$AA@ 10050840     LIBCMT:fpexcept.obj
 0002:0000e848       ??_C@_04KEPJIHGP@fmod?$AA@ 10050848     LIBCMT:fpexcept.obj
 0002:0000e850       ??_C@_05GKKHEGJL@frexp?$AA@ 10050850     LIBCMT:fpexcept.obj
 0002:0000e858       ??_C@_03MJLDFKDL@_y0?$AA@  10050858     LIBCMT:fpexcept.obj
 0002:0000e85c       ??_C@_03NAKIGLHK@_y1?$AA@  1005085c     LIBCMT:fpexcept.obj
 0002:0000e860       ??_C@_03ONILCKOB@_yn?$AA@  10050860     LIBCMT:fpexcept.obj
 0002:0000e864       ??_C@_05JGDBENOH@_logb?$AA@ 10050864     LIBCMT:fpexcept.obj
 0002:0000e86c       ??_C@_0L@KDOEJCKC@_nextafter?$AA@ 1005086c     LIBCMT:fpexcept.obj
 0002:0000e878       ??_C@_04COOMCNPB@sinh?$AA@ 10050878     LIBCMT:fpexcept.obj
 0002:0000e880       ??_C@_04HPJJNFIM@cosh?$AA@ 10050880     LIBCMT:fpexcept.obj
 0002:0000e888       ??_C@_1BG@GOEBHBDC@?$AAU?$AAS?$AAE?$AAR?$AA3?$AA2?$AA?4?$AAD?$AAL?$AAL?$AA?$AA@ 10050888     LIBCMT:crtmboxw.obj
 0002:0000e8a0       ??_C@_0M@DLDCCGNP@MessageBoxW?$AA@ 100508a0     LIBCMT:crtmboxw.obj
 0002:0000e8ac       ??_C@_0BA@HNOPNCHB@GetActiveWindow?$AA@ 100508ac     LIBCMT:crtmboxw.obj
 0002:0000e8bc       ??_C@_0BD@HHGDFDBJ@GetLastActivePopup?$AA@ 100508bc     LIBCMT:crtmboxw.obj
 0002:0000e8d0       ??_C@_0BK@DEKFELLI@GetUserObjectInformationW?$AA@ 100508d0     LIBCMT:crtmboxw.obj
 0002:0000e8ec       ??_C@_0BI@DFKBFLJE@GetProcessWindowStation?$AA@ 100508ec     LIBCMT:crtmboxw.obj
 0002:0000e908       __XcptActTab               10050908     LIBCMT:winxfltr.obj
 0002:0000e998       __XcptActTabCount          10050998     LIBCMT:winxfltr.obj
 0002:0000e99c       __XcptActTabSize           1005099c     LIBCMT:winxfltr.obj
 0002:0000e9a0       __First_FPE_Indx           100509a0     LIBCMT:winxfltr.obj
 0002:0000e9a4       __Num_FPE                  100509a4     LIBCMT:winxfltr.obj
 0002:0000e9a8       ___lookuptable_s           100509a8     LIBCMT:outputs.obj
 0002:0000ea04       ??_C@_03KOEHGMDN@Sun?$AA@  10050a04     LIBCMT:nlsdata.obj
 0002:0000ea08       ??_C@_03PDAGKDH@Mon?$AA@   10050a08     LIBCMT:nlsdata.obj
 0002:0000ea0c       ??_C@_03NAGEINEP@Tue?$AA@  10050a0c     LIBCMT:nlsdata.obj
 0002:0000ea10       ??_C@_03MHOMLAJA@Wed?$AA@  10050a10     LIBCMT:nlsdata.obj
 0002:0000ea14       ??_C@_03IOFIKPDN@Thu?$AA@  10050a14     LIBCMT:nlsdata.obj
 0002:0000ea18       ??_C@_03IDIOELNC@Fri?$AA@  10050a18     LIBCMT:nlsdata.obj
 0002:0000ea1c       ??_C@_03FEFJNEK@Sat?$AA@   10050a1c     LIBCMT:nlsdata.obj
 0002:0000ea20       ??_C@_06OOPIFAJ@Sunday?$AA@ 10050a20     LIBCMT:nlsdata.obj
 0002:0000ea28       ??_C@_06JLEDEDGH@Monday?$AA@ 10050a28     LIBCMT:nlsdata.obj
 0002:0000ea30       ??_C@_07BAAGCFCM@Tuesday?$AA@ 10050a30     LIBCMT:nlsdata.obj
 0002:0000ea38       ??_C@_09DLIGFAKA@Wednesday?$AA@ 10050a38     LIBCMT:nlsdata.obj
 0002:0000ea44       ??_C@_08HACCIKIA@Thursday?$AA@ 10050a44     LIBCMT:nlsdata.obj
 0002:0000ea50       ??_C@_06JECMNKMI@Friday?$AA@ 10050a50     LIBCMT:nlsdata.obj
 0002:0000ea58       ??_C@_08INBOOONO@Saturday?$AA@ 10050a58     LIBCMT:nlsdata.obj
 0002:0000ea64       ??_C@_03JIHJHPIE@Jan?$AA@  10050a64     LIBCMT:nlsdata.obj
 0002:0000ea68       ??_C@_03HJBDCHOM@Feb?$AA@  10050a68     LIBCMT:nlsdata.obj
 0002:0000ea6c       ??_C@_03ODNJBKGA@Mar?$AA@  10050a6c     LIBCMT:nlsdata.obj
 0002:0000ea70       ??_C@_03LEOLGMJP@Apr?$AA@  10050a70     LIBCMT:nlsdata.obj
 0002:0000ea74       ??_C@_03CNMDKL@May?$AA@    10050a74     LIBCMT:nlsdata.obj
 0002:0000ea78       ??_C@_03IDFGHECI@Jun?$AA@  10050a78     LIBCMT:nlsdata.obj
 0002:0000ea7c       ??_C@_03LBGABGKK@Jul?$AA@  10050a7c     LIBCMT:nlsdata.obj
 0002:0000ea80       ??_C@_03IFJFEIGA@Aug?$AA@  10050a80     LIBCMT:nlsdata.obj
 0002:0000ea84       ??_C@_03GGCAPAJC@Sep?$AA@  10050a84     LIBCMT:nlsdata.obj
 0002:0000ea88       ??_C@_03BMAOKBAD@Oct?$AA@  10050a88     LIBCMT:nlsdata.obj
 0002:0000ea8c       ??_C@_03JPJOFNIA@Nov?$AA@  10050a8c     LIBCMT:nlsdata.obj
 0002:0000ea90       ??_C@_03MKABNOCG@Dec?$AA@  10050a90     LIBCMT:nlsdata.obj
 0002:0000ea94       ??_C@_07CGJPFGJA@January?$AA@ 10050a94     LIBCMT:nlsdata.obj
 0002:0000ea9c       ??_C@_08GNJGEPFN@February?$AA@ 10050a9c     LIBCMT:nlsdata.obj
 0002:0000eaa8       ??_C@_05HPCKOFNC@March?$AA@ 10050aa8     LIBCMT:nlsdata.obj
 0002:0000eab0       ??_C@_05DMJDNLEJ@April?$AA@ 10050ab0     LIBCMT:nlsdata.obj
 0002:0000eab8       ??_C@_04CNLMGBGM@June?$AA@ 10050ab8     LIBCMT:nlsdata.obj
 0002:0000eac0       ??_C@_04MIEPOIFP@July?$AA@ 10050ac0     LIBCMT:nlsdata.obj
 0002:0000eac8       ??_C@_06LBBHFDDG@August?$AA@ 10050ac8     LIBCMT:nlsdata.obj
 0002:0000ead0       ??_C@_09BHHEALKD@September?$AA@ 10050ad0     LIBCMT:nlsdata.obj
 0002:0000eadc       ??_C@_07JJNFCEND@October?$AA@ 10050adc     LIBCMT:nlsdata.obj
 0002:0000eae4       ??_C@_08HCHEGEOA@November?$AA@ 10050ae4     LIBCMT:nlsdata.obj
 0002:0000eaf0       ??_C@_08EDHMEBNP@December?$AA@ 10050af0     LIBCMT:nlsdata.obj
 0002:0000eafc       ??_C@_02DEDBPAFC@AM?$AA@   10050afc     LIBCMT:nlsdata.obj
 0002:0000eb00       ??_C@_02CJNFDJBF@PM?$AA@   10050b00     LIBCMT:nlsdata.obj
 0002:0000eb04       ??_C@_08BPBNCDIB@MM?1dd?1yy?$AA@ 10050b04     LIBCMT:nlsdata.obj
 0002:0000eb10       ??_C@_0BE@CKGJFCPC@dddd?0?5MMMM?5dd?0?5yyyy?$AA@ 10050b10     LIBCMT:nlsdata.obj
 0002:0000eb24       ??_C@_08JCCMCCIL@HH?3mm?3ss?$AA@ 10050b24     LIBCMT:nlsdata.obj
 0002:0000eb30       ??_C@_17MBGCMIPB@?$AAS?$AAu?$AAn?$AA?$AA@ 10050b30     LIBCMT:nlsdata.obj
 0002:0000eb38       ??_C@_17KBOMKBF@?$AAM?$AAo?$AAn?$AA?$AA@ 10050b38     LIBCMT:nlsdata.obj
 0002:0000eb40       ??_C@_17BMKGEGOJ@?$AAT?$AAu?$AAe?$AA?$AA@ 10050b40     LIBCMT:nlsdata.obj
 0002:0000eb48       ??_C@_17CJEDCEPE@?$AAW?$AAe?$AAd?$AA?$AA@ 10050b48     LIBCMT:nlsdata.obj
 0002:0000eb50       ??_C@_17PDPHAADD@?$AAT?$AAh?$AAu?$AA?$AA@ 10050b50     LIBCMT:nlsdata.obj
 0002:0000eb58       ??_C@_17HFOLPPLP@?$AAF?$AAr?$AAi?$AA?$AA@ 10050b58     LIBCMT:nlsdata.obj
 0002:0000eb60       ??_C@_17GGIBDPIH@?$AAS?$AAa?$AAt?$AA?$AA@ 10050b60     LIBCMT:nlsdata.obj
 0002:0000eb68       ??_C@_1O@IHNHDHPB@?$AAS?$AAu?$AAn?$AAd?$AAa?$AAy?$AA?$AA@ 10050b68     LIBCMT:nlsdata.obj
 0002:0000eb78       ??_C@_1O@MMNBFLIA@?$AAM?$AAo?$AAn?$AAd?$AAa?$AAy?$AA?$AA@ 10050b78     LIBCMT:nlsdata.obj
 0002:0000eb88       ??_C@_1BA@ENFBFFEK@?$AAT?$AAu?$AAe?$AAs?$AAd?$AAa?$AAy?$AA?$AA@ 10050b88     LIBCMT:nlsdata.obj
 0002:0000eb98       ??_C@_1BE@EBOGMDOH@?$AAW?$AAe?$AAd?$AAn?$AAe?$AAs?$AAd?$AAa?$AAy?$AA?$AA@ 10050b98     LIBCMT:nlsdata.obj
 0002:0000ebac       ??_C@_1BC@HHMNLIHE@?$AAT?$AAh?$AAu?$AAr?$AAs?$AAd?$AAa?$AAy?$AA?$AA@ 10050bac     LIBCMT:nlsdata.obj
 0002:0000ebc0       ??_C@_1O@PDICJHAG@?$AAF?$AAr?$AAi?$AAd?$AAa?$AAy?$AA?$AA@ 10050bc0     LIBCMT:nlsdata.obj
 0002:0000ebd0       ??_C@_1BC@ENMNNPAJ@?$AAS?$AAa?$AAt?$AAu?$AAr?$AAd?$AAa?$AAy?$AA?$AA@ 10050bd0     LIBCMT:nlsdata.obj
 0002:0000ebe4       ??_C@_17DKNBKCHM@?$AAJ?$AAa?$AAn?$AA?$AA@ 10050be4     LIBCMT:nlsdata.obj
 0002:0000ebec       ??_C@_17LMDJEKJN@?$AAF?$AAe?$AAb?$AA?$AA@ 10050bec     LIBCMT:nlsdata.obj
 0002:0000ebf4       ??_C@_17CKNLEDEC@?$AAM?$AAa?$AAr?$AA?$AA@ 10050bf4     LIBCMT:nlsdata.obj
 0002:0000ebfc       ??_C@_17LFPOIHDD@?$AAA?$AAp?$AAr?$AA?$AA@ 10050bfc     LIBCMT:nlsdata.obj
 0002:0000ec04       ??_C@_17PNNKMEED@?$AAM?$AAa?$AAy?$AA?$AA@ 10050c04     LIBCMT:nlsdata.obj
 0002:0000ec0c       ??_C@_17KCJGOCPB@?$AAJ?$AAu?$AAn?$AA?$AA@ 10050c0c     LIBCMT:nlsdata.obj
 0002:0000ec14       ??_C@_17IJPCKHK@?$AAJ?$AAu?$AAl?$AA?$AA@ 10050c14     LIBCMT:nlsdata.obj
 0002:0000ec1c       ??_C@_17ICPELBCN@?$AAA?$AAu?$AAg?$AA?$AA@ 10050c1c     LIBCMT:nlsdata.obj
 0002:0000ec24       ??_C@_17HCHCOKMG@?$AAS?$AAe?$AAp?$AA?$AA@ 10050c24     LIBCMT:nlsdata.obj
 0002:0000ec2c       ??_C@_17FNLKOI@?$AAO?$AAc?$AAt?$AA?$AA@ 10050c2c     LIBCMT:nlsdata.obj
 0002:0000ec34       ??_C@_17BBDMLCIG@?$AAN?$AAo?$AAv?$AA?$AA@ 10050c34     LIBCMT:nlsdata.obj
 0002:0000ec3c       ??_C@_17EGKACKIF@?$AAD?$AAe?$AAc?$AA?$AA@ 10050c3c     LIBCMT:nlsdata.obj
 0002:0000ec44       ??_C@_1BA@EFMEIEBA@?$AAJ?$AAa?$AAn?$AAu?$AAa?$AAr?$AAy?$AA?$AA@ 10050c44     LIBCMT:nlsdata.obj
 0002:0000ec54       ??_C@_1BC@JGDDFFAM@?$AAF?$AAe?$AAb?$AAr?$AAu?$AAa?$AAr?$AAy?$AA?$AA@ 10050c54     LIBCMT:nlsdata.obj
 0002:0000ec68       ??_C@_1M@IKEENEDF@?$AAM?$AAa?$AAr?$AAc?$AAh?$AA?$AA@ 10050c68     LIBCMT:nlsdata.obj
 0002:0000ec74       ??_C@_1M@GJNLMHFD@?$AAA?$AAp?$AAr?$AAi?$AAl?$AA?$AA@ 10050c74     LIBCMT:nlsdata.obj
 0002:0000ec80       ??_C@_19EPFLPGAP@?$AAJ?$AAu?$AAn?$AAe?$AA?$AA@ 10050c80     LIBCMT:nlsdata.obj
 0002:0000ec8c       ??_C@_19BIFMLPCD@?$AAJ?$AAu?$AAl?$AAy?$AA?$AA@ 10050c8c     LIBCMT:nlsdata.obj
 0002:0000ec98       ??_C@_1O@PAHLKOAC@?$AAA?$AAu?$AAg?$AAu?$AAs?$AAt?$AA?$AA@ 10050c98     LIBCMT:nlsdata.obj
 0002:0000eca8       ??_C@_1BE@DKAAMBJL@?$AAS?$AAe?$AAp?$AAt?$AAe?$AAm?$AAb?$AAe?$AAr?$AA?$AA@ 10050ca8     LIBCMT:nlsdata.obj
 0002:0000ecbc       ??_C@_1BA@EPANDLNG@?$AAO?$AAc?$AAt?$AAo?$AAb?$AAe?$AAr?$AA?$AA@ 10050cbc     LIBCMT:nlsdata.obj
 0002:0000eccc       ??_C@_1BC@BGLIFPF@?$AAN?$AAo?$AAv?$AAe?$AAm?$AAb?$AAe?$AAr?$AA?$AA@ 10050ccc     LIBCMT:nlsdata.obj
 0002:0000ece0       ??_C@_1BC@FEMKIFH@?$AAD?$AAe?$AAc?$AAe?$AAm?$AAb?$AAe?$AAr?$AA?$AA@ 10050ce0     LIBCMT:nlsdata.obj
 0002:0000ecf4       ??_C@_15ODEHAHHF@?$AAA?$AAM?$AA?$AA@ 10050cf4     LIBCMT:nlsdata.obj
 0002:0000ecfc       ??_C@_15CLMNNGEL@?$AAP?$AAM?$AA?$AA@ 10050cfc     LIBCMT:nlsdata.obj
 0002:0000ed04       ??_C@_1BC@IEBCMHCM@?$AAM?$AAM?$AA?1?$AAd?$AAd?$AA?1?$AAy?$AAy?$AA?$AA@ 10050d04     LIBCMT:nlsdata.obj
 0002:0000ed18       ??_C@_1CI@KNAKOEBC@?$AAd?$AAd?$AAd?$AAd?$AA?0?$AA?5?$AAM?$AAM?$AAM?$AAM?$AA?5?$AAd?$AAd?$AA?0?$AA?5?$AAy?$AAy?$AAy?$AAy?$AA?$AA@ 10050d18     LIBCMT:nlsdata.obj
 0002:0000ed40       ??_C@_1BC@GDGBMEMK@?$AAH?$AAH?$AA?3?$AAm?$AAm?$AA?3?$AAs?$AAs?$AA?$AA@ 10050d40     LIBCMT:nlsdata.obj
 0002:0000ed54       ??_C@_1M@BMHNFIME@?$AAe?$AAn?$AA?9?$AAU?$AAS?$AA?$AA@ 10050d54     LIBCMT:nlsdata.obj
 0002:0000ed60       _LcidToLocaleNameTable     10050d60     LIBCMT:winapinls.obj
 0002:0000f480       _LocaleNameToIndexTable    10051480     LIBCMT:winapinls.obj
 0002:0000fba0       ??_C@_15EMKDOKLE@?$AAa?$AAr?$AA?$AA@ 10051ba0     LIBCMT:winapinls.obj
 0002:0000fba8       ??_C@_15KNPADPLH@?$AAb?$AAg?$AA?$AA@ 10051ba8     LIBCMT:winapinls.obj
 0002:0000fbb0       ??_C@_15EDMHLDMO@?$AAc?$AAa?$AA?$AA@ 10051bb0     LIBCMT:winapinls.obj
 0002:0000fbb8       ??_C@_1O@BPEAJADD@?$AAz?$AAh?$AA?9?$AAC?$AAH?$AAS?$AA?$AA@ 10051bb8     LIBCMT:winapinls.obj
 0002:0000fbc8       ??_C@_15LJNHCMNK@?$AAc?$AAs?$AA?$AA@ 10051bc8     LIBCMT:winapinls.obj
 0002:0000fbd0       ??_C@_15FOMCIDHG@?$AAd?$AAa?$AA?$AA@ 10051bd0     LIBCMT:winapinls.obj
 0002:0000fbd8       ??_C@_15NBKABECB@?$AAd?$AAe?$AA?$AA@ 10051bd8     LIBCMT:winapinls.obj
 0002:0000fbe0       ??_C@_15GHPEIIAO@?$AAe?$AAl?$AA?$AA@ 10051be0     LIBCMT:winapinls.obj
 0002:0000fbe8       ??_C@_15MNPNEAIF@?$AAe?$AAn?$AA?$AA@ 10051be8     LIBCMT:winapinls.obj
 0002:0000fbf0       ??_C@_15GPIOMPMH@?$AAe?$AAs?$AA?$AA@ 10051bf0     LIBCMT:winapinls.obj
 0002:0000fbf8       ??_C@_15NGLOAKJC@?$AAf?$AAi?$AA?$AA@ 10051bf8     LIBCMT:winapinls.obj
 0002:0000fc00       ??_C@_15FBKGNKAM@?$AAf?$AAr?$AA?$AA@ 10051c00     LIBCMT:winapinls.obj
 0002:0000fc08       ??_C@_15KGGCNEFK@?$AAh?$AAe?$AA?$AA@ 10051c08     LIBCMT:winapinls.obj
 0002:0000fc10       ??_C@_15PGHLIDMF@?$AAh?$AAu?$AA?$AA@ 10051c10     LIBCMT:winapinls.obj
 0002:0000fc18       ??_C@_15BIEMAPLM@?$AAi?$AAs?$AA?$AA@ 10051c18     LIBCMT:winapinls.obj
 0002:0000fc20       ??_C@_15IFJLDHAF@?$AAi?$AAt?$AA?$AA@ 10051c20     LIBCMT:winapinls.obj
 0002:0000fc28       ??_C@_15GEMIOCAG@?$AAj?$AAa?$AA?$AA@ 10051c28     LIBCMT:winapinls.obj
 0002:0000fc30       ??_C@_15EPELEGJA@?$AAk?$AAo?$AA?$AA@ 10051c30     LIBCMT:winapinls.obj
 0002:0000fc38       ??_C@_15NDDHIMN@?$AAn?$AAl?$AA?$AA@ 10051c38     LIBCMT:winapinls.obj
 0002:0000fc40       ??_C@_15BPIGNHCD@?$AAn?$AAo?$AA?$AA@ 10051c40     LIBCMT:winapinls.obj
 0002:0000fc48       ??_C@_15DEOPBLCG@?$AAp?$AAl?$AA?$AA@ 10051c48     LIBCMT:winapinls.obj
 0002:0000fc50       ??_C@_15KBECGEFG@?$AAp?$AAt?$AA?$AA@ 10051c50     LIBCMT:winapinls.obj
 0002:0000fc58       ??_C@_15GLJCBFMD@?$AAr?$AAo?$AA?$AA@ 10051c58     LIBCMT:winapinls.obj
 0002:0000fc60       ??_C@_15FEDGKCDI@?$AAr?$AAu?$AA?$AA@ 10051c60     LIBCMT:winapinls.obj
 0002:0000fc68       ??_C@_15GLKMLLHM@?$AAh?$AAr?$AA?$AA@ 10051c68     LIBCMT:winapinls.obj
 0002:0000fc70       ??_C@_15CPKMFBDB@?$AAs?$AAk?$AA?$AA@ 10051c70     LIBCMT:winapinls.obj
 0002:0000fc78       ??_C@_15BAAIOGMK@?$AAs?$AAq?$AA?$AA@ 10051c78     LIBCMT:winapinls.obj
 0002:0000fc80       ??_C@_15INNPNOHD@?$AAs?$AAv?$AA?$AA@ 10051c80     LIBCMT:winapinls.obj
 0002:0000fc88       ??_C@_15CABMMOGH@?$AAt?$AAh?$AA?$AA@ 10051c88     LIBCMT:winapinls.obj
 0002:0000fc90       ??_C@_15BPLIHJJM@?$AAt?$AAr?$AA?$AA@ 10051c90     LIBCMT:winapinls.obj
 0002:0000fc98       ??_C@_15NEOEKKDJ@?$AAu?$AAr?$AA?$AA@ 10051c98     LIBCMT:winapinls.obj
 0002:0000fca0       ??_C@_15NFICGAJK@?$AAi?$AAd?$AA?$AA@ 10051ca0     LIBCMT:winapinls.obj
 0002:0000fca8       ??_C@_15PJPFLCCM@?$AAu?$AAk?$AA?$AA@ 10051ca8     LIBCMT:winapinls.obj
 0002:0000fcb0       ??_C@_15HPJPHDM@?$AAb?$AAe?$AA?$AA@ 10051cb0     LIBCMT:winapinls.obj
 0002:0000fcb8       ??_C@_15LCHLGJII@?$AAs?$AAl?$AA?$AA@ 10051cb8     LIBCMT:winapinls.obj
 0002:0000fcc0       ??_C@_15PCFJPHHO@?$AAe?$AAt?$AA?$AA@ 10051cc0     LIBCMT:winapinls.obj
 0002:0000fcc8       ??_C@_15HPFPGODN@?$AAl?$AAv?$AA?$AA@ 10051cc8     LIBCMT:winapinls.obj
 0002:0000fcd0       ??_C@_15NFFGKGLG@?$AAl?$AAt?$AA?$AA@ 10051cd0     LIBCMT:winapinls.obj
 0002:0000fcd8       ??_C@_15BDAKCCHN@?$AAf?$AAa?$AA?$AA@ 10051cd8     LIBCMT:winapinls.obj
 0002:0000fce0       ??_C@_15NFGIAIAJ@?$AAv?$AAi?$AA?$AA@ 10051ce0     LIBCMT:winapinls.obj
 0002:0000fce8       ??_C@_15LMKNDMHN@?$AAh?$AAy?$AA?$AA@ 10051ce8     LIBCMT:winapinls.obj
 0002:0000fcf0       ??_C@_15IJBHMCFL@?$AAa?$AAz?$AA?$AA@ 10051cf0     LIBCMT:winapinls.obj
 0002:0000fcf8       ??_C@_15EKOFJABL@?$AAe?$AAu?$AA?$AA@ 10051cf8     LIBCMT:winapinls.obj
 0002:0000fd00       ??_C@_15BGHADCNK@?$AAm?$AAk?$AA?$AA@ 10051d00     LIBCMT:winapinls.obj
 0002:0000fd08       ??_C@_15JDNICKHM@?$AAa?$AAf?$AA?$AA@ 10051d08     LIBCMT:winapinls.obj
 0002:0000fd10       ??_C@_15KPJEDBKD@?$AAk?$AAa?$AA?$AA@ 10051d10     LIBCMT:winapinls.obj
 0002:0000fd18       ??_C@_15PDNFFFEO@?$AAf?$AAo?$AA?$AA@ 10051d18     LIBCMT:winapinls.obj
 0002:0000fd20       ??_C@_15OMLEGLOC@?$AAh?$AAi?$AA?$AA@ 10051d20     LIBCMT:winapinls.obj
 0002:0000fd28       ??_C@_15IDNNENKK@?$AAm?$AAs?$AA?$AA@ 10051d28     LIBCMT:winapinls.obj
 0002:0000fd30       ??_C@_15MACJNBMH@?$AAk?$AAk?$AA?$AA@ 10051d30     LIBCMT:winapinls.obj
 0002:0000fd38       ??_C@_15DKDJEOND@?$AAk?$AAy?$AA?$AA@ 10051d38     LIBCMT:winapinls.obj
 0002:0000fd40       ??_C@_15DFGDLJBG@?$AAs?$AAw?$AA?$AA@ 10051d40     LIBCMT:winapinls.obj
 0002:0000fd48       ??_C@_15BBFAICNG@?$AAu?$AAz?$AA?$AA@ 10051d48     LIBCMT:winapinls.obj
 0002:0000fd50       ??_C@_15DKNDCGEA@?$AAt?$AAt?$AA?$AA@ 10051d50     LIBCMT:winapinls.obj
 0002:0000fd58       ??_C@_15MGIFMDPL@?$AAp?$AAa?$AA?$AA@ 10051d58     LIBCMT:winapinls.obj
 0002:0000fd60       ??_C@_15HCNDBBA@?$AAg?$AAu?$AA?$AA@ 10051d60     LIBCMT:winapinls.obj
 0002:0000fd68       ??_C@_15FNBEIBON@?$AAt?$AAa?$AA?$AA@ 10051d68     LIBCMT:winapinls.obj
 0002:0000fd70       ??_C@_15NCHGBGLK@?$AAt?$AAe?$AA?$AA@ 10051d70     LIBCMT:winapinls.obj
 0002:0000fd78       ??_C@_15PHPHCBPF@?$AAk?$AAn?$AA?$AA@ 10051d78     LIBCMT:winapinls.obj
 0002:0000fd80       ??_C@_15DLGBCKMP@?$AAm?$AAr?$AA?$AA@ 10051d80     LIBCMT:winapinls.obj
 0002:0000fd88       ??_C@_15EABBLBFF@?$AAs?$AAa?$AA?$AA@ 10051d88     LIBCMT:winapinls.obj
 0002:0000fd90       ??_C@_15CBKOMCOI@?$AAm?$AAn?$AA?$AA@ 10051d90     LIBCMT:winapinls.obj
 0002:0000fd98       ??_C@_15CKDMCJAF@?$AAg?$AAl?$AA?$AA@ 10051d98     LIBCMT:winapinls.obj
 0002:0000fda0       ??_C@_17CNJFBPG@?$AAk?$AAo?$AAk?$AA?$AA@ 10051da0     LIBCMT:winapinls.obj
 0002:0000fda8       ??_C@_17FFBJICPL@?$AAs?$AAy?$AAr?$AA?$AA@ 10051da8     LIBCMT:winapinls.obj
 0002:0000fdb0       ??_C@_17KPNDCPAF@?$AAd?$AAi?$AAv?$AA?$AA@ 10051db0     LIBCMT:winapinls.obj
 0002:0000fdb8       ??_C@_11LOCGONAA@?$AA?$AA@ 10051db8     LIBCMT:winapinls.obj
 0002:0000fdbc       ??_C@_1M@OKAHONE@?$AAa?$AAr?$AA?9?$AAS?$AAA?$AA?$AA@ 10051dbc     LIBCMT:winapinls.obj
 0002:0000fdc8       ??_C@_1M@FFFIGIGK@?$AAb?$AAg?$AA?9?$AAB?$AAG?$AA?$AA@ 10051dc8     LIBCMT:winapinls.obj
 0002:0000fdd4       ??_C@_1M@BJNKEDC@?$AAc?$AAa?$AA?9?$AAE?$AAS?$AA?$AA@ 10051dd4     LIBCMT:winapinls.obj
 0002:0000fde0       ??_C@_1M@IJJHFJHA@?$AAc?$AAs?$AA?9?$AAC?$AAZ?$AA?$AA@ 10051de0     LIBCMT:winapinls.obj
 0002:0000fdec       ??_C@_1M@CLPEOBGI@?$AAd?$AAa?$AA?9?$AAD?$AAK?$AA?$AA@ 10051dec     LIBCMT:winapinls.obj
 0002:0000fdf8       ??_C@_1M@MCMADGCB@?$AAd?$AAe?$AA?9?$AAD?$AAE?$AA?$AA@ 10051df8     LIBCMT:winapinls.obj
 0002:0000fe04       ??_C@_1M@OOCKEMAM@?$AAe?$AAl?$AA?9?$AAG?$AAR?$AA?$AA@ 10051e04     LIBCMT:winapinls.obj
 0002:0000fe10       ??_C@_1M@DDNJFGID@?$AAf?$AAi?$AA?9?$AAF?$AAI?$AA?$AA@ 10051e10     LIBCMT:winapinls.obj
 0002:0000fe1c       ??_C@_1M@GLIPPMAC@?$AAf?$AAr?$AA?9?$AAF?$AAR?$AA?$AA@ 10051e1c     LIBCMT:winapinls.obj
 0002:0000fe28       ??_C@_1M@GFMCHPE@?$AAh?$AAe?$AA?9?$AAI?$AAL?$AA?$AA@ 10051e28     LIBCMT:winapinls.obj
 0002:0000fe34       ??_C@_1M@MHLPGNKM@?$AAh?$AAu?$AA?9?$AAH?$AAU?$AA?$AA@ 10051e34     LIBCMT:winapinls.obj
 0002:0000fe40       ??_C@_1M@LPDDNNPN@?$AAi?$AAs?$AA?9?$AAI?$AAS?$AA?$AA@ 10051e40     LIBCMT:winapinls.obj
 0002:0000fe4c       ??_C@_1M@MADIPODN@?$AAi?$AAt?$AA?9?$AAI?$AAT?$AA?$AA@ 10051e4c     LIBCMT:winapinls.obj
 0002:0000fe58       ??_C@_1M@IHBJJGG@?$AAn?$AAl?$AA?9?$AAN?$AAL?$AA?$AA@ 10051e58     LIBCMT:winapinls.obj
 0002:0000fe64       ??_C@_1M@EANAGDL@?$AAn?$AAb?$AA?9?$AAN?$AAO?$AA?$AA@ 10051e64     LIBCMT:winapinls.obj
 0002:0000fe70       ??_C@_1M@NEIEMEGP@?$AAp?$AAl?$AA?9?$AAP?$AAL?$AA?$AA@ 10051e70     LIBCMT:winapinls.obj
 0002:0000fe7c       ??_C@_1M@BOCFIGEP@?$AAp?$AAt?$AA?9?$AAB?$AAR?$AA?$AA@ 10051e7c     LIBCMT:winapinls.obj
 0002:0000fe88       ??_C@_1M@IMPFOPBG@?$AAr?$AAo?$AA?9?$AAR?$AAO?$AA?$AA@ 10051e88     LIBCMT:winapinls.obj
 0002:0000fe94       ??_C@_1M@IDNNEJMM@?$AAr?$AAu?$AA?9?$AAR?$AAU?$AA?$AA@ 10051e94     LIBCMT:winapinls.obj
 0002:0000fea0       ??_C@_1M@LILEEOGM@?$AAh?$AAr?$AA?9?$AAH?$AAR?$AA?$AA@ 10051ea0     LIBCMT:winapinls.obj
 0002:0000feac       ??_C@_1M@FKIFEHPB@?$AAs?$AAk?$AA?9?$AAS?$AAK?$AA?$AA@ 10051eac     LIBCMT:winapinls.obj
 0002:0000feb8       ??_C@_1M@LJMAMNPJ@?$AAs?$AAq?$AA?9?$AAA?$AAL?$AA?$AA@ 10051eb8     LIBCMT:winapinls.obj
 0002:0000fec4       ??_C@_1M@GIAKDKJK@?$AAs?$AAv?$AA?9?$AAS?$AAE?$AA?$AA@ 10051ec4     LIBCMT:winapinls.obj
 0002:0000fed0       ??_C@_1M@MKJKIKCL@?$AAt?$AAh?$AA?9?$AAT?$AAH?$AA?$AA@ 10051ed0     LIBCMT:winapinls.obj
 0002:0000fedc       ??_C@_1M@MFLCCMPB@?$AAt?$AAr?$AA?9?$AAT?$AAR?$AA?$AA@ 10051edc     LIBCMT:winapinls.obj
 0002:0000fee8       ??_C@_1M@OIJHDKJN@?$AAu?$AAr?$AA?9?$AAP?$AAK?$AA?$AA@ 10051ee8     LIBCMT:winapinls.obj
 0002:0000fef4       ??_C@_1M@LHIPCIEK@?$AAi?$AAd?$AA?9?$AAI?$AAD?$AA?$AA@ 10051ef4     LIBCMT:winapinls.obj
 0002:0000ff00       ??_C@_1M@MFMOBGI@?$AAu?$AAk?$AA?9?$AAU?$AAA?$AA?$AA@ 10051f00     LIBCMT:winapinls.obj
 0002:0000ff0c       ??_C@_1M@OBGLJIPL@?$AAb?$AAe?$AA?9?$AAB?$AAY?$AA?$AA@ 10051f0c     LIBCMT:winapinls.obj
 0002:0000ff18       ??_C@_1M@BCFAJEAD@?$AAs?$AAl?$AA?9?$AAS?$AAI?$AA?$AA@ 10051f18     LIBCMT:winapinls.obj
 0002:0000ff24       ??_C@_1M@FKFFEDDN@?$AAe?$AAt?$AA?9?$AAE?$AAE?$AA?$AA@ 10051f24     LIBCMT:winapinls.obj
 0002:0000ff30       ??_C@_1M@KGKKAACI@?$AAl?$AAv?$AA?9?$AAL?$AAV?$AA?$AA@ 10051f30     LIBCMT:winapinls.obj
 0002:0000ff3c       ??_C@_1M@IFGBIJO@?$AAl?$AAt?$AA?9?$AAL?$AAT?$AA?$AA@ 10051f3c     LIBCMT:winapinls.obj
 0002:0000ff48       ??_C@_1M@FGEAHEDM@?$AAf?$AAa?$AA?9?$AAI?$AAR?$AA?$AA@ 10051f48     LIBCMT:winapinls.obj
 0002:0000ff54       ??_C@_1M@KBMAIBFN@?$AAv?$AAi?$AA?9?$AAV?$AAN?$AA?$AA@ 10051f54     LIBCMT:winapinls.obj
 0002:0000ff60       ??_C@_1M@GPCBKDJK@?$AAh?$AAy?$AA?9?$AAA?$AAM?$AA?$AA@ 10051f60     LIBCMT:winapinls.obj
 0002:0000ff6c       ??_C@_1BG@BECMDDJB@?$AAa?$AAz?$AA?9?$AAA?$AAZ?$AA?9?$AAL?$AAa?$AAt?$AAn?$AA?$AA@ 10051f6c     LIBCMT:winapinls.obj
 0002:0000ff84       ??_C@_1M@MAOFCAEA@?$AAe?$AAu?$AA?9?$AAE?$AAS?$AA?$AA@ 10051f84     LIBCMT:winapinls.obj
 0002:0000ff90       ??_C@_1M@IGHABKPI@?$AAm?$AAk?$AA?9?$AAM?$AAK?$AA?$AA@ 10051f90     LIBCMT:winapinls.obj
 0002:0000ff9c       ??_C@_1M@IAIGNEJG@?$AAt?$AAn?$AA?9?$AAZ?$AAA?$AA?$AA@ 10051f9c     LIBCMT:winapinls.obj
 0002:0000ffa8       ??_C@_1M@IIJCOJFA@?$AAx?$AAh?$AA?9?$AAZ?$AAA?$AA?$AA@ 10051fa8     LIBCMT:winapinls.obj
 0002:0000ffb4       ??_C@_1M@LGPJHNJH@?$AAz?$AAu?$AA?9?$AAZ?$AAA?$AA?$AA@ 10051fb4     LIBCMT:winapinls.obj
 0002:0000ffc0       ??_C@_1M@HOKAOIO@?$AAa?$AAf?$AA?9?$AAZ?$AAA?$AA?$AA@ 10051fc0     LIBCMT:winapinls.obj
 0002:0000ffcc       ??_C@_1M@DPCLHLIE@?$AAk?$AAa?$AA?9?$AAG?$AAE?$AA?$AA@ 10051fcc     LIBCMT:winapinls.obj
 0002:0000ffd8       ??_C@_1M@BLKMHJBI@?$AAf?$AAo?$AA?9?$AAF?$AAO?$AA?$AA@ 10051fd8     LIBCMT:winapinls.obj
 0002:0000ffe4       ??_C@_1M@LGGJAPPB@?$AAh?$AAi?$AA?9?$AAI?$AAN?$AA?$AA@ 10051fe4     LIBCMT:winapinls.obj
 0002:0000fff0       ??_C@_1M@FIKPIHFE@?$AAm?$AAt?$AA?9?$AAM?$AAT?$AA?$AA@ 10051ff0     LIBCMT:winapinls.obj
 0002:0000fffc       ??_C@_1M@HEGGPBFA@?$AAs?$AAe?$AA?9?$AAN?$AAO?$AA?$AA@ 10051ffc     LIBCMT:winapinls.obj
 0002:00010008       ??_C@_1M@EIBJEEPA@?$AAm?$AAs?$AA?9?$AAM?$AAY?$AA?$AA@ 10052008     LIBCMT:winapinls.obj
 0002:00010014       ??_C@_1M@FHLBGMPP@?$AAk?$AAk?$AA?9?$AAK?$AAZ?$AA?$AA@ 10052014     LIBCMT:winapinls.obj
 0002:00010020       ??_C@_1M@NGJJLCGI@?$AAk?$AAy?$AA?9?$AAK?$AAG?$AA?$AA@ 10052020     LIBCMT:winapinls.obj
 0002:0001002c       ??_C@_1M@GIENNBFC@?$AAs?$AAw?$AA?9?$AAK?$AAE?$AA?$AA@ 1005202c     LIBCMT:winapinls.obj
 0002:00010038       ??_C@_1BG@NDGMJIMJ@?$AAu?$AAz?$AA?9?$AAU?$AAZ?$AA?9?$AAL?$AAa?$AAt?$AAn?$AA?$AA@ 10052038     LIBCMT:winapinls.obj
 0002:00010050       ??_C@_1M@IDCCIHBC@?$AAt?$AAt?$AA?9?$AAR?$AAU?$AA?$AA@ 10052050     LIBCMT:winapinls.obj
 0002:0001005c       ??_C@_1M@LOICPMOJ@?$AAb?$AAn?$AA?9?$AAI?$AAN?$AA?$AA@ 1005205c     LIBCMT:winapinls.obj
 0002:00010068       ??_C@_1M@KPKKNEAH@?$AAp?$AAa?$AA?9?$AAI?$AAN?$AA?$AA@ 10052068     LIBCMT:winapinls.obj
 0002:00010074       ??_C@_1M@PJGPPBOG@?$AAg?$AAu?$AA?9?$AAI?$AAN?$AA?$AA@ 10052074     LIBCMT:winapinls.obj
 0002:00010080       ??_C@_1M@KMKMOPHI@?$AAt?$AAa?$AA?9?$AAI?$AAN?$AA?$AA@ 10052080     LIBCMT:winapinls.obj
 0002:0001008c       ??_C@_1M@KFEHEPAC@?$AAt?$AAe?$AA?9?$AAI?$AAN?$AA?$AA@ 1005208c     LIBCMT:winapinls.obj
 0002:00010098       ??_C@_1M@CDCLMGHI@?$AAk?$AAn?$AA?9?$AAI?$AAN?$AA?$AA@ 10052098     LIBCMT:winapinls.obj
 0002:000100a4       ??_C@_1M@MIODLDKF@?$AAm?$AAl?$AA?9?$AAI?$AAN?$AA?$AA@ 100520a4     LIBCMT:winapinls.obj
 0002:000100b0       ??_C@_1M@PBIEACPO@?$AAm?$AAr?$AA?9?$AAI?$AAN?$AA?$AA@ 100520b0     LIBCMT:winapinls.obj
 0002:000100bc       ??_C@_1M@NIDEAGPH@?$AAs?$AAa?$AA?9?$AAI?$AAN?$AA?$AA@ 100520bc     LIBCMT:winapinls.obj
 0002:000100c8       ??_C@_1M@FHIHCBIO@?$AAm?$AAn?$AA?9?$AAM?$AAN?$AA?$AA@ 100520c8     LIBCMT:winapinls.obj
 0002:000100d4       ??_C@_1M@JAIJPENP@?$AAc?$AAy?$AA?9?$AAG?$AAB?$AA?$AA@ 100520d4     LIBCMT:winapinls.obj
 0002:000100e0       ??_C@_1M@PHGFBEPN@?$AAg?$AAl?$AA?9?$AAE?$AAS?$AA?$AA@ 100520e0     LIBCMT:winapinls.obj
 0002:000100ec       ??_C@_1O@KPIPDNCP@?$AAk?$AAo?$AAk?$AA?9?$AAI?$AAN?$AA?$AA@ 100520ec     LIBCMT:winapinls.obj
 0002:000100fc       ??_C@_1O@KNHJLDJA@?$AAs?$AAy?$AAr?$AA?9?$AAS?$AAY?$AA?$AA@ 100520fc     LIBCMT:winapinls.obj
 0002:0001010c       ??_C@_1O@MKEKBLAH@?$AAd?$AAi?$AAv?$AA?9?$AAM?$AAV?$AA?$AA@ 1005210c     LIBCMT:winapinls.obj
 0002:0001011c       ??_C@_1O@OHDCKDDF@?$AAq?$AAu?$AAz?$AA?9?$AAB?$AAO?$AA?$AA@ 1005211c     LIBCMT:winapinls.obj
 0002:0001012c       ??_C@_1M@LEPJNLFD@?$AAn?$AAs?$AA?9?$AAZ?$AAA?$AA?$AA@ 1005212c     LIBCMT:winapinls.obj
 0002:00010138       ??_C@_1M@OMLEIIJB@?$AAm?$AAi?$AA?9?$AAN?$AAZ?$AA?$AA@ 10052138     LIBCMT:winapinls.obj
 0002:00010144       ??_C@_1M@PMPEAILG@?$AAa?$AAr?$AA?9?$AAI?$AAQ?$AA?$AA@ 10052144     LIBCMT:winapinls.obj
 0002:00010150       ??_C@_1M@CNKPNOEE@?$AAd?$AAe?$AA?9?$AAC?$AAH?$AA?$AA@ 10052150     LIBCMT:winapinls.obj
 0002:0001015c       ??_C@_1M@LKMGMLKO@?$AAe?$AAn?$AA?9?$AAG?$AAB?$AA?$AA@ 1005215c     LIBCMT:winapinls.obj
 0002:00010168       ??_C@_1M@PGKJFFGL@?$AAe?$AAs?$AA?9?$AAM?$AAX?$AA?$AA@ 10052168     LIBCMT:winapinls.obj
 0002:00010174       ??_C@_1M@DNNANBDC@?$AAf?$AAr?$AA?9?$AAB?$AAE?$AA?$AA@ 10052174     LIBCMT:winapinls.obj
 0002:00010180       ??_C@_1M@HLGMDFHM@?$AAi?$AAt?$AA?9?$AAC?$AAH?$AA?$AA@ 10052180     LIBCMT:winapinls.obj
 0002:0001018c       ??_C@_1M@CLLBGJH@?$AAn?$AAl?$AA?9?$AAB?$AAE?$AA?$AA@ 1005218c     LIBCMT:winapinls.obj
 0002:00010198       ??_C@_1M@BODBOGLF@?$AAn?$AAn?$AA?9?$AAN?$AAO?$AA?$AA@ 10052198     LIBCMT:winapinls.obj
 0002:000101a4       ??_C@_1M@HFFAHKAD@?$AAp?$AAt?$AA?9?$AAP?$AAT?$AA?$AA@ 100521a4     LIBCMT:winapinls.obj
 0002:000101b0       ??_C@_1BG@LNOAKHIE@?$AAs?$AAr?$AA?9?$AAS?$AAP?$AA?9?$AAL?$AAa?$AAt?$AAn?$AA?$AA@ 100521b0     LIBCMT:winapinls.obj
 0002:000101c8       ??_C@_1M@HBMHBGAK@?$AAs?$AAv?$AA?9?$AAF?$AAI?$AA?$AA@ 100521c8     LIBCMT:winapinls.obj
 0002:000101d4       ??_C@_1BG@DGCJGJBE@?$AAa?$AAz?$AA?9?$AAA?$AAZ?$AA?9?$AAC?$AAy?$AAr?$AAl?$AA?$AA@ 100521d4     LIBCMT:winapinls.obj
 0002:000101ec       ??_C@_1M@KEJDAAHB@?$AAs?$AAe?$AA?9?$AAS?$AAE?$AA?$AA@ 100521ec     LIBCMT:winapinls.obj
 0002:000101f8       ??_C@_1M@HEIBJJAD@?$AAm?$AAs?$AA?9?$AAB?$AAN?$AA?$AA@ 100521f8     LIBCMT:winapinls.obj
 0002:00010204       ??_C@_1BG@PBGJMCEM@?$AAu?$AAz?$AA?9?$AAU?$AAZ?$AA?9?$AAC?$AAy?$AAr?$AAl?$AA?$AA@ 10052204     LIBCMT:winapinls.obj
 0002:0001021c       ??_C@_1O@LAOBCMDF@?$AAq?$AAu?$AAz?$AA?9?$AAE?$AAC?$AA?$AA@ 1005221c     LIBCMT:winapinls.obj
 0002:0001022c       ??_C@_1M@POEEMAIO@?$AAa?$AAr?$AA?9?$AAE?$AAG?$AA?$AA@ 1005222c     LIBCMT:winapinls.obj
 0002:00010238       ??_C@_1M@EFAKDEDL@?$AAz?$AAh?$AA?9?$AAH?$AAK?$AA?$AA@ 10052238     LIBCMT:winapinls.obj
 0002:00010244       ??_C@_1M@HKKIJHGI@?$AAd?$AAe?$AA?9?$AAA?$AAT?$AA?$AA@ 10052244     LIBCMT:winapinls.obj
 0002:00010250       ??_C@_1M@KBFBEHJF@?$AAe?$AAn?$AA?9?$AAA?$AAU?$AA?$AA@ 10052250     LIBCMT:winapinls.obj
 0002:0001025c       ??_C@_1M@MNPLFAAH@?$AAe?$AAs?$AA?9?$AAE?$AAS?$AA?$AA@ 1005225c     LIBCMT:winapinls.obj
 0002:00010268       ??_C@_1M@HJOOJFMA@?$AAf?$AAr?$AA?9?$AAC?$AAA?$AA?$AA@ 10052268     LIBCMT:winapinls.obj
 0002:00010274       ??_C@_1BG@JPOFPNAB@?$AAs?$AAr?$AA?9?$AAS?$AAP?$AA?9?$AAC?$AAy?$AAr?$AAl?$AA?$AA@ 10052274     LIBCMT:winapinls.obj
 0002:0001028c       ??_C@_1M@LNFOCMOB@?$AAs?$AAe?$AA?9?$AAF?$AAI?$AA?$AA@ 1005228c     LIBCMT:winapinls.obj
 0002:00010298       ??_C@_1O@MGJBOAMB@?$AAq?$AAu?$AAz?$AA?9?$AAP?$AAE?$AA?$AA@ 10052298     LIBCMT:winapinls.obj
 0002:000102a8       ??_C@_1M@GJINLBOK@?$AAa?$AAr?$AA?9?$AAL?$AAY?$AA?$AA@ 100522a8     LIBCMT:winapinls.obj
 0002:000102b4       ??_C@_1M@GGMNHJNL@?$AAz?$AAh?$AA?9?$AAS?$AAG?$AA?$AA@ 100522b4     LIBCMT:winapinls.obj
 0002:000102c0       ??_C@_1M@HOIKODND@?$AAd?$AAe?$AA?9?$AAL?$AAU?$AA?$AA@ 100522c0     LIBCMT:winapinls.obj
 0002:000102cc       ??_C@_1M@DDOCCGFG@?$AAe?$AAn?$AA?9?$AAC?$AAA?$AA?$AA@ 100522cc     LIBCMT:winapinls.obj
 0002:000102d8       ??_C@_1M@BNOEMJLF@?$AAe?$AAs?$AA?9?$AAG?$AAT?$AA?$AA@ 100522d8     LIBCMT:winapinls.obj
 0002:000102e4       ??_C@_1M@EOGNKEK@?$AAf?$AAr?$AA?9?$AAC?$AAH?$AA?$AA@ 100522e4     LIBCMT:winapinls.obj
 0002:000102f0       ??_C@_1M@FLIDJFHL@?$AAh?$AAr?$AA?9?$AAB?$AAA?$AA?$AA@ 100522f0     LIBCMT:winapinls.obj
 0002:000102fc       ??_C@_1O@FMCELNAJ@?$AAs?$AAm?$AAj?$AA?9?$AAN?$AAO?$AA?$AA@ 100522fc     LIBCMT:winapinls.obj
 0002:0001030c       ??_C@_1M@JHGLJMGJ@?$AAa?$AAr?$AA?9?$AAD?$AAZ?$AA?$AA@ 1005230c     LIBCMT:winapinls.obj
 0002:00010318       ??_C@_1M@JKKFDCNP@?$AAz?$AAh?$AA?9?$AAM?$AAO?$AA?$AA@ 10052318     LIBCMT:winapinls.obj
 0002:00010324       ??_C@_1M@GEEFALPE@?$AAd?$AAe?$AA?9?$AAL?$AAI?$AA?$AA@ 10052324     LIBCMT:winapinls.obj
 0002:00010330       ??_C@_1M@IGEOFBG@?$AAe?$AAn?$AA?9?$AAN?$AAZ?$AA?$AA@ 10052330     LIBCMT:winapinls.obj
 0002:0001033c       ??_C@_1M@KDBONEHP@?$AAe?$AAs?$AA?9?$AAC?$AAR?$AA?$AA@ 1005233c     LIBCMT:winapinls.obj
 0002:00010348       ??_C@_1M@FHMDOHNN@?$AAf?$AAr?$AA?9?$AAL?$AAU?$AA?$AA@ 10052348     LIBCMT:winapinls.obj
 0002:00010354       ??_C@_1BG@NFKKMAFG@?$AAb?$AAs?$AA?9?$AAB?$AAA?$AA?9?$AAL?$AAa?$AAt?$AAn?$AA?$AA@ 10052354     LIBCMT:winapinls.obj
 0002:0001036c       ??_C@_1O@IMNBEMCI@?$AAs?$AAm?$AAj?$AA?9?$AAS?$AAE?$AA?$AA@ 1005236c     LIBCMT:winapinls.obj
 0002:0001037c       ??_C@_1M@DHHMBNDP@?$AAa?$AAr?$AA?9?$AAM?$AAA?$AA?$AA@ 1005237c     LIBCMT:winapinls.obj
 0002:00010388       ??_C@_1M@BNBLJCGH@?$AAe?$AAn?$AA?9?$AAI?$AAE?$AA?$AA@ 10052388     LIBCMT:winapinls.obj
 0002:00010394       ??_C@_1M@GEPAFMDL@?$AAe?$AAs?$AA?9?$AAP?$AAA?$AA?$AA@ 10052394     LIBCMT:winapinls.obj
 0002:000103a0       ??_C@_1M@OJONDMDL@?$AAf?$AAr?$AA?9?$AAM?$AAC?$AA?$AA@ 100523a0     LIBCMT:winapinls.obj
 0002:000103ac       ??_C@_1BG@OBCNFJB@?$AAs?$AAr?$AA?9?$AAB?$AAA?$AA?9?$AAL?$AAa?$AAt?$AAn?$AA?$AA@ 100523ac     LIBCMT:winapinls.obj
 0002:000103c4       ??_C@_1O@KEMEEGPO@?$AAs?$AAm?$AAa?$AA?9?$AAN?$AAO?$AA?$AA@ 100523c4     LIBCMT:winapinls.obj
 0002:000103d4       ??_C@_1M@ELMGFODK@?$AAa?$AAr?$AA?9?$AAT?$AAN?$AA?$AA@ 100523d4     LIBCMT:winapinls.obj
 0002:000103e0       ??_C@_1M@BHDLHFAF@?$AAe?$AAn?$AA?9?$AAZ?$AAA?$AA?$AA@ 100523e0     LIBCMT:winapinls.obj
 0002:000103ec       ??_C@_1M@BMGIGLIF@?$AAe?$AAs?$AA?9?$AAD?$AAO?$AA?$AA@ 100523ec     LIBCMT:winapinls.obj
 0002:000103f8       ??_C@_1BG@CMBHIPBE@?$AAs?$AAr?$AA?9?$AAB?$AAA?$AA?9?$AAC?$AAy?$AAr?$AAl?$AA?$AA@ 100523f8     LIBCMT:winapinls.obj
 0002:00010410       ??_C@_1O@HEDBLHNP@?$AAs?$AAm?$AAa?$AA?9?$AAS?$AAE?$AA?$AA@ 10052410     LIBCMT:winapinls.obj
 0002:00010420       ??_C@_1M@DAGCADIM@?$AAa?$AAr?$AA?9?$AAO?$AAM?$AA?$AA@ 10052420     LIBCMT:winapinls.obj
 0002:0001042c       ??_C@_1M@FODLMICG@?$AAe?$AAn?$AA?9?$AAJ?$AAM?$AA?$AA@ 1005242c     LIBCMT:winapinls.obj
 0002:00010438       ??_C@_1M@DNMLCIHB@?$AAe?$AAs?$AA?9?$AAV?$AAE?$AA?$AA@ 10052438     LIBCMT:winapinls.obj
 0002:00010444       ??_C@_1O@EOKHMKJK@?$AAs?$AAm?$AAs?$AA?9?$AAF?$AAI?$AA?$AA@ 10052444     LIBCMT:winapinls.obj
 0002:00010454       ??_C@_1M@CAFJMKOF@?$AAa?$AAr?$AA?9?$AAY?$AAE?$AA?$AA@ 10052454     LIBCMT:winapinls.obj
 0002:00010460       ??_C@_1M@CBFHIJLI@?$AAe?$AAn?$AA?9?$AAC?$AAB?$AA?$AA@ 10052460     LIBCMT:winapinls.obj
 0002:0001046c       ??_C@_1M@BGNFLDN@?$AAe?$AAs?$AA?9?$AAC?$AAO?$AA?$AA@ 1005246c     LIBCMT:winapinls.obj
 0002:00010478       ??_C@_1O@JMPHMAMC@?$AAs?$AAm?$AAn?$AA?9?$AAF?$AAI?$AA?$AA@ 10052478     LIBCMT:winapinls.obj
 0002:00010488       ??_C@_1M@JLANABKE@?$AAa?$AAr?$AA?9?$AAS?$AAY?$AA?$AA@ 10052488     LIBCMT:winapinls.obj
 0002:00010494       ??_C@_1M@HPKGCFGN@?$AAe?$AAn?$AA?9?$AAB?$AAZ?$AA?$AA@ 10052494     LIBCMT:winapinls.obj
 0002:000104a0       ??_C@_1M@OLJCMLGM@?$AAe?$AAs?$AA?9?$AAP?$AAE?$AA?$AA@ 100524a0     LIBCMT:winapinls.obj
 0002:000104ac       ??_C@_1M@MKKGFKLE@?$AAa?$AAr?$AA?9?$AAJ?$AAO?$AA?$AA@ 100524ac     LIBCMT:winapinls.obj
 0002:000104b8       ??_C@_1M@EKPGLDNI@?$AAe?$AAn?$AA?9?$AAT?$AAT?$AA?$AA@ 100524b8     LIBCMT:winapinls.obj
 0002:000104c4       ??_C@_1M@OONGHFHE@?$AAe?$AAs?$AA?9?$AAA?$AAR?$AA?$AA@ 100524c4     LIBCMT:winapinls.obj
 0002:000104d0       ??_C@_1M@OOJFGBHE@?$AAa?$AAr?$AA?9?$AAL?$AAB?$AA?$AA@ 100524d0     LIBCMT:winapinls.obj
 0002:000104dc       ??_C@_1M@GCEJHNEG@?$AAe?$AAn?$AA?9?$AAZ?$AAW?$AA?$AA@ 100524dc     LIBCMT:winapinls.obj
 0002:000104e8       ??_C@_1M@JNOCAHJI@?$AAe?$AAs?$AA?9?$AAE?$AAC?$AA?$AA@ 100524e8     LIBCMT:winapinls.obj
 0002:000104f4       ??_C@_1M@JEFHPGGB@?$AAa?$AAr?$AA?9?$AAK?$AAW?$AA?$AA@ 100524f4     LIBCMT:winapinls.obj
 0002:00010500       ??_C@_1M@MLKIBJOJ@?$AAe?$AAn?$AA?9?$AAP?$AAH?$AA?$AA@ 10052500     LIBCMT:winapinls.obj
 0002:0001050c       ??_C@_1M@BDNIPEND@?$AAe?$AAs?$AA?9?$AAC?$AAL?$AA?$AA@ 1005250c     LIBCMT:winapinls.obj
 0002:00010518       ??_C@_1M@MPNMEKBD@?$AAa?$AAr?$AA?9?$AAA?$AAE?$AA?$AA@ 10052518     LIBCMT:winapinls.obj
 0002:00010524       ??_C@_1M@KBJALCPI@?$AAe?$AAs?$AA?9?$AAU?$AAY?$AA?$AA@ 10052524     LIBCMT:winapinls.obj
 0002:00010530       ??_C@_1M@LLCCOAGA@?$AAa?$AAr?$AA?9?$AAB?$AAH?$AA?$AA@ 10052530     LIBCMT:winapinls.obj
 0002:0001053c       ??_C@_1M@PBFNCDEL@?$AAe?$AAs?$AA?9?$AAP?$AAY?$AA?$AA@ 1005253c     LIBCMT:winapinls.obj
 0002:00010548       ??_C@_1M@EDGINPNP@?$AAa?$AAr?$AA?9?$AAQ?$AAA?$AA?$AA@ 10052548     LIBCMT:winapinls.obj
 0002:00010554       ??_C@_1M@MKDBIIJI@?$AAe?$AAs?$AA?9?$AAB?$AAO?$AA?$AA@ 10052554     LIBCMT:winapinls.obj
 0002:00010560       ??_C@_1M@CPKKEBLD@?$AAe?$AAs?$AA?9?$AAS?$AAV?$AA?$AA@ 10052560     LIBCMT:winapinls.obj
 0002:0001056c       ??_C@_1M@NDBGMMJL@?$AAe?$AAs?$AA?9?$AAH?$AAN?$AA?$AA@ 1005256c     LIBCMT:winapinls.obj
 0002:00010578       ??_C@_1M@JIJIBHDP@?$AAe?$AAs?$AA?9?$AAN?$AAI?$AA?$AA@ 10052578     LIBCMT:winapinls.obj
 0002:00010584       ??_C@_1M@CGFMKEEK@?$AAe?$AAs?$AA?9?$AAP?$AAR?$AA?$AA@ 10052584     LIBCMT:winapinls.obj
 0002:00010590       ??_C@_1O@ICJHKIIK@?$AAz?$AAh?$AA?9?$AAC?$AAH?$AAT?$AA?$AA@ 10052590     LIBCMT:winapinls.obj
 0002:000105a0       ??_C@_15CLNEJCE@?$AAs?$AAr?$AA?$AA@ 100525a0     LIBCMT:winapinls.obj
 0002:000105a8       ??_C@_1M@KAHEKEIG@?$AAa?$AAf?$AA?9?$AAz?$AAa?$AA?$AA@ 100525a8     LIBCMT:winapinls.obj
 0002:000105b4       ??_C@_1M@GIECOABL@?$AAa?$AAr?$AA?9?$AAa?$AAe?$AA?$AA@ 100525b4     LIBCMT:winapinls.obj
 0002:000105c0       ??_C@_1M@BMLMEKGI@?$AAa?$AAr?$AA?9?$AAb?$AAh?$AA?$AA@ 100525c0     LIBCMT:winapinls.obj
 0002:000105cc       ??_C@_1M@DAPFDGGB@?$AAa?$AAr?$AA?9?$AAd?$AAz?$AA?$AA@ 100525cc     LIBCMT:winapinls.obj
 0002:000105d8       ??_C@_1M@FJNKGKIG@?$AAa?$AAr?$AA?9?$AAe?$AAg?$AA?$AA@ 100525d8     LIBCMT:winapinls.obj
 0002:000105e4       ??_C@_1M@FLGKKCLO@?$AAa?$AAr?$AA?9?$AAi?$AAq?$AA?$AA@ 100525e4     LIBCMT:winapinls.obj
 0002:000105f0       ??_C@_1M@GNDIPALM@?$AAa?$AAr?$AA?9?$AAj?$AAo?$AA?$AA@ 100525f0     LIBCMT:winapinls.obj
 0002:000105fc       ??_C@_1M@DDMJFMGJ@?$AAa?$AAr?$AA?9?$AAk?$AAw?$AA?$AA@ 100525fc     LIBCMT:winapinls.obj
 0002:00010608       ??_C@_1M@EJALMLHM@?$AAa?$AAr?$AA?9?$AAl?$AAb?$AA?$AA@ 10052608     LIBCMT:winapinls.obj
 0002:00010614       ??_C@_1M@MOBDBLOC@?$AAa?$AAr?$AA?9?$AAl?$AAy?$AA?$AA@ 10052614     LIBCMT:winapinls.obj
 0002:00010620       ??_C@_1M@JAOCLHDH@?$AAa?$AAr?$AA?9?$AAm?$AAa?$AA?$AA@ 10052620     LIBCMT:winapinls.obj
 0002:0001062c       ??_C@_1M@JHPMKJIE@?$AAa?$AAr?$AA?9?$AAo?$AAm?$AA?$AA@ 1005262c     LIBCMT:winapinls.obj
 0002:00010638       ??_C@_1M@OEPGHFNH@?$AAa?$AAr?$AA?9?$AAq?$AAa?$AA?$AA@ 10052638     LIBCMT:winapinls.obj
 0002:00010644       ??_C@_1M@KJDONENM@?$AAa?$AAr?$AA?9?$AAs?$AAa?$AA?$AA@ 10052644     LIBCMT:winapinls.obj
 0002:00010650       ??_C@_1M@DMJDKLKM@?$AAa?$AAr?$AA?9?$AAs?$AAy?$AA?$AA@ 10052650     LIBCMT:winapinls.obj
 0002:0001065c       ??_C@_1M@OMFIPEDC@?$AAa?$AAr?$AA?9?$AAt?$AAn?$AA?$AA@ 1005265c     LIBCMT:winapinls.obj
 0002:00010668       ??_C@_1M@IHMHGAON@?$AAa?$AAr?$AA?9?$AAy?$AAe?$AA?$AA@ 10052668     LIBCMT:winapinls.obj
 0002:00010674       ??_C@_1BG@KDCPGJGB@?$AAa?$AAz?$AA?9?$AAa?$AAz?$AA?9?$AAc?$AAy?$AAr?$AAl?$AA?$AA@ 10052674     LIBCMT:winapinls.obj
 0002:0001068c       ??_C@_1BG@IBCKDDOE@?$AAa?$AAz?$AA?9?$AAa?$AAz?$AA?9?$AAl?$AAa?$AAt?$AAn?$AA?$AA@ 1005268c     LIBCMT:winapinls.obj
 0002:000106a4       ??_C@_1M@EGPFDCPD@?$AAb?$AAe?$AA?9?$AAb?$AAy?$AA?$AA@ 100526a4     LIBCMT:winapinls.obj
 0002:000106b0       ??_C@_1M@PCMGMCGC@?$AAb?$AAg?$AA?9?$AAb?$AAg?$AA?$AA@ 100526b0     LIBCMT:winapinls.obj
 0002:000106bc       ??_C@_1M@BJBMFGOB@?$AAb?$AAn?$AA?9?$AAi?$AAn?$AA?$AA@ 100526bc     LIBCMT:winapinls.obj
 0002:000106c8       ??_C@_1BG@EAKMMACD@?$AAb?$AAs?$AA?9?$AAb?$AAa?$AA?9?$AAl?$AAa?$AAt?$AAn?$AA?$AA@ 100526c8     LIBCMT:winapinls.obj
 0002:000106e0       ??_C@_1M@KGADAODK@?$AAc?$AAa?$AA?9?$AAe?$AAs?$AA?$AA@ 100526e0     LIBCMT:winapinls.obj
 0002:000106ec       ??_C@_1M@COAJPDHI@?$AAc?$AAs?$AA?9?$AAc?$AAz?$AA?$AA@ 100526ec     LIBCMT:winapinls.obj
 0002:000106f8       ??_C@_1M@DHBHFONH@?$AAc?$AAy?$AA?9?$AAg?$AAb?$AA?$AA@ 100526f8     LIBCMT:winapinls.obj
 0002:00010704       ??_C@_1M@IMGKELGA@?$AAd?$AAa?$AA?9?$AAd?$AAk?$AA?$AA@ 10052704     LIBCMT:winapinls.obj
 0002:00010710       ??_C@_1M@NNDGDNGA@?$AAd?$AAe?$AA?9?$AAa?$AAt?$AA?$AA@ 10052710     LIBCMT:winapinls.obj
 0002:0001071c       ??_C@_1M@IKDBHEEM@?$AAd?$AAe?$AA?9?$AAc?$AAh?$AA?$AA@ 1005271c     LIBCMT:winapinls.obj
 0002:00010728       ??_C@_1M@GFFOJMCJ@?$AAd?$AAe?$AA?9?$AAd?$AAe?$AA?$AA@ 10052728     LIBCMT:winapinls.obj
 0002:00010734       ??_C@_1M@MDNLKBPM@?$AAd?$AAe?$AA?9?$AAl?$AAi?$AA?$AA@ 10052734     LIBCMT:winapinls.obj
 0002:00010740       ??_C@_1M@NJBEEJNL@?$AAd?$AAe?$AA?9?$AAl?$AAu?$AA?$AA@ 10052740     LIBCMT:winapinls.obj
 0002:0001074c       ??_C@_1O@GNNELBAP@?$AAd?$AAi?$AAv?$AA?9?$AAm?$AAv?$AA?$AA@ 1005274c     LIBCMT:winapinls.obj
 0002:0001075c       ??_C@_1M@EJLEOGAE@?$AAe?$AAl?$AA?9?$AAg?$AAr?$AA?$AA@ 1005275c     LIBCMT:winapinls.obj
 0002:00010768       ??_C@_1M@GMPONJN@?$AAe?$AAn?$AA?9?$AAa?$AAu?$AA?$AA@ 10052768     LIBCMT:winapinls.obj
 0002:00010774       ??_C@_1M@NIDIIPGF@?$AAe?$AAn?$AA?9?$AAb?$AAz?$AA?$AA@ 10052774     LIBCMT:winapinls.obj
 0002:00010780       ??_C@_1M@JEHMIMFO@?$AAe?$AAn?$AA?9?$AAc?$AAa?$AA?$AA@ 10052780     LIBCMT:winapinls.obj
 0002:0001078c       ??_C@_1M@IGMJCDLA@?$AAe?$AAn?$AA?9?$AAc?$AAb?$AA?$AA@ 1005278c     LIBCMT:winapinls.obj
 0002:00010798       ??_C@_1M@BNFIGBKG@?$AAe?$AAn?$AA?9?$AAg?$AAb?$AA?$AA@ 10052798     LIBCMT:winapinls.obj
 0002:000107a4       ??_C@_1M@LKIFDIGP@?$AAe?$AAn?$AA?9?$AAi?$AAe?$AA?$AA@ 100527a4     LIBCMT:winapinls.obj
 0002:000107b0       ??_C@_1M@PJKFGCCO@?$AAe?$AAn?$AA?9?$AAj?$AAm?$AA?$AA@ 100527b0     LIBCMT:winapinls.obj
 0002:000107bc       ??_C@_1M@KPPKEPBO@?$AAe?$AAn?$AA?9?$AAn?$AAz?$AA?$AA@ 100527bc     LIBCMT:winapinls.obj
 0002:000107c8       ??_C@_1M@GMDGLDOB@?$AAe?$AAn?$AA?9?$AAp?$AAh?$AA?$AA@ 100527c8     LIBCMT:winapinls.obj
 0002:000107d4       ??_C@_1M@ONGIBJNA@?$AAe?$AAn?$AA?9?$AAt?$AAt?$AA?$AA@ 100527d4     LIBCMT:winapinls.obj
 0002:000107e0       ??_C@_1M@LLODPCMM@?$AAe?$AAn?$AA?9?$AAu?$AAs?$AA?$AA@ 100527e0     LIBCMT:winapinls.obj
 0002:000107ec       ??_C@_1M@LAKFNPAN@?$AAe?$AAn?$AA?9?$AAz?$AAa?$AA?$AA@ 100527ec     LIBCMT:winapinls.obj
 0002:000107f8       ??_C@_1M@MFNHNHEO@?$AAe?$AAn?$AA?9?$AAz?$AAw?$AA?$AA@ 100527f8     LIBCMT:winapinls.obj
 0002:00010804       ??_C@_1M@EJEINPHM@?$AAe?$AAs?$AA?9?$AAa?$AAr?$AA?$AA@ 10052804     LIBCMT:winapinls.obj
 0002:00010810       ??_C@_1M@GNKPCCJA@?$AAe?$AAs?$AA?9?$AAb?$AAo?$AA?$AA@ 10052810     LIBCMT:winapinls.obj
 0002:0001081c       ??_C@_1M@LEEGFONL@?$AAe?$AAs?$AA?9?$AAc?$AAl?$AA?$AA@ 1005281c     LIBCMT:winapinls.obj
 0002:00010828       ??_C@_1M@KGPDPBDF@?$AAe?$AAs?$AA?9?$AAc?$AAo?$AA?$AA@ 10052828     LIBCMT:winapinls.obj
 0002:00010834       ??_C@_1M@EIAHOHH@?$AAe?$AAs?$AA?9?$AAc?$AAr?$AA?$AA@ 10052834     LIBCMT:winapinls.obj
 0002:00010840       ??_C@_1M@LLPGMBIN@?$AAe?$AAs?$AA?9?$AAd?$AAo?$AA?$AA@ 10052840     LIBCMT:winapinls.obj
 0002:0001084c       ??_C@_1M@DKHMKNJA@?$AAe?$AAs?$AA?9?$AAe?$AAc?$AA?$AA@ 1005284c     LIBCMT:winapinls.obj
 0002:00010858       ??_C@_1M@GKGFPKAP@?$AAe?$AAs?$AA?9?$AAe?$AAs?$AA?$AA@ 10052858     LIBCMT:winapinls.obj
 0002:00010864       ??_C@_1M@LKHKGDLN@?$AAe?$AAs?$AA?9?$AAg?$AAt?$AA?$AA@ 10052864     LIBCMT:winapinls.obj
 0002:00010870       ??_C@_1M@HEIIGGJD@?$AAe?$AAs?$AA?9?$AAh?$AAn?$AA?$AA@ 10052870     LIBCMT:winapinls.obj
 0002:0001087c       ??_C@_1M@FBDHPPGD@?$AAe?$AAs?$AA?9?$AAm?$AAx?$AA?$AA@ 1005287c     LIBCMT:winapinls.obj
 0002:00010888       ??_C@_1M@DPAGLNDH@?$AAe?$AAs?$AA?9?$AAn?$AAi?$AA?$AA@ 10052888     LIBCMT:winapinls.obj
 0002:00010894       ??_C@_1M@MDGOPGDD@?$AAe?$AAs?$AA?9?$AAp?$AAa?$AA?$AA@ 10052894     LIBCMT:winapinls.obj
 0002:000108a0       ??_C@_1M@EMAMGBGE@?$AAe?$AAs?$AA?9?$AAp?$AAe?$AA?$AA@ 100528a0     LIBCMT:winapinls.obj
 0002:000108ac       ??_C@_1M@IBMCAOEC@?$AAe?$AAs?$AA?9?$AAp?$AAr?$AA?$AA@ 100528ac     LIBCMT:winapinls.obj
 0002:000108b8       ??_C@_1M@FGMDIJED@?$AAe?$AAs?$AA?9?$AAp?$AAy?$AA?$AA@ 100528b8     LIBCMT:winapinls.obj
 0002:000108c4       ??_C@_1M@IIDEOLLL@?$AAe?$AAs?$AA?9?$AAs?$AAv?$AA?$AA@ 100528c4     LIBCMT:winapinls.obj
 0002:000108d0       ??_C@_1M@GAOBIPA@?$AAe?$AAs?$AA?9?$AAu?$AAy?$AA?$AA@ 100528d0     LIBCMT:winapinls.obj
 0002:000108dc       ??_C@_1M@JKFFICHJ@?$AAe?$AAs?$AA?9?$AAv?$AAe?$AA?$AA@ 100528dc     LIBCMT:winapinls.obj
 0002:000108e8       ??_C@_1M@PNMLOJDF@?$AAe?$AAt?$AA?9?$AAe?$AAe?$AA?$AA@ 100528e8     LIBCMT:winapinls.obj
 0002:000108f4       ??_C@_1M@GHHLIKEI@?$AAe?$AAu?$AA?9?$AAe?$AAs?$AA?$AA@ 100528f4     LIBCMT:winapinls.obj
 0002:00010900       ??_C@_1M@PBNONODE@?$AAf?$AAa?$AA?9?$AAi?$AAr?$AA?$AA@ 10052900     LIBCMT:winapinls.obj
 0002:0001090c       ??_C@_1M@JEEHPMIL@?$AAf?$AAi?$AA?9?$AAf?$AAi?$AA?$AA@ 1005290c     LIBCMT:winapinls.obj
 0002:00010918       ??_C@_1M@LMDCNDBA@?$AAf?$AAo?$AA?9?$AAf?$AAo?$AA?$AA@ 10052918     LIBCMT:winapinls.obj
 0002:00010924       ??_C@_1M@JKEOHLDK@?$AAf?$AAr?$AA?9?$AAb?$AAe?$AA?$AA@ 10052924     LIBCMT:winapinls.obj
 0002:00010930       ??_C@_1M@NOHADPMI@?$AAf?$AAr?$AA?9?$AAc?$AAa?$AA?$AA@ 10052930     LIBCMT:winapinls.obj
 0002:0001093c       ??_C@_1M@KDHIHAEC@?$AAf?$AAr?$AA?9?$AAc?$AAh?$AA?$AA@ 1005293c     LIBCMT:winapinls.obj
 0002:00010948       ??_C@_1M@MMBBFGAK@?$AAf?$AAr?$AA?9?$AAf?$AAr?$AA?$AA@ 10052948     LIBCMT:winapinls.obj
 0002:00010954       ??_C@_1M@PAFNENNF@?$AAf?$AAr?$AA?9?$AAl?$AAu?$AA?$AA@ 10052954     LIBCMT:winapinls.obj
 0002:00010960       ??_C@_1M@EOHDJGDD@?$AAf?$AAr?$AA?9?$AAm?$AAc?$AA?$AA@ 10052960     LIBCMT:winapinls.obj
 0002:0001096c       ??_C@_1M@FAPLLOPF@?$AAg?$AAl?$AA?9?$AAe?$AAs?$AA?$AA@ 1005296c     LIBCMT:winapinls.obj
 0002:00010978       ??_C@_1M@FOPBFLOO@?$AAg?$AAu?$AA?9?$AAi?$AAn?$AA?$AA@ 10052978     LIBCMT:winapinls.obj
 0002:00010984       ??_C@_1M@KBMCINPM@?$AAh?$AAe?$AA?9?$AAi?$AAl?$AA?$AA@ 10052984     LIBCMT:winapinls.obj
 0002:00010990       ??_C@_1M@BBPHKFPJ@?$AAh?$AAi?$AA?9?$AAi?$AAn?$AA?$AA@ 10052990     LIBCMT:winapinls.obj
 0002:0001099c       ??_C@_1M@PMBNDPHD@?$AAh?$AAr?$AA?9?$AAb?$AAa?$AA?$AA@ 1005299c     LIBCMT:winapinls.obj
 0002:000109a8       ??_C@_1M@BPCKOEGE@?$AAh?$AAr?$AA?9?$AAh?$AAr?$AA?$AA@ 100529a8     LIBCMT:winapinls.obj
 0002:000109b4       ??_C@_1M@GACBMHKE@?$AAh?$AAu?$AA?9?$AAh?$AAu?$AA?$AA@ 100529b4     LIBCMT:winapinls.obj
 0002:000109c0       ??_C@_1M@MILPAJJC@?$AAh?$AAy?$AA?9?$AAa?$AAm?$AA?$AA@ 100529c0     LIBCMT:winapinls.obj
 0002:000109cc       ??_C@_1M@BABBICEC@?$AAi?$AAd?$AA?9?$AAi?$AAd?$AA?$AA@ 100529cc     LIBCMT:winapinls.obj
 0002:000109d8       ??_C@_1M@BIKNHHPF@?$AAi?$AAs?$AA?9?$AAi?$AAs?$AA?$AA@ 100529d8     LIBCMT:winapinls.obj
 0002:000109e4       ??_C@_1M@NMPCJPHE@?$AAi?$AAt?$AA?9?$AAc?$AAh?$AA?$AA@ 100529e4     LIBCMT:winapinls.obj
 0002:000109f0       ??_C@_1M@GHKGFEDF@?$AAi?$AAt?$AA?9?$AAi?$AAt?$AA?$AA@ 100529f0     LIBCMT:winapinls.obj
 0002:000109fc       ??_C@_1M@NIEJCJJA@?$AAj?$AAa?$AA?9?$AAj?$AAp?$AA?$AA@ 100529fc     LIBCMT:winapinls.obj
 0002:00010a08       ??_C@_1M@JILFNBIM@?$AAk?$AAa?$AA?9?$AAg?$AAe?$AA?$AA@ 10052a08     LIBCMT:winapinls.obj
 0002:00010a14       ??_C@_1M@PACPMGPH@?$AAk?$AAk?$AA?9?$AAk?$AAz?$AA?$AA@ 10052a14     LIBCMT:winapinls.obj
 0002:00010a20       ??_C@_1M@IELFGMHA@?$AAk?$AAn?$AA?9?$AAi?$AAn?$AA?$AA@ 10052a20     LIBCMT:winapinls.obj
 0002:00010a2c       ??_C@_1O@IBBJHCH@?$AAk?$AAo?$AAk?$AA?9?$AAi?$AAn?$AA?$AA@ 10052a2c     LIBCMT:winapinls.obj
 0002:00010a3c       ??_C@_1M@DMHAEOGC@?$AAk?$AAo?$AA?9?$AAk?$AAr?$AA?$AA@ 10052a3c     LIBCMT:winapinls.obj
 0002:00010a48       ??_C@_1M@HBAHBIGA@?$AAk?$AAy?$AA?9?$AAk?$AAg?$AA?$AA@ 10052a48     LIBCMT:winapinls.obj
 0002:00010a54       ??_C@_1M@KPMILCJG@?$AAl?$AAt?$AA?9?$AAl?$AAt?$AA?$AA@ 10052a54     LIBCMT:winapinls.obj
 0002:00010a60       ??_C@_1M@BDEKKCA@?$AAl?$AAv?$AA?9?$AAl?$AAv?$AA?$AA@ 10052a60     LIBCMT:winapinls.obj
 0002:00010a6c       ??_C@_1M@ELCKCCJJ@?$AAm?$AAi?$AA?9?$AAn?$AAz?$AA?$AA@ 10052a6c     LIBCMT:winapinls.obj
 0002:00010a78       ??_C@_1M@CBOOLAPA@?$AAm?$AAk?$AA?9?$AAm?$AAk?$AA?$AA@ 10052a78     LIBCMT:winapinls.obj
 0002:00010a84       ??_C@_1M@GPHNBJKN@?$AAm?$AAl?$AA?9?$AAi?$AAn?$AA?$AA@ 10052a84     LIBCMT:winapinls.obj
 0002:00010a90       ??_C@_1M@PABJILIG@?$AAm?$AAn?$AA?9?$AAm?$AAn?$AA?$AA@ 10052a90     LIBCMT:winapinls.obj
 0002:00010a9c       ??_C@_1M@FGBKKIPG@?$AAm?$AAr?$AA?9?$AAi?$AAn?$AA?$AA@ 10052a9c     LIBCMT:winapinls.obj
 0002:00010aa8       ??_C@_1M@NDBPDDAL@?$AAm?$AAs?$AA?9?$AAb?$AAn?$AA?$AA@ 10052aa8     LIBCMT:winapinls.obj
 0002:00010ab4       ??_C@_1M@OPIHOOPI@?$AAm?$AAs?$AA?9?$AAm?$AAy?$AA?$AA@ 10052ab4     LIBCMT:winapinls.obj
 0002:00010ac0       ??_C@_1M@PPDBCNFM@?$AAm?$AAt?$AA?9?$AAm?$AAt?$AA?$AA@ 10052ac0     LIBCMT:winapinls.obj
 0002:00010acc       ??_C@_1M@KDJDKMDD@?$AAn?$AAb?$AA?9?$AAn?$AAo?$AA?$AA@ 10052acc     LIBCMT:winapinls.obj
 0002:00010ad8       ??_C@_1M@KFCFLMJP@?$AAn?$AAl?$AA?9?$AAb?$AAe?$AA?$AA@ 10052ad8     LIBCMT:winapinls.obj
 0002:00010ae4       ??_C@_1M@KPOPDDGO@?$AAn?$AAl?$AA?9?$AAn?$AAl?$AA?$AA@ 10052ae4     LIBCMT:winapinls.obj
 0002:00010af0       ??_C@_1M@LJKPEMLN@?$AAn?$AAn?$AA?9?$AAn?$AAo?$AA?$AA@ 10052af0     LIBCMT:winapinls.obj
 0002:00010afc       ??_C@_1M@BDGHHBFL@?$AAn?$AAs?$AA?9?$AAz?$AAa?$AA?$AA@ 10052afc     LIBCMT:winapinls.obj
 0002:00010b08       ??_C@_1M@IDEHOAP@?$AAp?$AAa?$AA?9?$AAi?$AAn?$AA?$AA@ 10052b08     LIBCMT:winapinls.obj
 0002:00010b14       ??_C@_1M@HDBKGOGH@?$AAp?$AAl?$AA?9?$AAp?$AAl?$AA?$AA@ 10052b14     LIBCMT:winapinls.obj
 0002:00010b20       ??_C@_1M@LJLLCMEH@?$AAp?$AAt?$AA?9?$AAb?$AAr?$AA?$AA@ 10052b20     LIBCMT:winapinls.obj
 0002:00010b2c       ??_C@_1M@NCMONAAL@?$AAp?$AAt?$AA?9?$AAp?$AAt?$AA?$AA@ 10052b2c     LIBCMT:winapinls.obj
 0002:00010b38       ??_C@_1O@EAKMAJDN@?$AAq?$AAu?$AAz?$AA?9?$AAb?$AAo?$AA?$AA@ 10052b38     LIBCMT:winapinls.obj
 0002:00010b48       ??_C@_1O@BHHPIGDN@?$AAq?$AAu?$AAz?$AA?9?$AAe?$AAc?$AA?$AA@ 10052b48     LIBCMT:winapinls.obj
 0002:00010b58       ??_C@_1O@GBAPEKMJ@?$AAq?$AAu?$AAz?$AA?9?$AAp?$AAe?$AA?$AA@ 10052b58     LIBCMT:winapinls.obj
 0002:00010b68       ??_C@_1M@CLGLEFBO@?$AAr?$AAo?$AA?9?$AAr?$AAo?$AA?$AA@ 10052b68     LIBCMT:winapinls.obj
 0002:00010b74       ??_C@_1M@CEEDODME@?$AAr?$AAu?$AA?9?$AAr?$AAu?$AA?$AA@ 10052b74     LIBCMT:winapinls.obj
 0002:00010b80       ??_C@_1M@HPKKKMPP@?$AAs?$AAa?$AA?9?$AAi?$AAn?$AA?$AA@ 10052b80     LIBCMT:winapinls.obj
 0002:00010b8c       ??_C@_1M@BKMAIGOJ@?$AAs?$AAe?$AA?9?$AAf?$AAi?$AA?$AA@ 10052b8c     LIBCMT:winapinls.obj
 0002:00010b98       ??_C@_1M@NDPIFLFI@?$AAs?$AAe?$AA?9?$AAn?$AAo?$AA?$AA@ 10052b98     LIBCMT:winapinls.obj
 0002:00010ba4       ??_C@_1M@DANKKHJ@?$AAs?$AAe?$AA?9?$AAs?$AAe?$AA?$AA@ 10052ba4     LIBCMT:winapinls.obj
 0002:00010bb0       ??_C@_1M@PNBLONPJ@?$AAs?$AAk?$AA?9?$AAs?$AAk?$AA?$AA@ 10052bb0     LIBCMT:winapinls.obj
 0002:00010bbc       ??_C@_1M@LFMODOAL@?$AAs?$AAl?$AA?9?$AAs?$AAi?$AA?$AA@ 10052bbc     LIBCMT:winapinls.obj
 0002:00010bc8       ??_C@_1O@DFKOMPG@?$AAs?$AAm?$AAa?$AA?9?$AAn?$AAo?$AA?$AA@ 10052bc8     LIBCMT:winapinls.obj
 0002:00010bd8       ??_C@_1O@NDKPBNNH@?$AAs?$AAm?$AAa?$AA?9?$AAs?$AAe?$AA?$AA@ 10052bd8     LIBCMT:winapinls.obj
 0002:00010be8       ??_C@_1O@PLLKBHAB@?$AAs?$AAm?$AAj?$AA?9?$AAn?$AAo?$AA?$AA@ 10052be8     LIBCMT:winapinls.obj
 0002:00010bf8       ??_C@_1O@CLEPOGCA@?$AAs?$AAm?$AAj?$AA?9?$AAs?$AAe?$AA?$AA@ 10052bf8     LIBCMT:winapinls.obj
 0002:00010c08       ??_C@_1O@DLGJGKMK@?$AAs?$AAm?$AAn?$AA?9?$AAf?$AAi?$AA?$AA@ 10052c08     LIBCMT:winapinls.obj
 0002:00010c18       ??_C@_1O@OJDJGAJC@?$AAs?$AAm?$AAs?$AA?9?$AAf?$AAi?$AA?$AA@ 10052c18     LIBCMT:winapinls.obj
 0002:00010c28       ??_C@_1M@BOFOGHPB@?$AAs?$AAq?$AA?9?$AAa?$AAl?$AA?$AA@ 10052c28     LIBCMT:winapinls.obj
 0002:00010c34       ??_C@_1BG@LJBBIPGB@?$AAs?$AAr?$AA?9?$AAb?$AAa?$AA?9?$AAc?$AAy?$AAr?$AAl?$AA?$AA@ 10052c34     LIBCMT:winapinls.obj
 0002:00010c4c       ??_C@_1BG@JLBENFOE@?$AAs?$AAr?$AA?9?$AAb?$AAa?$AA?9?$AAl?$AAa?$AAt?$AAn?$AA?$AA@ 10052c4c     LIBCMT:winapinls.obj
 0002:00010c64       ??_C@_1BG@KODPNHE@?$AAs?$AAr?$AA?9?$AAs?$AAp?$AA?9?$AAc?$AAy?$AAr?$AAl?$AA?$AA@ 10052c64     LIBCMT:winapinls.obj
 0002:00010c7c       ??_C@_1BG@CIOGKHPB@?$AAs?$AAr?$AA?9?$AAs?$AAp?$AA?9?$AAl?$AAa?$AAt?$AAn?$AA?$AA@ 10052c7c     LIBCMT:winapinls.obj
 0002:00010c94       ??_C@_1M@NGFJLMAC@?$AAs?$AAv?$AA?9?$AAf?$AAi?$AA?$AA@ 10052c94     LIBCMT:winapinls.obj
 0002:00010ca0       ??_C@_1M@MPJEJAJC@?$AAs?$AAv?$AA?9?$AAs?$AAe?$AA?$AA@ 10052ca0     LIBCMT:winapinls.obj
 0002:00010cac       ??_C@_1M@MPNDHLFK@?$AAs?$AAw?$AA?9?$AAk?$AAe?$AA?$AA@ 10052cac     LIBCMT:winapinls.obj
 0002:00010cb8       ??_C@_1O@KOHBJJI@?$AAs?$AAy?$AAr?$AA?9?$AAs?$AAy?$AA?$AA@ 10052cb8     LIBCMT:winapinls.obj
 0002:00010cc8       ??_C@_1M@LDCEFHA@?$AAt?$AAa?$AA?9?$AAi?$AAn?$AA?$AA@ 10052cc8     LIBCMT:winapinls.obj
 0002:00010cd4       ??_C@_1M@CNJOFAK@?$AAt?$AAe?$AA?9?$AAi?$AAn?$AA?$AA@ 10052cd4     LIBCMT:winapinls.obj
 0002:00010ce0       ??_C@_1M@GNAECACD@?$AAt?$AAh?$AA?9?$AAt?$AAh?$AA?$AA@ 10052ce0     LIBCMT:winapinls.obj
 0002:00010cec       ??_C@_1M@CHBIHOJO@?$AAt?$AAn?$AA?9?$AAz?$AAa?$AA?$AA@ 10052cec     LIBCMT:winapinls.obj
 0002:00010cf8       ??_C@_1M@GCCMIGPJ@?$AAt?$AAr?$AA?9?$AAt?$AAr?$AA?$AA@ 10052cf8     LIBCMT:winapinls.obj
 0002:00010d04       ??_C@_1M@CELMCNBK@?$AAt?$AAt?$AA?9?$AAr?$AAu?$AA?$AA@ 10052d04     LIBCMT:winapinls.obj
 0002:00010d10       ??_C@_1M@KLMCELGA@?$AAu?$AAk?$AA?9?$AAu?$AAa?$AA?$AA@ 10052d10     LIBCMT:winapinls.obj
 0002:00010d1c       ??_C@_1M@EPAJJAJF@?$AAu?$AAr?$AA?9?$AAp?$AAk?$AA?$AA@ 10052d1c     LIBCMT:winapinls.obj
 0002:00010d28       ??_C@_1BG@GEGPMCDJ@?$AAu?$AAz?$AA?9?$AAu?$AAz?$AA?9?$AAc?$AAy?$AAr?$AAl?$AA?$AA@ 10052d28     LIBCMT:winapinls.obj
 0002:00010d40       ??_C@_1BG@EGGKJILM@?$AAu?$AAz?$AA?9?$AAu?$AAz?$AA?9?$AAl?$AAa?$AAt?$AAn?$AA?$AA@ 10052d40     LIBCMT:winapinls.obj
 0002:00010d58       ??_C@_1M@GFOCLFF@?$AAv?$AAi?$AA?9?$AAv?$AAn?$AA?$AA@ 10052d58     LIBCMT:winapinls.obj
 0002:00010d64       ??_C@_1M@CPAMEDFI@?$AAx?$AAh?$AA?9?$AAz?$AAa?$AA?$AA@ 10052d64     LIBCMT:winapinls.obj
 0002:00010d70       ??_C@_1O@EBKIFIGN@?$AAz?$AAh?$AA?9?$AAc?$AAh?$AAs?$AA?$AA@ 10052d70     LIBCMT:winapinls.obj
 0002:00010d80       ??_C@_1O@NMHPGANE@?$AAz?$AAh?$AA?9?$AAc?$AAh?$AAt?$AA?$AA@ 10052d80     LIBCMT:winapinls.obj
 0002:00010d90       ??_C@_1M@LPINJOMC@?$AAz?$AAh?$AA?9?$AAc?$AAn?$AA?$AA@ 10052d90     LIBCMT:winapinls.obj
 0002:00010d9c       ??_C@_1M@OCJEJODD@?$AAz?$AAh?$AA?9?$AAh?$AAk?$AA?$AA@ 10052d9c     LIBCMT:winapinls.obj
 0002:00010da8       ??_C@_1M@DNDLJINH@?$AAz?$AAh?$AA?9?$AAm?$AAo?$AA?$AA@ 10052da8     LIBCMT:winapinls.obj
 0002:00010db4       ??_C@_1M@MBFDNDND@?$AAz?$AAh?$AA?9?$AAs?$AAg?$AA?$AA@ 10052db4     LIBCMT:winapinls.obj
 0002:00010dc0       ??_C@_1M@IMEPLEPE@?$AAz?$AAh?$AA?9?$AAt?$AAw?$AA?$AA@ 10052dc0     LIBCMT:winapinls.obj
 0002:00010dcc       ??_C@_1M@BBGHNHJP@?$AAz?$AAu?$AA?9?$AAz?$AAa?$AA?$AA@ 10052dcc     LIBCMT:winapinls.obj
 0002:00010dd8       ___newctype                10052dd8     LIBCMT:ctype.obj
 0002:000110d8       __wctype                   100530d8     LIBCMT:ctype.obj
 0002:000112e0       ___newclmap                100532e0     LIBCMT:ctype.obj
 0002:00011460       ___newcumap                10053460     LIBCMT:ctype.obj
 0002:000115e0       ___lc_category             100535e0     LIBCMT:wsetloca.obj
 0002:00011628       ??_C@_1O@GIFLHMA@?$AAL?$AAC?$AA_?$AAA?$AAL?$AAL?$AA?$AA@ 10053628     LIBCMT:wsetloca.obj
 0002:00011638       ??_C@_1BG@PPOMIBNJ@?$AAL?$AAC?$AA_?$AAC?$AAO?$AAL?$AAL?$AAA?$AAT?$AAE?$AA?$AA@ 10053638     LIBCMT:wsetloca.obj
 0002:00011650       ??_C@_1BC@FFJGAPJM@?$AAL?$AAC?$AA_?$AAC?$AAT?$AAY?$AAP?$AAE?$AA?$AA@ 10053650     LIBCMT:wsetloca.obj
 0002:00011664       ??_C@_1BI@PCKFNJFB@?$AAL?$AAC?$AA_?$AAM?$AAO?$AAN?$AAE?$AAT?$AAA?$AAR?$AAY?$AA?$AA@ 10053664     LIBCMT:wsetloca.obj
 0002:0001167c       ??_C@_1BG@ENIEDKID@?$AAL?$AAC?$AA_?$AAN?$AAU?$AAM?$AAE?$AAR?$AAI?$AAC?$AA?$AA@ 1005367c     LIBCMT:wsetloca.obj
 0002:00011694       ??_C@_1BA@HAAOMIIG@?$AAL?$AAC?$AA_?$AAT?$AAI?$AAM?$AAE?$AA?$AA@ 10053694     LIBCMT:wsetloca.obj
 0002:00011728       ??_C@_15NBPDDFIP@?$AA?$DN?$AA?$DL?$AA?$AA@ 10053728     LIBCMT:wsetloca.obj
 0002:00011730       ??_C@_13PJJBFPED@?$AA?$DL?$AA?$AA@ 10053730     LIBCMT:wsetloca.obj
 0002:00011734       ??_C@_13NMPKAAJP@?$AA?$DN?$AA?$AA@ 10053734     LIBCMT:wsetloca.obj
 0002:00011738       ??_C@_13FHBKNHDA@?$AAC?$AA?$AA@ 10053738     LIBCMT:wsetloca.obj
 0002:0001173c       ??_C@_17MBJJLFDM@?$AA_?$AA?4?$AA?0?$AA?$AA@ 1005373c     LIBCMT:wsetloca.obj
 0002:00011744       ??_C@_13ENNFDPBH@?$AA_?$AA?$AA@ 10053744     LIBCMT:wsetloca.obj
 0002:00011748       ??_C@_13JOFGPIOO@?$AA?4?$AA?$AA@ 10053748     LIBCMT:wsetloca.obj
 0002:0001174c       ??_C@_06PGGFOGJG@1?$CDSNAN?$AA@ 1005374c     LIBCMT:x10fout.obj
 0002:00011754       ??_C@_05PHHOCPM@1?$CDIND?$AA@ 10053754     LIBCMT:x10fout.obj
 0002:0001175c       ??_C@_05DNEBIAHO@1?$CDINF?$AA@ 1005375c     LIBCMT:x10fout.obj
 0002:00011764       ??_C@_06IMKFLFPG@1?$CDQNAN?$AA@ 10053764     LIBCMT:x10fout.obj
 0002:0001176c       ??_C@_0M@HHGEPIBF@CreateFile2?$AA@ 1005376c     LIBCMT:wopen.obj
 0002:00011778       ??_C@_1BA@BALFACEM@?$AAC?$AAO?$AAN?$AAO?$AAU?$AAT?$AA$?$AA?$AA@ 10053778     LIBCMT:initcon.obj
 0002:00011788       ___rg_language             10053788     LIBCMT:getqloc.obj
 0002:00011a94       ??_C@_1BC@LLOKLNP@?$AAa?$AAm?$AAe?$AAr?$AAi?$AAc?$AAa?$AAn?$AA?$AA@ 10053a94     LIBCMT:getqloc.obj
 0002:00011aa8       ??_C@_1CC@HEIGCDGG@?$AAa?$AAm?$AAe?$AAr?$AAi?$AAc?$AAa?$AAn?$AA?5?$AAe?$AAn?$AAg?$AAl?$AAi?$AAs?$AAh?$AA?$AA@ 10053aa8     LIBCMT:getqloc.obj
 0002:00011acc       ??_C@_1CC@IHCNOMIN@?$AAa?$AAm?$AAe?$AAr?$AAi?$AAc?$AAa?$AAn?$AA?9?$AAe?$AAn?$AAg?$AAl?$AAi?$AAs?$AAh?$AA?$AA@ 10053acc     LIBCMT:getqloc.obj
 0002:00011af0       ??_C@_1BG@GKAGPCGG@?$AAa?$AAu?$AAs?$AAt?$AAr?$AAa?$AAl?$AAi?$AAa?$AAn?$AA?$AA@ 10053af0     LIBCMT:getqloc.obj
 0002:00011b08       ??_C@_1BA@GMENCENF@?$AAb?$AAe?$AAl?$AAg?$AAi?$AAa?$AAn?$AA?$AA@ 10053b08     LIBCMT:getqloc.obj
 0002:00011b18       ??_C@_1BC@PJMIIAAN@?$AAc?$AAa?$AAn?$AAa?$AAd?$AAi?$AAa?$AAn?$AA?$AA@ 10053b18     LIBCMT:getqloc.obj
 0002:00011b2c       ??_C@_17NOIMNFBF@?$AAc?$AAh?$AAh?$AA?$AA@ 10053b2c     LIBCMT:getqloc.obj
 0002:00011b34       ??_C@_17GGDALCHA@?$AAc?$AAh?$AAi?$AA?$AA@ 10053b34     LIBCMT:getqloc.obj
 0002:00011b3c       ??_C@_1BA@NPNJKIBL@?$AAc?$AAh?$AAi?$AAn?$AAe?$AAs?$AAe?$AA?$AA@ 10053b3c     LIBCMT:getqloc.obj
 0002:00011b4c       ??_C@_1CC@DINBAMMJ@?$AAc?$AAh?$AAi?$AAn?$AAe?$AAs?$AAe?$AA?9?$AAh?$AAo?$AAn?$AAg?$AAk?$AAo?$AAn?$AAg?$AA?$AA@ 10053b4c     LIBCMT:getqloc.obj
 0002:00011b70       ??_C@_1CG@IOBJPACO@?$AAc?$AAh?$AAi?$AAn?$AAe?$AAs?$AAe?$AA?9?$AAs?$AAi?$AAm?$AAp?$AAl?$AAi?$AAf?$AAi?$AAe?$AAd?$AA?$AA@ 10053b70     LIBCMT:getqloc.obj
 0002:00011b98       ??_C@_1CE@GAJNDCKG@?$AAc?$AAh?$AAi?$AAn?$AAe?$AAs?$AAe?$AA?9?$AAs?$AAi?$AAn?$AAg?$AAa?$AAp?$AAo?$AAr?$AAe?$AA?$AA@ 10053b98     LIBCMT:getqloc.obj
 0002:00011bbc       ??_C@_1CI@PAJPIOOD@?$AAc?$AAh?$AAi?$AAn?$AAe?$AAs?$AAe?$AA?9?$AAt?$AAr?$AAa?$AAd?$AAi?$AAt?$AAi?$AAo?$AAn?$AAa?$AAl?$AA?$AA@ 10053bbc     LIBCMT:getqloc.obj
 0002:00011be4       ??_C@_1BM@NILJBMMD@?$AAd?$AAu?$AAt?$AAc?$AAh?$AA?9?$AAb?$AAe?$AAl?$AAg?$AAi?$AAa?$AAn?$AA?$AA@ 10053be4     LIBCMT:getqloc.obj
 0002:00011c00       ??_C@_1CC@OOJPJNEJ@?$AAe?$AAn?$AAg?$AAl?$AAi?$AAs?$AAh?$AA?9?$AAa?$AAm?$AAe?$AAr?$AAi?$AAc?$AAa?$AAn?$AA?$AA@ 10053c00     LIBCMT:getqloc.obj
 0002:00011c24       ??_C@_1BI@IOLFEEM@?$AAe?$AAn?$AAg?$AAl?$AAi?$AAs?$AAh?$AA?9?$AAa?$AAu?$AAs?$AA?$AA@ 10053c24     LIBCMT:getqloc.obj
 0002:00011c3c       ??_C@_1BO@HFFNLENJ@?$AAe?$AAn?$AAg?$AAl?$AAi?$AAs?$AAh?$AA?9?$AAb?$AAe?$AAl?$AAi?$AAz?$AAe?$AA?$AA@ 10053c3c     LIBCMT:getqloc.obj
 0002:00011c5c       ??_C@_1BI@HAPKJMPO@?$AAe?$AAn?$AAg?$AAl?$AAi?$AAs?$AAh?$AA?9?$AAc?$AAa?$AAn?$AA?$AA@ 10053c5c     LIBCMT:getqloc.obj
 0002:00011c74       ??_C@_1CE@HLNDMIOJ@?$AAe?$AAn?$AAg?$AAl?$AAi?$AAs?$AAh?$AA?9?$AAc?$AAa?$AAr?$AAi?$AAb?$AAb?$AAe?$AAa?$AAn?$AA?$AA@ 10053c74     LIBCMT:getqloc.obj
 0002:00011c98       ??_C@_1BI@LDHJHHAC@?$AAe?$AAn?$AAg?$AAl?$AAi?$AAs?$AAh?$AA?9?$AAi?$AAr?$AAe?$AA?$AA@ 10053c98     LIBCMT:getqloc.obj
 0002:00011cb0       ??_C@_1CA@NJMMCFOC@?$AAe?$AAn?$AAg?$AAl?$AAi?$AAs?$AAh?$AA?9?$AAj?$AAa?$AAm?$AAa?$AAi?$AAc?$AAa?$AA?$AA@ 10053cb0     LIBCMT:getqloc.obj
 0002:00011cd0       ??_C@_1BG@BHJEBBGG@?$AAe?$AAn?$AAg?$AAl?$AAi?$AAs?$AAh?$AA?9?$AAn?$AAz?$AA?$AA@ 10053cd0     LIBCMT:getqloc.obj
 0002:00011ce8       ??_C@_1CK@FGOEJJCO@?$AAe?$AAn?$AAg?$AAl?$AAi?$AAs?$AAh?$AA?9?$AAs?$AAo?$AAu?$AAt?$AAh?$AA?5?$AAa?$AAf?$AAr?$AAi?$AAc?$AAa?$AA?$AA@ 10053ce8     LIBCMT:getqloc.obj
 0002:00011d14       ??_C@_1DE@PDBJPCJ@?$AAe?$AAn?$AAg?$AAl?$AAi?$AAs?$AAh?$AA?9?$AAt?$AAr?$AAi?$AAn?$AAi?$AAd?$AAa?$AAd?$AA?5?$AAy?$AA?5?$AAt?$AAo?$AAb?$AAa?$AAg?$AAo?$AA?$AA@ 10053d14     LIBCMT:getqloc.obj
 0002:00011d48       ??_C@_1BG@JGCANDME@?$AAe?$AAn?$AAg?$AAl?$AAi?$AAs?$AAh?$AA?9?$AAu?$AAk?$AA?$AA@ 10053d48     LIBCMT:getqloc.obj
 0002:00011d60       ??_C@_1BG@DINKMLE@?$AAe?$AAn?$AAg?$AAl?$AAi?$AAs?$AAh?$AA?9?$AAu?$AAs?$AA?$AA@ 10053d60     LIBCMT:getqloc.obj
 0002:00011d78       ??_C@_1BI@NMFDBHJE@?$AAe?$AAn?$AAg?$AAl?$AAi?$AAs?$AAh?$AA?9?$AAu?$AAs?$AAa?$AA?$AA@ 10053d78     LIBCMT:getqloc.obj
 0002:00011d90       ??_C@_1BO@OIHKJKII@?$AAf?$AAr?$AAe?$AAn?$AAc?$AAh?$AA?9?$AAb?$AAe?$AAl?$AAg?$AAi?$AAa?$AAn?$AA?$AA@ 10053d90     LIBCMT:getqloc.obj
 0002:00011db0       ??_C@_1CA@NKAELJKI@?$AAf?$AAr?$AAe?$AAn?$AAc?$AAh?$AA?9?$AAc?$AAa?$AAn?$AAa?$AAd?$AAi?$AAa?$AAn?$AA?$AA@ 10053db0     LIBCMT:getqloc.obj
 0002:00011dd0       ??_C@_1CE@MGKCNLGN@?$AAf?$AAr?$AAe?$AAn?$AAc?$AAh?$AA?9?$AAl?$AAu?$AAx?$AAe?$AAm?$AAb?$AAo?$AAu?$AAr?$AAg?$AA?$AA@ 10053dd0     LIBCMT:getqloc.obj
 0002:00011df4       ??_C@_1BK@CEGEAILM@?$AAf?$AAr?$AAe?$AAn?$AAc?$AAh?$AA?9?$AAs?$AAw?$AAi?$AAs?$AAs?$AA?$AA@ 10053df4     LIBCMT:getqloc.obj
 0002:00011e10       ??_C@_1CA@PAFKEOCC@?$AAg?$AAe?$AAr?$AAm?$AAa?$AAn?$AA?9?$AAa?$AAu?$AAs?$AAt?$AAr?$AAi?$AAa?$AAn?$AA?$AA@ 10053e10     LIBCMT:getqloc.obj
 0002:00011e30       ??_C@_1CI@HCFHGOFD@?$AAg?$AAe?$AAr?$AAm?$AAa?$AAn?$AA?9?$AAl?$AAi?$AAc?$AAh?$AAt?$AAe?$AAn?$AAs?$AAt?$AAe?$AAi?$AAn?$AA?$AA@ 10053e30     LIBCMT:getqloc.obj
 0002:00011e58       ??_C@_1CE@FEDDNPDG@?$AAg?$AAe?$AAr?$AAm?$AAa?$AAn?$AA?9?$AAl?$AAu?$AAx?$AAe?$AAm?$AAb?$AAo?$AAu?$AAr?$AAg?$AA?$AA@ 10053e58     LIBCMT:getqloc.obj
 0002:00011e7c       ??_C@_1BK@LIMINNMN@?$AAg?$AAe?$AAr?$AAm?$AAa?$AAn?$AA?9?$AAs?$AAw?$AAi?$AAs?$AAs?$AA?$AA@ 10053e7c     LIBCMT:getqloc.obj
 0002:00011e98       ??_C@_1BM@LGMDBEPD@?$AAi?$AAr?$AAi?$AAs?$AAh?$AA?9?$AAe?$AAn?$AAg?$AAl?$AAi?$AAs?$AAh?$AA?$AA@ 10053e98     LIBCMT:getqloc.obj
 0002:00011eb4       ??_C@_1BM@NNCFBAEE@?$AAi?$AAt?$AAa?$AAl?$AAi?$AAa?$AAn?$AA?9?$AAs?$AAw?$AAi?$AAs?$AAs?$AA?$AA@ 10053eb4     LIBCMT:getqloc.obj
 0002:00011ed0       ??_C@_1BE@FEDJNPIB@?$AAn?$AAo?$AAr?$AAw?$AAe?$AAg?$AAi?$AAa?$AAn?$AA?$AA@ 10053ed0     LIBCMT:getqloc.obj
 0002:00011ee4       ??_C@_1CC@CILKDEIE@?$AAn?$AAo?$AAr?$AAw?$AAe?$AAg?$AAi?$AAa?$AAn?$AA?9?$AAb?$AAo?$AAk?$AAm?$AAa?$AAl?$AA?$AA@ 10053ee4     LIBCMT:getqloc.obj
 0002:00011f08       ??_C@_1CE@DHMMHEPL@?$AAn?$AAo?$AAr?$AAw?$AAe?$AAg?$AAi?$AAa?$AAn?$AA?9?$AAn?$AAy?$AAn?$AAo?$AAr?$AAs?$AAk?$AA?$AA@ 10053f08     LIBCMT:getqloc.obj
 0002:00011f2c       ??_C@_1CK@OPNMHECD@?$AAp?$AAo?$AAr?$AAt?$AAu?$AAg?$AAu?$AAe?$AAs?$AAe?$AA?9?$AAb?$AAr?$AAa?$AAz?$AAi?$AAl?$AAi?$AAa?$AAn?$AA?$AA@ 10053f2c     LIBCMT:getqloc.obj
 0002:00011f58       ??_C@_1CE@KEEHCDB@?$AAs?$AAp?$AAa?$AAn?$AAi?$AAs?$AAh?$AA?9?$AAa?$AAr?$AAg?$AAe?$AAn?$AAt?$AAi?$AAn?$AAa?$AA?$AA@ 10053f58     LIBCMT:getqloc.obj
 0002:00011f7c       ??_C@_1CA@GIAOLHJD@?$AAs?$AAp?$AAa?$AAn?$AAi?$AAs?$AAh?$AA?9?$AAb?$AAo?$AAl?$AAi?$AAv?$AAi?$AAa?$AA?$AA@ 10053f7c     LIBCMT:getqloc.obj
 0002:00011f9c       ??_C@_1BM@OJNDFNPD@?$AAs?$AAp?$AAa?$AAn?$AAi?$AAs?$AAh?$AA?9?$AAc?$AAh?$AAi?$AAl?$AAe?$AA?$AA@ 10053f9c     LIBCMT:getqloc.obj
 0002:00011fb8       ??_C@_1CC@OCOLPALL@?$AAs?$AAp?$AAa?$AAn?$AAi?$AAs?$AAh?$AA?9?$AAc?$AAo?$AAl?$AAo?$AAm?$AAb?$AAi?$AAa?$AA?$AA@ 10053fb8     LIBCMT:getqloc.obj
 0002:00011fdc       ??_C@_1CG@BPOFMKBB@?$AAs?$AAp?$AAa?$AAn?$AAi?$AAs?$AAh?$AA?9?$AAc?$AAo?$AAs?$AAt?$AAa?$AA?5?$AAr?$AAi?$AAc?$AAa?$AA?$AA@ 10053fdc     LIBCMT:getqloc.obj
 0002:00012004       ??_C@_1DG@IGOBAPBB@?$AAs?$AAp?$AAa?$AAn?$AAi?$AAs?$AAh?$AA?9?$AAd?$AAo?$AAm?$AAi?$AAn?$AAi?$AAc?$AAa?$AAn?$AA?5?$AAr?$AAe?$AAp?$AAu?$AAb?$AAl?$AAi?$AAc?$AA?$AA@ 10054004     LIBCMT:getqloc.obj
 0002:0001203c       ??_C@_1CA@JHAPGEGI@?$AAs?$AAp?$AAa?$AAn?$AAi?$AAs?$AAh?$AA?9?$AAe?$AAc?$AAu?$AAa?$AAd?$AAo?$AAr?$AA?$AA@ 1005403c     LIBCMT:getqloc.obj
 0002:0001205c       ??_C@_1CI@LAPALJPP@?$AAs?$AAp?$AAa?$AAn?$AAi?$AAs?$AAh?$AA?9?$AAe?$AAl?$AA?5?$AAs?$AAa?$AAl?$AAv?$AAa?$AAd?$AAo?$AAr?$AA?$AA@ 1005405c     LIBCMT:getqloc.obj
 0002:00012084       ??_C@_1CE@PDGBOFOM@?$AAs?$AAp?$AAa?$AAn?$AAi?$AAs?$AAh?$AA?9?$AAg?$AAu?$AAa?$AAt?$AAe?$AAm?$AAa?$AAl?$AAa?$AA?$AA@ 10054084     LIBCMT:getqloc.obj
 0002:000120a8       ??_C@_1CC@NBEBAODI@?$AAs?$AAp?$AAa?$AAn?$AAi?$AAs?$AAh?$AA?9?$AAh?$AAo?$AAn?$AAd?$AAu?$AAr?$AAa?$AAs?$AA?$AA@ 100540a8     LIBCMT:getqloc.obj
 0002:000120cc       ??_C@_1CA@LLKGHBMF@?$AAs?$AAp?$AAa?$AAn?$AAi?$AAs?$AAh?$AA?9?$AAm?$AAe?$AAx?$AAi?$AAc?$AAa?$AAn?$AA?$AA@ 100540cc     LIBCMT:getqloc.obj
 0002:000120ec       ??_C@_1BO@LKNDOIGD@?$AAs?$AAp?$AAa?$AAn?$AAi?$AAs?$AAh?$AA?9?$AAm?$AAo?$AAd?$AAe?$AAr?$AAn?$AA?$AA@ 100540ec     LIBCMT:getqloc.obj
 0002:0001210c       ??_C@_1CE@NMDMOEEB@?$AAs?$AAp?$AAa?$AAn?$AAi?$AAs?$AAh?$AA?9?$AAn?$AAi?$AAc?$AAa?$AAr?$AAa?$AAg?$AAu?$AAa?$AA?$AA@ 1005410c     LIBCMT:getqloc.obj
 0002:00012130       ??_C@_1BO@LLCBEJGB@?$AAs?$AAp?$AAa?$AAn?$AAi?$AAs?$AAh?$AA?9?$AAp?$AAa?$AAn?$AAa?$AAm?$AAa?$AA?$AA@ 10054130     LIBCMT:getqloc.obj
 0002:00012150       ??_C@_1CC@FKPGGIHO@?$AAs?$AAp?$AAa?$AAn?$AAi?$AAs?$AAh?$AA?9?$AAp?$AAa?$AAr?$AAa?$AAg?$AAu?$AAa?$AAy?$AA?$AA@ 10054150     LIBCMT:getqloc.obj
 0002:00012174       ??_C@_1BK@CDEIHOOP@?$AAs?$AAp?$AAa?$AAn?$AAi?$AAs?$AAh?$AA?9?$AAp?$AAe?$AAr?$AAu?$AA?$AA@ 10054174     LIBCMT:getqloc.obj
 0002:00012190       ??_C@_1CI@GAHAKKGP@?$AAs?$AAp?$AAa?$AAn?$AAi?$AAs?$AAh?$AA?9?$AAp?$AAu?$AAe?$AAr?$AAt?$AAo?$AA?5?$AAr?$AAi?$AAc?$AAo?$AA?$AA@ 10054190     LIBCMT:getqloc.obj
 0002:000121b8       ??_C@_1CA@NKJBCAGP@?$AAs?$AAp?$AAa?$AAn?$AAi?$AAs?$AAh?$AA?9?$AAu?$AAr?$AAu?$AAg?$AAu?$AAa?$AAy?$AA?$AA@ 100541b8     LIBCMT:getqloc.obj
 0002:000121d8       ??_C@_1CE@ODILCONM@?$AAs?$AAp?$AAa?$AAn?$AAi?$AAs?$AAh?$AA?9?$AAv?$AAe?$AAn?$AAe?$AAz?$AAu?$AAe?$AAl?$AAa?$AA?$AA@ 100541d8     LIBCMT:getqloc.obj
 0002:000121fc       ??_C@_1CA@OBNMCGFO@?$AAs?$AAw?$AAe?$AAd?$AAi?$AAs?$AAh?$AA?9?$AAf?$AAi?$AAn?$AAl?$AAa?$AAn?$AAd?$AA?$AA@ 100541fc     LIBCMT:getqloc.obj
 0002:0001221c       ??_C@_1M@PIPDDPPI@?$AAs?$AAw?$AAi?$AAs?$AAs?$AA?$AA@ 1005421c     LIBCMT:getqloc.obj
 0002:00012228       ??_C@_15GMFIMNFM@?$AAu?$AAs?$AA?$AA@ 10054228     LIBCMT:getqloc.obj
 0002:00012230       ??_C@_17HAEBFAGL@?$AAu?$AAs?$AAa?$AA?$AA@ 10054230     LIBCMT:getqloc.obj
 0002:00012238       ___rg_country              10054238     LIBCMT:getqloc.obj
 0002:0001234c       ??_C@_1BA@DPFJEPHB@?$AAa?$AAm?$AAe?$AAr?$AAi?$AAc?$AAa?$AA?$AA@ 1005434c     LIBCMT:getqloc.obj
 0002:0001235c       ??_C@_1BA@ELOGGFK@?$AAb?$AAr?$AAi?$AAt?$AAa?$AAi?$AAn?$AA?$AA@ 1005435c     LIBCMT:getqloc.obj
 0002:0001236c       ??_C@_1M@GHBGIGDA@?$AAc?$AAh?$AAi?$AAn?$AAa?$AA?$AA@ 1005436c     LIBCMT:getqloc.obj
 0002:00012378       ??_C@_1M@NCHEJOPO@?$AAc?$AAz?$AAe?$AAc?$AAh?$AA?$AA@ 10054378     LIBCMT:getqloc.obj
 0002:00012384       ??_C@_1BA@BKPAPBLA@?$AAe?$AAn?$AAg?$AAl?$AAa?$AAn?$AAd?$AA?$AA@ 10054384     LIBCMT:getqloc.obj
 0002:00012394       ??_C@_1BM@HKBCKIPC@?$AAg?$AAr?$AAe?$AAa?$AAt?$AA?5?$AAb?$AAr?$AAi?$AAt?$AAa?$AAi?$AAn?$AA?$AA@ 10054394     LIBCMT:getqloc.obj
 0002:000123b0       ??_C@_1BA@PPCHPGJB@?$AAh?$AAo?$AAl?$AAl?$AAa?$AAn?$AAd?$AA?$AA@ 100543b0     LIBCMT:getqloc.obj
 0002:000123c0       ??_C@_1BE@JBMPEGDG@?$AAh?$AAo?$AAn?$AAg?$AA?9?$AAk?$AAo?$AAn?$AAg?$AA?$AA@ 100543c0     LIBCMT:getqloc.obj
 0002:000123d4       ??_C@_1BI@KOELBBPJ@?$AAn?$AAe?$AAw?$AA?9?$AAz?$AAe?$AAa?$AAl?$AAa?$AAn?$AAd?$AA?$AA@ 100543d4     LIBCMT:getqloc.obj
 0002:000123ec       ??_C@_15HIEBHAIO@?$AAn?$AAz?$AA?$AA@ 100543ec     LIBCMT:getqloc.obj
 0002:000123f4       ??_C@_1BC@CHBCPFPI@?$AAp?$AAr?$AA?5?$AAc?$AAh?$AAi?$AAn?$AAa?$AA?$AA@ 100543f4     LIBCMT:getqloc.obj
 0002:00012408       ??_C@_1BC@JAOIIFKD@?$AAp?$AAr?$AA?9?$AAc?$AAh?$AAi?$AAn?$AAa?$AA?$AA@ 10054408     LIBCMT:getqloc.obj
 0002:0001241c       ??_C@_1BI@BEHPPHKC@?$AAp?$AAu?$AAe?$AAr?$AAt?$AAo?$AA?9?$AAr?$AAi?$AAc?$AAo?$AA?$AA@ 1005441c     LIBCMT:getqloc.obj
 0002:00012434       ??_C@_1O@PAEOFKDI@?$AAs?$AAl?$AAo?$AAv?$AAa?$AAk?$AA?$AA@ 10054434     LIBCMT:getqloc.obj
 0002:00012444       ??_C@_1BK@FIHMCKAM@?$AAs?$AAo?$AAu?$AAt?$AAh?$AA?5?$AAa?$AAf?$AAr?$AAi?$AAc?$AAa?$AA?$AA@ 10054444     LIBCMT:getqloc.obj
 0002:00012460       ??_C@_1BI@NAEOODKB@?$AAs?$AAo?$AAu?$AAt?$AAh?$AA?5?$AAk?$AAo?$AAr?$AAe?$AAa?$AA?$AA@ 10054460     LIBCMT:getqloc.obj
 0002:00012478       ??_C@_1BK@FBDGGIFF@?$AAs?$AAo?$AAu?$AAt?$AAh?$AA?9?$AAa?$AAf?$AAr?$AAi?$AAc?$AAa?$AA?$AA@ 10054478     LIBCMT:getqloc.obj
 0002:00012494       ??_C@_1BI@GHLEJDPK@?$AAs?$AAo?$AAu?$AAt?$AAh?$AA?9?$AAk?$AAo?$AAr?$AAe?$AAa?$AA?$AA@ 10054494     LIBCMT:getqloc.obj
 0002:000124ac       ??_C@_1CE@PLHLOMJF@?$AAt?$AAr?$AAi?$AAn?$AAi?$AAd?$AAa?$AAd?$AA?5?$AA?$CG?$AA?5?$AAt?$AAo?$AAb?$AAa?$AAg?$AAo?$AA?$AA@ 100544ac     LIBCMT:getqloc.obj
 0002:000124d0       ??_C@_1BO@MODIMHHI@?$AAu?$AAn?$AAi?$AAt?$AAe?$AAd?$AA?9?$AAk?$AAi?$AAn?$AAg?$AAd?$AAo?$AAm?$AA?$AA@ 100544d0     LIBCMT:getqloc.obj
 0002:000124f0       ??_C@_1BM@FFHJONBJ@?$AAu?$AAn?$AAi?$AAt?$AAe?$AAd?$AA?9?$AAs?$AAt?$AAa?$AAt?$AAe?$AAs?$AA?$AA@ 100544f0     LIBCMT:getqloc.obj
 0002:0001250c       ___rg_language_count       1005450c     LIBCMT:getqloc.obj
 0002:00012510       ___rg_country_count        10054510     LIBCMT:getqloc.obj
 0002:00012514       ??_C@_17DNCLJFIF@?$AAA?$AAC?$AAP?$AA?$AA@ 10054514     LIBCMT:getqloc.obj
 0002:0001251c       ??_C@_17CIKBIHLH@?$AAO?$AAC?$AAP?$AA?$AA@ 1005451c     LIBCMT:getqloc.obj
 0002:00012524       ___rglangidNotDefault      10054524     LIBCMT:getqloc_downlevel.obj
 0002:00012538       __real@00000000            10054538     LIBCMT:wcstoq.obj
 0002:00012540       __load_config_used         10054540     LIBCMT:loadcfg.obj
 0002:00014830       ___safe_se_handler_table   10056830     <linker-defined>
 0002:00014940       ___rtc_iaa                 10056940     LIBCMT:initsect.obj
 0002:00014a44       ___rtc_izz                 10056a44     LIBCMT:initsect.obj
 0002:00014b48       ___rtc_taa                 10056b48     LIBCMT:initsect.obj
 0002:00014c4c       ___rtc_tzz                 10056c4c     LIBCMT:initsect.obj
 0003:00000560       _FingerStrokeAssistance_P  10058560     FingerStrokeAssistance_data.obj
 0003:00000ec8       _pci20041digout            10058ec8     xpctarget.obj
 0003:00000ecc       _nipcdio24cnfg             10058ecc     xpctarget.obj
 0003:00000ed0       _rtddm6604cnfg             10058ed0     xpctarget.obj
 0003:000015f8       _DefaultCOMIOBase          100595f8     xpcruntime:xpcimports.obj
 0003:00001608       _DefaultCOMIRQ             10059608     xpcruntime:xpcimports.obj
 0003:00001620       __fltused                  10059620     LIBCMT:fpinit.obj
 0003:00001624       __ldused                   10059624     LIBCMT:fpinit.obj
 0003:00001630       __iob                      10059630     LIBCMT:_file.obj
 0003:000018b0       ___isa_enabled             100598b0     LIBCMT:cpu_disp.obj
 0003:000018b4       ___security_cookie         100598b4     LIBCMT:gs_cookie.obj
 0003:000018b8       ___security_cookie_complement 100598b8     LIBCMT:gs_cookie.obj
 0003:00001a90       ___nullstring              10059a90     LIBCMT:output.obj
 0003:00001a94       ___wnullstring             10059a94     LIBCMT:output.obj
 0003:00001aa4       __cfltcvt_tab              10059aa4     LIBCMT:cmiscdat.obj
 0003:00001bf0       __mbctype                  10059bf0     LIBCMT:mbctype.obj
 0003:00001cf8       __mbcasemap                10059cf8     LIBCMT:mbctype.obj
 0003:00001df8       ___initialmbcinfo          10059df8     LIBCMT:mbctype.obj
 0003:0000201c       ___ptmbcinfo               1005a01c     LIBCMT:mbctype.obj
 0003:00002110       ___badioinfo               1005a110     LIBCMT:ioinit.obj
 0003:00002150       __lookuptrailbytes         1005a150     LIBCMT:read.obj
 0003:00002250       __d_inf                    1005a250     LIBCMT:util.obj
 0003:00002258       __d_ind                    1005a258     LIBCMT:util.obj
 0003:00002260       __d_max                    1005a260     LIBCMT:util.obj
 0003:00002268       __d_min                    1005a268     LIBCMT:util.obj
 0003:00002270       __d_mzero                  1005a270     LIBCMT:util.obj
 0003:0000237c       ___abort_behavior          1005a37c     LIBCMT:abort.obj
 0003:00002380       ___flsindex                1005a380     LIBCMT:tidtable.obj
 0003:00002390       ___mb_cur_max              1005a390     LIBCMT:nlsdata.obj
 0003:00002394       ___wclocalestr             1005a394     LIBCMT:nlsdata.obj
 0003:00002398       ___lc_time_c               1005a398     LIBCMT:nlsdata.obj
 0003:000024fc       ___ptlocinfo               1005a4fc     LIBCMT:nlsdata.obj
 0003:00002500       ___initiallocinfo          1005a500     LIBCMT:nlsdata.obj
 0003:000025b8       ___initiallocalestructinfo 1005a5b8     LIBCMT:nlsdata.obj
 0003:000025c0       ___globallocalestatus      1005a5c0     LIBCMT:glstatus.obj
 0003:000025c4       __matherr_flag             1005a5c4     LIBCMT:matherr.obj
 0003:000025d0       __NLG_Destination          1005a5d0     LIBCMT:exsup.obj
 0003:000025e0       ___lconv                   1005a5e0     LIBCMT:lconv.obj
 0003:000025e4       ___lconv_static_decimal    1005a5e4     LIBCMT:lconv.obj
 0003:000025e8       ___lconv_c                 1005a5e8     LIBCMT:lconv.obj
 0003:00002638       ___lconv_static_W_decimal  1005a638     LIBCMT:lconv.obj
 0003:0000263c       __pctype                   1005a63c     LIBCMT:ctype.obj
 0003:00002640       __pwctype                  1005a640     LIBCMT:ctype.obj
 0003:00002680       __confh                    1005a680     LIBCMT:initcon.obj
 0003:00002688       __pow10pos                 1005a688     LIBCMT:constpow.obj
 0003:000027e8       __pow10neg                 1005a7e8     LIBCMT:constpow.obj
 0003:00002950       __HUGE                     1005a950     LIBCMT:huge.obj
 0003:00002e9c       ___isa_available_default   1005ae9c     rt_logging.obj
 0003:00002eac       _pci20098PortA             1005aeac     xpctarget.obj
 0003:00002eb0       _pci20098PortB             1005aeb0     xpctarget.obj
 0003:00002eb4       _siepowercan_firmware_initialized 1005aeb4     xpctarget.obj
 0003:00002eb8       _siepowercan_port1_configured 1005aeb8     xpctarget.obj
 0003:00002ebc       _siepowercan_port2_configured 1005aebc     xpctarget.obj
 0003:00002ec0       _CANAC2_FIRMWARE_LOADED    1005aec0     xpctarget.obj
 0003:00002ec4       _rs232ports                1005aec4     xpctarget.obj
 0003:00002ed4       _NI_AT_MIO_16F_5_commreg2  1005aed4     xpctarget.obj
 0003:00002ed8       _RTD_DM6430_init           1005aed8     xpctarget.obj
 0003:00002edc       _RTD_DM6420_init           1005aedc     xpctarget.obj
 0003:00002ee0       _CANAC2_FIRMWARE_LOADED_mb1 1005aee0     xpctarget.obj
 0003:00002ee4       _CANAC2_FIRMWARE_LOADED_mb2 1005aee4     xpctarget.obj
 0003:00002ee8       _CANAC2_FIRMWARE_LOADED_mb3 1005aee8     xpctarget.obj
 0003:00002eec       _xmlsize                   1005aeec     xpctarget.obj
 0003:000035f8       ___fastflag                1005b5f8     LIBCMT:fpinit.obj
 0003:00003920       __C_Exit_Done              1005b920     LIBCMT:crt0dat.obj
 0003:00003924       ___argc                    1005b924     LIBCMT:crt0dat.obj
 0003:00003928       ___argv                    1005b928     LIBCMT:crt0dat.obj
 0003:0000392c       ___wargv                   1005b92c     LIBCMT:crt0dat.obj
 0003:00003930       __environ                  1005b930     LIBCMT:crt0dat.obj
 0003:00003934       __wenviron                 1005b934     LIBCMT:crt0dat.obj
 0003:00003938       __pgmptr                   1005b938     LIBCMT:crt0dat.obj
 0003:0000393c       __wpgmptr                  1005b93c     LIBCMT:crt0dat.obj
 0003:00003940       __umaskval                 1005b940     LIBCMT:crt0dat.obj
 0003:00003944       __exitflag                 1005b944     LIBCMT:crt0dat.obj
 0003:00003948       __C_Termination_Done       1005b948     LIBCMT:crt0dat.obj
 0003:0000394c       ___winitenv                1005b94c     LIBCMT:crt0dat.obj
 0003:00003950       ___initenv                 1005b950     LIBCMT:crt0dat.obj
 0003:00003954       __cflush                   1005b954     LIBCMT:_file.obj
 0003:00003958       ___isa_available           1005b958     LIBCMT:cpu_disp.obj
 0003:0000395c       ___favor                   1005b95c     LIBCMT:cpu_disp.obj
 0003:00003964       __aenvptr                  1005b964     LIBCMT:dllcrt0.obj
 0003:00003968       __wenvptr                  1005b968     LIBCMT:dllcrt0.obj
 0003:0000396c       ?_pnhHeap@@3P6AHI@ZA       1005b96c     LIBCMT:handler.obj
 0003:00003970       ___app_type                1005b970     LIBCMT:crt0msg.obj
 0003:00003fa0       __newmode                  1005bfa0     LIBCMT:_newmode.obj
 0003:00003fa4       __crtheap                  1005bfa4     LIBCMT:heapinit.obj
 0003:00003fa8       ___pInvalidArgHandler      1005bfa8     LIBCMT:invarg.obj
 0003:00003fac       __stdbuf                   1005bfac     LIBCMT:_sftbuf.obj
 0003:00004108       __maxwait                  1005c108     LIBCMT:crtheap.obj
 0003:0000410c       ?__pInconsistency@@3P6AXXZA 1005c10c     LIBCMT:hooks.obj
 0003:00004110       ___pPurecall               1005c110     LIBCMT:inithelp.obj
 0003:0000412c       ___mbcodepage              1005c12c     LIBCMT:mbctype.obj
 0003:00004130       ___ismbcodepage            1005c130     LIBCMT:mbctype.obj
 0003:00004134       ___mbulinfo                1005c134     LIBCMT:mbctype.obj
 0003:00004140       ___mblocalename            1005c140     LIBCMT:mbctype.obj
 0003:00004148       ___pioinfo                 1005c148     LIBCMT:ioinit.obj
 0003:00004248       ___error_mode              1005c248     LIBCMT:errmode.obj
 0003:00004368       __outputformat             1005c368     LIBCMT:outputformat.obj
 0003:00004370       __commode                  1005c370     LIBCMT:ncommode.obj
 0003:00004374       ___lconv_static_null       1005c374     LIBCMT:lconv.obj
 0003:00004378       ___lconv_static_W_null     1005c378     LIBCMT:lconv.obj
 0003:0000437c       ___locale_changed          1005c37c     LIBCMT:wsetloca.obj
 0003:00004380       __fmode                    1005c380     LIBCMT:txtmode.obj
 0003:000043a0       _CANAC2_2_receiveindex_mb3 1005c3a0     <common>
 0003:00007474       _CANAC2_2_receivemaxindex_mb3 1005f474     <common>
 0003:00007480       _CANAC2_2_sendindex_mb3    1005f480     <common>
 0003:000077a0       _CANAC2_2_sendmaxindex_mb3 1005f7a0     <common>
 0003:000077c0       _CANAC2_1_receiveindex_mb3 1005f7c0     <common>
 0003:00007ae0       _CANAC2_1_receivemaxindex_mb3 1005fae0     <common>
 0003:00007b00       _CANAC2_1_sendindex_mb3    1005fb00     <common>
 0003:00007e20       _CANAC2_1_sendmaxindex_mb3 1005fe20     <common>
 0003:00007e40       _CANAC2_2_receive_mb3      1005fe40     <common>
 0003:00008160       _CANAC2_2_send_mb3         10060160     <common>
 0003:00008480       _CANAC2_1_receive_mb3      10060480     <common>
 0003:000087a0       _CANAC2_1_send_mb3         100607a0     <common>
 0003:00008ac0       _CANAC2_2_receiveindex_mb2 10060ac0     <common>
 0003:00008de0       _CANAC2_2_receivemaxindex_mb2 10060de0     <common>
 0003:00008e00       _CANAC2_2_sendindex_mb2    10060e00     <common>
 0003:00009120       _CANAC2_2_sendmaxindex_mb2 10061120     <common>
 0003:00009140       _CANAC2_1_receiveindex_mb2 10061140     <common>
 0003:00009460       _CANAC2_1_receivemaxindex_mb2 10061460     <common>
 0003:00009480       _CANAC2_1_sendindex_mb2    10061480     <common>
 0003:000097a0       _CANAC2_1_sendmaxindex_mb2 100617a0     <common>
 0003:000097c0       _CANAC2_2_receive_mb2      100617c0     <common>
 0003:00009ae0       _CANAC2_2_send_mb2         10061ae0     <common>
 0003:00009e00       _CANAC2_1_receive_mb2      10061e00     <common>
 0003:0000a120       _CANAC2_1_send_mb2         10062120     <common>
 0003:0000a440       _CANAC2_2_receiveindex_mb1 10062440     <common>
 0003:0000a760       _CANAC2_2_receivemaxindex_mb1 10062760     <common>
 0003:0000a780       _CANAC2_2_sendindex_mb1    10062780     <common>
 0003:0000aaa0       _CANAC2_2_sendmaxindex_mb1 10062aa0     <common>
 0003:0000aac0       _CANAC2_1_receiveindex_mb1 10062ac0     <common>
 0003:0000ade0       _CANAC2_1_receivemaxindex_mb1 10062de0     <common>
 0003:0000ae00       _CANAC2_1_sendindex_mb1    10062e00     <common>
 0003:0000b120       _CANAC2_1_sendmaxindex_mb1 10063120     <common>
 0003:0000b140       _CANAC2_2_receive_mb1      10063140     <common>
 0003:0000b460       _CANAC2_2_send_mb1         10063460     <common>
 0003:0000b780       _CANAC2_1_receive_mb1      10063780     <common>
 0003:0000baa0       _CANAC2_1_send_mb1         10063aa0     <common>
 0003:0000bdc0       _CANAC2_2_receiveindex     10063dc0     <common>
 0003:0000c0e0       _CANAC2_2_receivemaxindex  100640e0     <common>
 0003:0000c100       _CANAC2_2_sendindex        10064100     <common>
 0003:0000c420       _CANAC2_2_sendmaxindex     10064420     <common>
 0003:0000c440       _CANAC2_1_receiveindex     10064440     <common>
 0003:0000c760       _CANAC2_1_receivemaxindex  10064760     <common>
 0003:0000c780       _CANAC2_1_sendindex        10064780     <common>
 0003:0000caa0       _CANAC2_1_sendmaxindex     10064aa0     <common>
 0003:0000cac0       _CANAC2_2_receive          10064ac0     <common>
 0003:0000cde0       _CANAC2_2_send             10064de0     <common>
 0003:0000d100       _CANAC2_1_receive          10065100     <common>
 0003:0000d420       _CANAC2_1_send             10065420     <common>
 0003:0000d740       _siepowercan_can_object_buffer_port2 10065740     <common>
 0003:00011760       _siepowercan_can_object_buffer_port1 10069760     <common>
 0003:00015760       _rtNaNF                    1006d760     <common>
 0003:00015774       _rtMinusInfF               1006d774     <common>
 0003:00015778       _rtInfF                    1006d778     <common>
 0003:00015780       _rtNaN                     1006d780     <common>
 0003:00015788       _rtMinusInf                1006d788     <common>
 0003:00015790       _rtInf                     1006d790     <common>
 0003:000157a0       _FingerStrokeAssistance_M_ 1006d7a0     <common>
 0003:000173a9       _FingerStrokeAssistance_PrevZCX 1006f3a9     <common>
 0003:000173c0       _FingerStrokeAssistance_DW 1006f3c0     <common>
 0003:00017760       _FingerStrokeAssistance_B  1006f760     <common>
 0003:00017d88       _xpceaddEvent              1006fd88     <common>
 0003:00017dd8       _xpceDeRegisterISR         1006fdd8     <common>
 0003:00017ddc       _xpceRegisterISR           1006fddc     <common>
 0003:00017de0       _xpcIsModelInit            1006fde0     <common>
 0003:00017de4       _xpcGetElapsedTime         1006fde4     <common>
 0003:00017de8       _xpcBusyWait               1006fde8     <common>
 0003:00017dec       _xpcFreePhysicalMemory     1006fdec     <common>
 0003:00017df0       _xpcAllocPhysicalMemory    1006fdf0     <common>
 0003:00017df4       _xpcReserveMemoryRegion    1006fdf4     <common>
 0003:00017df8       _xpcOutpB                  1006fdf8     <common>
 0003:00017dfc       _xpcOutpW                  1006fdfc     <common>
 0003:00017e00       _xpcOutpDW                 1006fe00     <common>
 0003:00017e04       _xpcInpB                   1006fe04     <common>
 0003:00017e08       _xpcInpW                   1006fe08     <common>
 0003:00017e0c       _xpcInpDW                  1006fe0c     <common>
 0003:00017e10       _slTestRegAssessment       1006fe10     <common>
 0003:00017e14       _slTestTerminate           1006fe14     <common>
 0003:00017e18       _slTestEvalOnFail          1006fe18     <common>
 0003:00017e1c       _slTestLogAssessments      1006fe1c     <common>
 0003:00017e20       _slTestInitialize          1006fe20     <common>
 0003:00017e24       _unRegisterPTPTimeRead     1006fe24     <common>
 0003:00017e28       _registerPTPTimeRead       1006fe28     <common>
 0003:00017e2c       _slrteGetCurrentStepSize   1006fe2c     <common>
 0003:00017e30       _slrteSetStepSizeDelta     1006fe30     <common>
 0003:00017e34       _xpceGetIntTimerGranularityNS 1006fe34     <common>
 0003:00017e38       _sendToAsyncQueueTgtAppSvc 1006fe38     <common>
 0003:00017e3c       _terminateToAsyncQueueTgtAppSvc 1006fe3c     <common>
 0003:00017e40       _startToAsyncQueueTgtAppSvc 1006fe40     <common>
 0003:00017e44       _getStatusFlags            1006fe44     <common>
 0003:00017e48       _getCommService            1006fe48     <common>
 0003:00017e4c       _getMemoryService          1006fe4c     <common>
 0003:00017e50       _StreamVideo               1006fe50     <common>
 0003:00017e54       _StopVideoDisplay          1006fe54     <common>
 0003:00017e58       _StartVideoDisplay         1006fe58     <common>
 0003:00017e5c       _DestroyVideoDisplay       1006fe5c     <common>
 0003:00017e60       _CreateVideoDisplay        1006fe60     <common>
 0003:00017e64       _ConvertUImage             1006fe64     <common>
 0003:00017e68       _StopVideo                 1006fe68     <common>
 0003:00017e6c       _ReadFrameBuffer           1006fe6c     <common>
 0003:00017e70       _StartVideo                1006fe70     <common>
 0003:00017e74       _GetVideoConfigs           1006fe74     <common>
 0003:00017e78       _FindUsbVideoDevice        1006fe78     <common>
 0003:00017e7c       _xpceDeleteSemaphore       1006fe7c     <common>
 0003:00017e80       _xpceSignalSemaphore       1006fe80     <common>
 0003:00017e84       _xpceWaitSemaphore         1006fe84     <common>
 0003:00017e88       _xpceCreateSemaphore       1006fe88     <common>
 0003:00017e8c       _TBGiveSpinFast            1006fe8c     <common>
 0003:00017e90       _TBTakeSpinFast            1006fe90     <common>
 0003:00017e94       _TBDeleteSpin              1006fe94     <common>
 0003:00017e98       _TBCreateSpin              1006fe98     <common>
 0003:00017e9c       _xpceScopeAcqOK            1006fe9c     <common>
 0003:00017ea0       _rl32eRestartAcquisition   1006fea0     <common>
 0003:00017ea4       _rl32eSetTargetScopeSigFt  1006fea4     <common>
 0003:00017ea8       _rl32eSetTargetScope       1006fea8     <common>
 0003:00017eac       _xpceFSScopeSet            1006feac     <common>
 0003:00017eb0       _rl32eSetScope             1006feb0     <common>
 0003:00017eb4       _rl32eAddSignal            1006feb4     <common>
 0003:00017eb8       _rl32eGetSignalNo          1006feb8     <common>
 0003:00017ebc       _rl32eDefScope             1006febc     <common>
 0003:00017ec0       _rl32eScopeExists          1006fec0     <common>
 0003:00017ec4       _xpceUDPClose              1006fec4     <common>
 0003:00017ec8       _xpceUDPReceive            1006fec8     <common>
 0003:00017ecc       _xpceUDPSend               1006fecc     <common>
 0003:00017ed0       _xpceUDPOpenReceive        1006fed0     <common>
 0003:00017ed4       _xpceUDPOpenSend           1006fed4     <common>
 0003:00017ed8       _rl32eSendBlock            1006fed8     <common>
 0003:00017edc       _rl32eLineStatus           1006fedc     <common>
 0003:00017ee0       _rl32eReceiveBufferCount   1006fee0     <common>
 0003:00017ee4       _rl32eReceiveChar          1006fee4     <common>
 0003:00017ee8       _rl32eSendChar             1006fee8     <common>
 0003:00017eec       _rl32eCloseCOMPort         1006feec     <common>
 0003:00017ef0       _rl32eInitCOMPort          1006fef0     <common>
 0003:00017ef4       _xpceGetParamDims          1006fef4     <common>
 0003:00017ef8       _xpceGetParameter          1006fef8     <common>
 0003:00017efc       _xpceSetParameter          1006fefc     <common>
 0003:00017f00       _xpceGetSignalValue        1006ff00     <common>
 0003:00017f04       _xpceAssignPCIInterrupt    1006ff04     <common>
 0003:00017f08       _rl32eGetPCIInfoAtSlot     1006ff08     <common>
 0003:00017f0c       _rl32eGetPCIInfo           1006ff0c     <common>
 0003:00017f10       _rl32eShowPCIInfo          1006ff10     <common>
 0003:00017f14       _rl32eShowPCIDev           1006ff14     <common>
 0003:00017f18       _xpceGetTET                1006ff18     <common>
 0003:00017f1c       _xpceFTSubtract            1006ff1c     <common>
 0003:00017f20       _xpceFTAdd                 1006ff20     <common>
 0003:00017f24       _xpceFTReadTime            1006ff24     <common>
 0003:00017f28       ___unguarded_readlc_active 1006ff28     <common>
 0003:00017f38       ___setlc_active            1006ff38     <common>
 0003:00017f3c       __nhandle                  1006ff3c     <common>
 0003:00017f60       _encodedKERNEL32Functions  1006ff60     <common>
 0003:00018008       __debugger_hook_dummy      10070008     <common>
 0003:00018014       ___use_sse2_mathfcns       10070014     <common>
 0003:00018020       __pmatherr                 10070020     <common>
 0003:0001802c       __pDestructExceptionObject 1007002c     <common>
 0003:00018038       __acmdln                   10070038     <common>
 0003:00018060       __bufin                    10070060     <common>
 0003:0001939c       ___piob                    1007139c     <common>
 0003:000193a0       __nstream                  100713a0     <common>
 0003:000193a4       ___dyn_tls_init_callback   100713a4     <common>
 0003:000193b4       ___onexitend               100713b4     <common>
 0003:000193b8       ___onexitbegin             100713b8     <common>
 0003:000193bc       ___mbctype_initialized     100713bc     <common>
 0003:000193c0       ___env_initialized         100713c0     <common>
 0004:00000000       __imp__GetModuleHandleA@4  10072000     kernel32:KERNEL32.dll
 0004:00000004       __imp__GetProcAddress@8    10072004     kernel32:KERNEL32.dll
 0004:00000008       __imp__HeapAlloc@12        10072008     kernel32:KERNEL32.dll
 0004:0000000c       __imp__IsDebuggerPresent@0 1007200c     kernel32:KERNEL32.dll
 0004:00000010       __imp__IsProcessorFeaturePresent@4 10072010     kernel32:KERNEL32.dll
 0004:00000014       __imp__EncodePointer@4     10072014     kernel32:KERNEL32.dll
 0004:00000018       __imp__DecodePointer@4     10072018     kernel32:KERNEL32.dll
 0004:0000001c       __imp__GetLastError@0      1007201c     kernel32:KERNEL32.dll
 0004:00000020       __imp__ExitProcess@4       10072020     kernel32:KERNEL32.dll
 0004:00000024       __imp__GetModuleHandleExW@12 10072024     kernel32:KERNEL32.dll
 0004:00000028       __imp__AreFileApisANSI@0   10072028     kernel32:KERNEL32.dll
 0004:0000002c       __imp__MultiByteToWideChar@24 1007202c     kernel32:KERNEL32.dll
 0004:00000030       __imp__WideCharToMultiByte@32 10072030     kernel32:KERNEL32.dll
 0004:00000034       __imp__HeapFree@12         10072034     kernel32:KERNEL32.dll
 0004:00000038       __imp__HeapReAlloc@16      10072038     kernel32:KERNEL32.dll
 0004:0000003c       __imp__EnterCriticalSection@4 1007203c     kernel32:KERNEL32.dll
 0004:00000040       __imp__LeaveCriticalSection@4 10072040     kernel32:KERNEL32.dll
 0004:00000044       __imp__GetStdHandle@4      10072044     kernel32:KERNEL32.dll
 0004:00000048       __imp__GetFileType@4       10072048     kernel32:KERNEL32.dll
 0004:0000004c       __imp__GetModuleFileNameW@12 1007204c     kernel32:KERNEL32.dll
 0004:00000050       __imp__WriteConsoleW@20    10072050     kernel32:KERNEL32.dll
 0004:00000054       __imp__GetCommandLineA@0   10072054     kernel32:KERNEL32.dll
 0004:00000058       __imp__GetCurrentThreadId@0 10072058     kernel32:KERNEL32.dll
 0004:0000005c       __imp__WriteFile@20        1007205c     kernel32:KERNEL32.dll
 0004:00000060       __imp__GetProcessHeap@0    10072060     kernel32:KERNEL32.dll
 0004:00000064       __imp__UnhandledExceptionFilter@4 10072064     kernel32:KERNEL32.dll
 0004:00000068       __imp__SetUnhandledExceptionFilter@4 10072068     kernel32:KERNEL32.dll
 0004:0000006c       __imp__SetLastError@4      1007206c     kernel32:KERNEL32.dll
 0004:00000070       __imp__InitializeCriticalSectionAndSpinCount@8 10072070     kernel32:KERNEL32.dll
 0004:00000074       __imp__CreateEventW@16     10072074     kernel32:KERNEL32.dll
 0004:00000078       __imp__Sleep@4             10072078     kernel32:KERNEL32.dll
 0004:0000007c       __imp__GetCurrentProcess@0 1007207c     kernel32:KERNEL32.dll
 0004:00000080       __imp__TerminateProcess@8  10072080     kernel32:KERNEL32.dll
 0004:00000084       __imp__TlsAlloc@0          10072084     kernel32:KERNEL32.dll
 0004:00000088       __imp__TlsGetValue@4       10072088     kernel32:KERNEL32.dll
 0004:0000008c       __imp__TlsSetValue@8       1007208c     kernel32:KERNEL32.dll
 0004:00000090       __imp__TlsFree@4           10072090     kernel32:KERNEL32.dll
 0004:00000094       __imp__GetStartupInfoW@4   10072094     kernel32:KERNEL32.dll
 0004:00000098       __imp__GetTickCount@0      10072098     kernel32:KERNEL32.dll
 0004:0000009c       __imp__GetModuleHandleW@4  1007209c     kernel32:KERNEL32.dll
 0004:000000a0       __imp__CreateSemaphoreW@16 100720a0     kernel32:KERNEL32.dll
 0004:000000a4       __imp__DeleteCriticalSection@4 100720a4     kernel32:KERNEL32.dll
 0004:000000a8       __imp__FatalAppExitA@8     100720a8     kernel32:KERNEL32.dll
 0004:000000ac       __imp__SetConsoleCtrlHandler@8 100720ac     kernel32:KERNEL32.dll
 0004:000000b0       __imp__FreeLibrary@4       100720b0     kernel32:KERNEL32.dll
 0004:000000b4       __imp__LoadLibraryExW@12   100720b4     kernel32:KERNEL32.dll
 0004:000000b8       __imp__IsValidCodePage@4   100720b8     kernel32:KERNEL32.dll
 0004:000000bc       __imp__GetACP@0            100720bc     kernel32:KERNEL32.dll
 0004:000000c0       __imp__GetOEMCP@0          100720c0     kernel32:KERNEL32.dll
 0004:000000c4       __imp__GetCPInfo@8         100720c4     kernel32:KERNEL32.dll
 0004:000000c8       __imp__CloseHandle@4       100720c8     kernel32:KERNEL32.dll
 0004:000000cc       __imp__RtlUnwind@16        100720cc     kernel32:KERNEL32.dll
 0004:000000d0       __imp__ReadFile@20         100720d0     kernel32:KERNEL32.dll
 0004:000000d4       __imp__GetConsoleMode@8    100720d4     kernel32:KERNEL32.dll
 0004:000000d8       __imp__ReadConsoleW@20     100720d8     kernel32:KERNEL32.dll
 0004:000000dc       __imp__GetConsoleCP@0      100720dc     kernel32:KERNEL32.dll
 0004:000000e0       __imp__DeleteFileW@4       100720e0     kernel32:KERNEL32.dll
 0004:000000e4       __imp__SetFilePointerEx@20 100720e4     kernel32:KERNEL32.dll
 0004:000000e8       __imp__RaiseException@16   100720e8     kernel32:KERNEL32.dll
 0004:000000ec       __imp__OutputDebugStringW@4 100720ec     kernel32:KERNEL32.dll
 0004:000000f0       __imp__GetCurrentThread@0  100720f0     kernel32:KERNEL32.dll
 0004:000000f4       __imp__GetModuleFileNameA@12 100720f4     kernel32:KERNEL32.dll
 0004:000000f8       __imp__QueryPerformanceCounter@4 100720f8     kernel32:KERNEL32.dll
 0004:000000fc       __imp__GetCurrentProcessId@0 100720fc     kernel32:KERNEL32.dll
 0004:00000100       __imp__GetSystemTimeAsFileTime@4 10072100     kernel32:KERNEL32.dll
 0004:00000104       __imp__GetEnvironmentStringsW@0 10072104     kernel32:KERNEL32.dll
 0004:00000108       __imp__FreeEnvironmentStringsW@4 10072108     kernel32:KERNEL32.dll
 0004:0000010c       __imp__HeapSize@12         1007210c     kernel32:KERNEL32.dll
 0004:00000110       __imp__GetDateFormatW@24   10072110     kernel32:KERNEL32.dll
 0004:00000114       __imp__GetTimeFormatW@24   10072114     kernel32:KERNEL32.dll
 0004:00000118       __imp__CompareStringW@24   10072118     kernel32:KERNEL32.dll
 0004:0000011c       __imp__LCMapStringW@24     1007211c     kernel32:KERNEL32.dll
 0004:00000120       __imp__GetLocaleInfoW@16   10072120     kernel32:KERNEL32.dll
 0004:00000124       __imp__IsValidLocale@8     10072124     kernel32:KERNEL32.dll
 0004:00000128       __imp__GetUserDefaultLCID@0 10072128     kernel32:KERNEL32.dll
 0004:0000012c       __imp__EnumSystemLocalesW@8 1007212c     kernel32:KERNEL32.dll
 0004:00000130       __imp__GetStringTypeW@16   10072130     kernel32:KERNEL32.dll
 0004:00000134       __imp__FlushFileBuffers@4  10072134     kernel32:KERNEL32.dll
 0004:00000138       __imp__SetStdHandle@8      10072138     kernel32:KERNEL32.dll
 0004:0000013c       __imp__CreateFileW@28      1007213c     kernel32:KERNEL32.dll
 0004:00000140       __imp__SetEndOfFile@4      10072140     kernel32:KERNEL32.dll
 0004:00000144       \177KERNEL32_NULL_THUNK_DATA 10072144     kernel32:KERNEL32.dll
 0004:000001b0       __IMPORT_DESCRIPTOR_KERNEL32 100721b0     kernel32:KERNEL32.dll
 0004:000001c4       __NULL_IMPORT_DESCRIPTOR   100721c4     kernel32:KERNEL32.dll

 entry point at        0001:00016ed3

